
DylanDrive.elf:     file format elf32-littlearm

Sections:
Idx Name          Size      VMA       LMA       File off  Algn
  0 .isr_vector   000001d8  08000000  08000000  00010000  2**0
                  CONTENTS, ALLOC, LOAD, READONLY, DATA
  1 .text         0000ab30  080001d8  080001d8  000101d8  2**3
                  CONTENTS, ALLOC, LOAD, READONLY, CODE
  2 .rodata       00000294  0800ad08  0800ad08  0001ad08  2**2
                  CONTENTS, ALLOC, LOAD, READONLY, DATA
  3 .ARM.extab    00000000  0800af9c  0800af9c  0002060c  2**0
                  CONTENTS
  4 .ARM          00000008  0800af9c  0800af9c  0001af9c  2**2
                  CONTENTS, ALLOC, LOAD, READONLY, DATA
  5 .preinit_array 00000000  0800afa4  0800afa4  0002060c  2**0
                  CONTENTS, ALLOC, LOAD, DATA
  6 .init_array   00000004  0800afa4  0800afa4  0001afa4  2**2
                  CONTENTS, ALLOC, LOAD, DATA
  7 .fini_array   00000004  0800afa8  0800afa8  0001afa8  2**2
                  CONTENTS, ALLOC, LOAD, DATA
  8 .data         0000060c  20000000  0800afac  00020000  2**2
                  CONTENTS, ALLOC, LOAD, DATA
  9 .bss          00000790  20000610  0800b5b8  00020610  2**3
                  ALLOC
 10 ._user_heap_stack 00000600  20000da0  0800b5b8  00020da0  2**0
                  ALLOC
 11 .ARM.attributes 00000030  00000000  00000000  0002060c  2**0
                  CONTENTS, READONLY
 12 .comment      000000f7  00000000  00000000  0002063c  2**0
                  CONTENTS, READONLY
 13 .debug_frame  000000ac  00000000  00000000  00020734  2**2
                  CONTENTS, READONLY, DEBUGGING

Disassembly of section .text:

080001d8 <__do_global_dtors_aux>:
 80001d8:	b510      	push	{r4, lr}
 80001da:	4c05      	ldr	r4, [pc, #20]	; (80001f0 <__do_global_dtors_aux+0x18>)
 80001dc:	7823      	ldrb	r3, [r4, #0]
 80001de:	b933      	cbnz	r3, 80001ee <__do_global_dtors_aux+0x16>
 80001e0:	4b04      	ldr	r3, [pc, #16]	; (80001f4 <__do_global_dtors_aux+0x1c>)
 80001e2:	b113      	cbz	r3, 80001ea <__do_global_dtors_aux+0x12>
 80001e4:	4804      	ldr	r0, [pc, #16]	; (80001f8 <__do_global_dtors_aux+0x20>)
 80001e6:	f3af 8000 	nop.w
 80001ea:	2301      	movs	r3, #1
 80001ec:	7023      	strb	r3, [r4, #0]
 80001ee:	bd10      	pop	{r4, pc}
 80001f0:	20000610 	.word	0x20000610
 80001f4:	00000000 	.word	0x00000000
 80001f8:	0800acf0 	.word	0x0800acf0

080001fc <frame_dummy>:
 80001fc:	b508      	push	{r3, lr}
 80001fe:	4b03      	ldr	r3, [pc, #12]	; (800020c <frame_dummy+0x10>)
 8000200:	b11b      	cbz	r3, 800020a <frame_dummy+0xe>
 8000202:	4903      	ldr	r1, [pc, #12]	; (8000210 <frame_dummy+0x14>)
 8000204:	4803      	ldr	r0, [pc, #12]	; (8000214 <frame_dummy+0x18>)
 8000206:	f3af 8000 	nop.w
 800020a:	bd08      	pop	{r3, pc}
 800020c:	00000000 	.word	0x00000000
 8000210:	20000614 	.word	0x20000614
 8000214:	0800acf0 	.word	0x0800acf0

08000218 <__aeabi_uldivmod>:
 8000218:	b953      	cbnz	r3, 8000230 <__aeabi_uldivmod+0x18>
 800021a:	b94a      	cbnz	r2, 8000230 <__aeabi_uldivmod+0x18>
 800021c:	2900      	cmp	r1, #0
 800021e:	bf08      	it	eq
 8000220:	2800      	cmpeq	r0, #0
 8000222:	bf1c      	itt	ne
 8000224:	f04f 31ff 	movne.w	r1, #4294967295
 8000228:	f04f 30ff 	movne.w	r0, #4294967295
 800022c:	f000 b972 	b.w	8000514 <__aeabi_idiv0>
 8000230:	f1ad 0c08 	sub.w	ip, sp, #8
 8000234:	e96d ce04 	strd	ip, lr, [sp, #-16]!
 8000238:	f000 f806 	bl	8000248 <__udivmoddi4>
 800023c:	f8dd e004 	ldr.w	lr, [sp, #4]
 8000240:	e9dd 2302 	ldrd	r2, r3, [sp, #8]
 8000244:	b004      	add	sp, #16
 8000246:	4770      	bx	lr

08000248 <__udivmoddi4>:
 8000248:	e92d 47f0 	stmdb	sp!, {r4, r5, r6, r7, r8, r9, sl, lr}
 800024c:	9e08      	ldr	r6, [sp, #32]
 800024e:	4604      	mov	r4, r0
 8000250:	4688      	mov	r8, r1
 8000252:	2b00      	cmp	r3, #0
 8000254:	d14b      	bne.n	80002ee <__udivmoddi4+0xa6>
 8000256:	428a      	cmp	r2, r1
 8000258:	4615      	mov	r5, r2
 800025a:	d967      	bls.n	800032c <__udivmoddi4+0xe4>
 800025c:	fab2 f282 	clz	r2, r2
 8000260:	b14a      	cbz	r2, 8000276 <__udivmoddi4+0x2e>
 8000262:	f1c2 0720 	rsb	r7, r2, #32
 8000266:	fa01 f302 	lsl.w	r3, r1, r2
 800026a:	fa20 f707 	lsr.w	r7, r0, r7
 800026e:	4095      	lsls	r5, r2
 8000270:	ea47 0803 	orr.w	r8, r7, r3
 8000274:	4094      	lsls	r4, r2
 8000276:	ea4f 4e15 	mov.w	lr, r5, lsr #16
 800027a:	0c23      	lsrs	r3, r4, #16
 800027c:	fbb8 f7fe 	udiv	r7, r8, lr
 8000280:	fa1f fc85 	uxth.w	ip, r5
 8000284:	fb0e 8817 	mls	r8, lr, r7, r8
 8000288:	ea43 4308 	orr.w	r3, r3, r8, lsl #16
 800028c:	fb07 f10c 	mul.w	r1, r7, ip
 8000290:	4299      	cmp	r1, r3
 8000292:	d909      	bls.n	80002a8 <__udivmoddi4+0x60>
 8000294:	18eb      	adds	r3, r5, r3
 8000296:	f107 30ff 	add.w	r0, r7, #4294967295
 800029a:	f080 811b 	bcs.w	80004d4 <__udivmoddi4+0x28c>
 800029e:	4299      	cmp	r1, r3
 80002a0:	f240 8118 	bls.w	80004d4 <__udivmoddi4+0x28c>
 80002a4:	3f02      	subs	r7, #2
 80002a6:	442b      	add	r3, r5
 80002a8:	1a5b      	subs	r3, r3, r1
 80002aa:	b2a4      	uxth	r4, r4
 80002ac:	fbb3 f0fe 	udiv	r0, r3, lr
 80002b0:	fb0e 3310 	mls	r3, lr, r0, r3
 80002b4:	ea44 4403 	orr.w	r4, r4, r3, lsl #16
 80002b8:	fb00 fc0c 	mul.w	ip, r0, ip
 80002bc:	45a4      	cmp	ip, r4
 80002be:	d909      	bls.n	80002d4 <__udivmoddi4+0x8c>
 80002c0:	192c      	adds	r4, r5, r4
 80002c2:	f100 33ff 	add.w	r3, r0, #4294967295
 80002c6:	f080 8107 	bcs.w	80004d8 <__udivmoddi4+0x290>
 80002ca:	45a4      	cmp	ip, r4
 80002cc:	f240 8104 	bls.w	80004d8 <__udivmoddi4+0x290>
 80002d0:	3802      	subs	r0, #2
 80002d2:	442c      	add	r4, r5
 80002d4:	ea40 4007 	orr.w	r0, r0, r7, lsl #16
 80002d8:	eba4 040c 	sub.w	r4, r4, ip
 80002dc:	2700      	movs	r7, #0
 80002de:	b11e      	cbz	r6, 80002e8 <__udivmoddi4+0xa0>
 80002e0:	40d4      	lsrs	r4, r2
 80002e2:	2300      	movs	r3, #0
 80002e4:	e9c6 4300 	strd	r4, r3, [r6]
 80002e8:	4639      	mov	r1, r7
 80002ea:	e8bd 87f0 	ldmia.w	sp!, {r4, r5, r6, r7, r8, r9, sl, pc}
 80002ee:	428b      	cmp	r3, r1
 80002f0:	d909      	bls.n	8000306 <__udivmoddi4+0xbe>
 80002f2:	2e00      	cmp	r6, #0
 80002f4:	f000 80eb 	beq.w	80004ce <__udivmoddi4+0x286>
 80002f8:	2700      	movs	r7, #0
 80002fa:	e9c6 0100 	strd	r0, r1, [r6]
 80002fe:	4638      	mov	r0, r7
 8000300:	4639      	mov	r1, r7
 8000302:	e8bd 87f0 	ldmia.w	sp!, {r4, r5, r6, r7, r8, r9, sl, pc}
 8000306:	fab3 f783 	clz	r7, r3
 800030a:	2f00      	cmp	r7, #0
 800030c:	d147      	bne.n	800039e <__udivmoddi4+0x156>
 800030e:	428b      	cmp	r3, r1
 8000310:	d302      	bcc.n	8000318 <__udivmoddi4+0xd0>
 8000312:	4282      	cmp	r2, r0
 8000314:	f200 80fa 	bhi.w	800050c <__udivmoddi4+0x2c4>
 8000318:	1a84      	subs	r4, r0, r2
 800031a:	eb61 0303 	sbc.w	r3, r1, r3
 800031e:	2001      	movs	r0, #1
 8000320:	4698      	mov	r8, r3
 8000322:	2e00      	cmp	r6, #0
 8000324:	d0e0      	beq.n	80002e8 <__udivmoddi4+0xa0>
 8000326:	e9c6 4800 	strd	r4, r8, [r6]
 800032a:	e7dd      	b.n	80002e8 <__udivmoddi4+0xa0>
 800032c:	b902      	cbnz	r2, 8000330 <__udivmoddi4+0xe8>
 800032e:	deff      	udf	#255	; 0xff
 8000330:	fab2 f282 	clz	r2, r2
 8000334:	2a00      	cmp	r2, #0
 8000336:	f040 808f 	bne.w	8000458 <__udivmoddi4+0x210>
 800033a:	1b49      	subs	r1, r1, r5
 800033c:	ea4f 4e15 	mov.w	lr, r5, lsr #16
 8000340:	fa1f f885 	uxth.w	r8, r5
 8000344:	2701      	movs	r7, #1
 8000346:	fbb1 fcfe 	udiv	ip, r1, lr
 800034a:	0c23      	lsrs	r3, r4, #16
 800034c:	fb0e 111c 	mls	r1, lr, ip, r1
 8000350:	ea43 4301 	orr.w	r3, r3, r1, lsl #16
 8000354:	fb08 f10c 	mul.w	r1, r8, ip
 8000358:	4299      	cmp	r1, r3
 800035a:	d907      	bls.n	800036c <__udivmoddi4+0x124>
 800035c:	18eb      	adds	r3, r5, r3
 800035e:	f10c 30ff 	add.w	r0, ip, #4294967295
 8000362:	d202      	bcs.n	800036a <__udivmoddi4+0x122>
 8000364:	4299      	cmp	r1, r3
 8000366:	f200 80cd 	bhi.w	8000504 <__udivmoddi4+0x2bc>
 800036a:	4684      	mov	ip, r0
 800036c:	1a59      	subs	r1, r3, r1
 800036e:	b2a3      	uxth	r3, r4
 8000370:	fbb1 f0fe 	udiv	r0, r1, lr
 8000374:	fb0e 1410 	mls	r4, lr, r0, r1
 8000378:	ea43 4404 	orr.w	r4, r3, r4, lsl #16
 800037c:	fb08 f800 	mul.w	r8, r8, r0
 8000380:	45a0      	cmp	r8, r4
 8000382:	d907      	bls.n	8000394 <__udivmoddi4+0x14c>
 8000384:	192c      	adds	r4, r5, r4
 8000386:	f100 33ff 	add.w	r3, r0, #4294967295
 800038a:	d202      	bcs.n	8000392 <__udivmoddi4+0x14a>
 800038c:	45a0      	cmp	r8, r4
 800038e:	f200 80b6 	bhi.w	80004fe <__udivmoddi4+0x2b6>
 8000392:	4618      	mov	r0, r3
 8000394:	eba4 0408 	sub.w	r4, r4, r8
 8000398:	ea40 400c 	orr.w	r0, r0, ip, lsl #16
 800039c:	e79f      	b.n	80002de <__udivmoddi4+0x96>
 800039e:	f1c7 0c20 	rsb	ip, r7, #32
 80003a2:	40bb      	lsls	r3, r7
 80003a4:	fa22 fe0c 	lsr.w	lr, r2, ip
 80003a8:	ea4e 0e03 	orr.w	lr, lr, r3
 80003ac:	fa01 f407 	lsl.w	r4, r1, r7
 80003b0:	fa20 f50c 	lsr.w	r5, r0, ip
 80003b4:	fa21 f30c 	lsr.w	r3, r1, ip
 80003b8:	ea4f 481e 	mov.w	r8, lr, lsr #16
 80003bc:	4325      	orrs	r5, r4
 80003be:	fbb3 f9f8 	udiv	r9, r3, r8
 80003c2:	0c2c      	lsrs	r4, r5, #16
 80003c4:	fb08 3319 	mls	r3, r8, r9, r3
 80003c8:	fa1f fa8e 	uxth.w	sl, lr
 80003cc:	ea44 4303 	orr.w	r3, r4, r3, lsl #16
 80003d0:	fb09 f40a 	mul.w	r4, r9, sl
 80003d4:	429c      	cmp	r4, r3
 80003d6:	fa02 f207 	lsl.w	r2, r2, r7
 80003da:	fa00 f107 	lsl.w	r1, r0, r7
 80003de:	d90b      	bls.n	80003f8 <__udivmoddi4+0x1b0>
 80003e0:	eb1e 0303 	adds.w	r3, lr, r3
 80003e4:	f109 30ff 	add.w	r0, r9, #4294967295
 80003e8:	f080 8087 	bcs.w	80004fa <__udivmoddi4+0x2b2>
 80003ec:	429c      	cmp	r4, r3
 80003ee:	f240 8084 	bls.w	80004fa <__udivmoddi4+0x2b2>
 80003f2:	f1a9 0902 	sub.w	r9, r9, #2
 80003f6:	4473      	add	r3, lr
 80003f8:	1b1b      	subs	r3, r3, r4
 80003fa:	b2ad      	uxth	r5, r5
 80003fc:	fbb3 f0f8 	udiv	r0, r3, r8
 8000400:	fb08 3310 	mls	r3, r8, r0, r3
 8000404:	ea45 4403 	orr.w	r4, r5, r3, lsl #16
 8000408:	fb00 fa0a 	mul.w	sl, r0, sl
 800040c:	45a2      	cmp	sl, r4
 800040e:	d908      	bls.n	8000422 <__udivmoddi4+0x1da>
 8000410:	eb1e 0404 	adds.w	r4, lr, r4
 8000414:	f100 33ff 	add.w	r3, r0, #4294967295
 8000418:	d26b      	bcs.n	80004f2 <__udivmoddi4+0x2aa>
 800041a:	45a2      	cmp	sl, r4
 800041c:	d969      	bls.n	80004f2 <__udivmoddi4+0x2aa>
 800041e:	3802      	subs	r0, #2
 8000420:	4474      	add	r4, lr
 8000422:	ea40 4009 	orr.w	r0, r0, r9, lsl #16
 8000426:	fba0 8902 	umull	r8, r9, r0, r2
 800042a:	eba4 040a 	sub.w	r4, r4, sl
 800042e:	454c      	cmp	r4, r9
 8000430:	46c2      	mov	sl, r8
 8000432:	464b      	mov	r3, r9
 8000434:	d354      	bcc.n	80004e0 <__udivmoddi4+0x298>
 8000436:	d051      	beq.n	80004dc <__udivmoddi4+0x294>
 8000438:	2e00      	cmp	r6, #0
 800043a:	d069      	beq.n	8000510 <__udivmoddi4+0x2c8>
 800043c:	ebb1 050a 	subs.w	r5, r1, sl
 8000440:	eb64 0403 	sbc.w	r4, r4, r3
 8000444:	fa04 fc0c 	lsl.w	ip, r4, ip
 8000448:	40fd      	lsrs	r5, r7
 800044a:	40fc      	lsrs	r4, r7
 800044c:	ea4c 0505 	orr.w	r5, ip, r5
 8000450:	e9c6 5400 	strd	r5, r4, [r6]
 8000454:	2700      	movs	r7, #0
 8000456:	e747      	b.n	80002e8 <__udivmoddi4+0xa0>
 8000458:	f1c2 0320 	rsb	r3, r2, #32
 800045c:	fa20 f703 	lsr.w	r7, r0, r3
 8000460:	4095      	lsls	r5, r2
 8000462:	fa01 f002 	lsl.w	r0, r1, r2
 8000466:	fa21 f303 	lsr.w	r3, r1, r3
 800046a:	ea4f 4e15 	mov.w	lr, r5, lsr #16
 800046e:	4338      	orrs	r0, r7
 8000470:	0c01      	lsrs	r1, r0, #16
 8000472:	fbb3 f7fe 	udiv	r7, r3, lr
 8000476:	fa1f f885 	uxth.w	r8, r5
 800047a:	fb0e 3317 	mls	r3, lr, r7, r3
 800047e:	ea41 4103 	orr.w	r1, r1, r3, lsl #16
 8000482:	fb07 f308 	mul.w	r3, r7, r8
 8000486:	428b      	cmp	r3, r1
 8000488:	fa04 f402 	lsl.w	r4, r4, r2
 800048c:	d907      	bls.n	800049e <__udivmoddi4+0x256>
 800048e:	1869      	adds	r1, r5, r1
 8000490:	f107 3cff 	add.w	ip, r7, #4294967295
 8000494:	d22f      	bcs.n	80004f6 <__udivmoddi4+0x2ae>
 8000496:	428b      	cmp	r3, r1
 8000498:	d92d      	bls.n	80004f6 <__udivmoddi4+0x2ae>
 800049a:	3f02      	subs	r7, #2
 800049c:	4429      	add	r1, r5
 800049e:	1acb      	subs	r3, r1, r3
 80004a0:	b281      	uxth	r1, r0
 80004a2:	fbb3 f0fe 	udiv	r0, r3, lr
 80004a6:	fb0e 3310 	mls	r3, lr, r0, r3
 80004aa:	ea41 4103 	orr.w	r1, r1, r3, lsl #16
 80004ae:	fb00 f308 	mul.w	r3, r0, r8
 80004b2:	428b      	cmp	r3, r1
 80004b4:	d907      	bls.n	80004c6 <__udivmoddi4+0x27e>
 80004b6:	1869      	adds	r1, r5, r1
 80004b8:	f100 3cff 	add.w	ip, r0, #4294967295
 80004bc:	d217      	bcs.n	80004ee <__udivmoddi4+0x2a6>
 80004be:	428b      	cmp	r3, r1
 80004c0:	d915      	bls.n	80004ee <__udivmoddi4+0x2a6>
 80004c2:	3802      	subs	r0, #2
 80004c4:	4429      	add	r1, r5
 80004c6:	1ac9      	subs	r1, r1, r3
 80004c8:	ea40 4707 	orr.w	r7, r0, r7, lsl #16
 80004cc:	e73b      	b.n	8000346 <__udivmoddi4+0xfe>
 80004ce:	4637      	mov	r7, r6
 80004d0:	4630      	mov	r0, r6
 80004d2:	e709      	b.n	80002e8 <__udivmoddi4+0xa0>
 80004d4:	4607      	mov	r7, r0
 80004d6:	e6e7      	b.n	80002a8 <__udivmoddi4+0x60>
 80004d8:	4618      	mov	r0, r3
 80004da:	e6fb      	b.n	80002d4 <__udivmoddi4+0x8c>
 80004dc:	4541      	cmp	r1, r8
 80004de:	d2ab      	bcs.n	8000438 <__udivmoddi4+0x1f0>
 80004e0:	ebb8 0a02 	subs.w	sl, r8, r2
 80004e4:	eb69 020e 	sbc.w	r2, r9, lr
 80004e8:	3801      	subs	r0, #1
 80004ea:	4613      	mov	r3, r2
 80004ec:	e7a4      	b.n	8000438 <__udivmoddi4+0x1f0>
 80004ee:	4660      	mov	r0, ip
 80004f0:	e7e9      	b.n	80004c6 <__udivmoddi4+0x27e>
 80004f2:	4618      	mov	r0, r3
 80004f4:	e795      	b.n	8000422 <__udivmoddi4+0x1da>
 80004f6:	4667      	mov	r7, ip
 80004f8:	e7d1      	b.n	800049e <__udivmoddi4+0x256>
 80004fa:	4681      	mov	r9, r0
 80004fc:	e77c      	b.n	80003f8 <__udivmoddi4+0x1b0>
 80004fe:	3802      	subs	r0, #2
 8000500:	442c      	add	r4, r5
 8000502:	e747      	b.n	8000394 <__udivmoddi4+0x14c>
 8000504:	f1ac 0c02 	sub.w	ip, ip, #2
 8000508:	442b      	add	r3, r5
 800050a:	e72f      	b.n	800036c <__udivmoddi4+0x124>
 800050c:	4638      	mov	r0, r7
 800050e:	e708      	b.n	8000322 <__udivmoddi4+0xda>
 8000510:	4637      	mov	r7, r6
 8000512:	e6e9      	b.n	80002e8 <__udivmoddi4+0xa0>

08000514 <__aeabi_idiv0>:
 8000514:	4770      	bx	lr
 8000516:	bf00      	nop

08000518 <Reset_Handler>:
 8000518:	480d      	ldr	r0, [pc, #52]	; (8000550 <LoopForever+0x2>)
 800051a:	4685      	mov	sp, r0
 800051c:	480d      	ldr	r0, [pc, #52]	; (8000554 <LoopForever+0x6>)
 800051e:	490e      	ldr	r1, [pc, #56]	; (8000558 <LoopForever+0xa>)
 8000520:	4a0e      	ldr	r2, [pc, #56]	; (800055c <LoopForever+0xe>)
 8000522:	2300      	movs	r3, #0
 8000524:	e002      	b.n	800052c <LoopCopyDataInit>

08000526 <CopyDataInit>:
 8000526:	58d4      	ldr	r4, [r2, r3]
 8000528:	50c4      	str	r4, [r0, r3]
 800052a:	3304      	adds	r3, #4

0800052c <LoopCopyDataInit>:
 800052c:	18c4      	adds	r4, r0, r3
 800052e:	428c      	cmp	r4, r1
 8000530:	d3f9      	bcc.n	8000526 <CopyDataInit>
 8000532:	4a0b      	ldr	r2, [pc, #44]	; (8000560 <LoopForever+0x12>)
 8000534:	4c0b      	ldr	r4, [pc, #44]	; (8000564 <LoopForever+0x16>)
 8000536:	2300      	movs	r3, #0
 8000538:	e001      	b.n	800053e <LoopFillZerobss>

0800053a <FillZerobss>:
 800053a:	6013      	str	r3, [r2, #0]
 800053c:	3204      	adds	r2, #4

0800053e <LoopFillZerobss>:
 800053e:	42a2      	cmp	r2, r4
 8000540:	d3fb      	bcc.n	800053a <FillZerobss>
 8000542:	f003 fc3f 	bl	8003dc4 <SystemInit>
 8000546:	f00a fba7 	bl	800ac98 <__libc_init_array>
 800054a:	f000 fbf1 	bl	8000d30 <main>

0800054e <LoopForever>:
 800054e:	e7fe      	b.n	800054e <LoopForever>
 8000550:	20008000 	.word	0x20008000
 8000554:	20000000 	.word	0x20000000
 8000558:	2000060c 	.word	0x2000060c
 800055c:	0800afac 	.word	0x0800afac
 8000560:	20000610 	.word	0x20000610
 8000564:	20000da0 	.word	0x20000da0

08000568 <BusFault_Handler>:
 8000568:	e7fe      	b.n	8000568 <BusFault_Handler>
	...

0800056c <ESC_Read_Flash>:
 800056c:	4a13      	ldr	r2, [pc, #76]	; (80005bc <ESC_Read_Flash+0x50>)
 800056e:	4b14      	ldr	r3, [pc, #80]	; (80005c0 <ESC_Read_Flash+0x54>)
 8000570:	6812      	ldr	r2, [r2, #0]
 8000572:	4814      	ldr	r0, [pc, #80]	; (80005c4 <ESC_Read_Flash+0x58>)
 8000574:	4914      	ldr	r1, [pc, #80]	; (80005c8 <ESC_Read_Flash+0x5c>)
 8000576:	b470      	push	{r4, r5, r6}
 8000578:	4d14      	ldr	r5, [pc, #80]	; (80005cc <ESC_Read_Flash+0x60>)
 800057a:	4c15      	ldr	r4, [pc, #84]	; (80005d0 <ESC_Read_Flash+0x64>)
 800057c:	601a      	str	r2, [r3, #0]
 800057e:	4e15      	ldr	r6, [pc, #84]	; (80005d4 <ESC_Read_Flash+0x68>)
 8000580:	4a15      	ldr	r2, [pc, #84]	; (80005d8 <ESC_Read_Flash+0x6c>)
 8000582:	682d      	ldr	r5, [r5, #0]
 8000584:	6824      	ldr	r4, [r4, #0]
 8000586:	6800      	ldr	r0, [r0, #0]
 8000588:	6809      	ldr	r1, [r1, #0]
 800058a:	6812      	ldr	r2, [r2, #0]
 800058c:	6836      	ldr	r6, [r6, #0]
 800058e:	605d      	str	r5, [r3, #4]
 8000590:	609c      	str	r4, [r3, #8]
 8000592:	4d12      	ldr	r5, [pc, #72]	; (80005dc <ESC_Read_Flash+0x70>)
 8000594:	4c12      	ldr	r4, [pc, #72]	; (80005e0 <ESC_Read_Flash+0x74>)
 8000596:	682d      	ldr	r5, [r5, #0]
 8000598:	6824      	ldr	r4, [r4, #0]
 800059a:	60d8      	str	r0, [r3, #12]
 800059c:	6119      	str	r1, [r3, #16]
 800059e:	4811      	ldr	r0, [pc, #68]	; (80005e4 <ESC_Read_Flash+0x78>)
 80005a0:	4911      	ldr	r1, [pc, #68]	; (80005e8 <ESC_Read_Flash+0x7c>)
 80005a2:	6800      	ldr	r0, [r0, #0]
 80005a4:	6809      	ldr	r1, [r1, #0]
 80005a6:	615a      	str	r2, [r3, #20]
 80005a8:	4a10      	ldr	r2, [pc, #64]	; (80005ec <ESC_Read_Flash+0x80>)
 80005aa:	619e      	str	r6, [r3, #24]
 80005ac:	6812      	ldr	r2, [r2, #0]
 80005ae:	62da      	str	r2, [r3, #44]	; 0x2c
 80005b0:	e9c3 5407 	strd	r5, r4, [r3, #28]
 80005b4:	e9c3 0109 	strd	r0, r1, [r3, #36]	; 0x24
 80005b8:	bc70      	pop	{r4, r5, r6}
 80005ba:	4770      	bx	lr
 80005bc:	0801f000 	.word	0x0801f000
 80005c0:	20000688 	.word	0x20000688
 80005c4:	0801f00c 	.word	0x0801f00c
 80005c8:	0801f010 	.word	0x0801f010
 80005cc:	0801f004 	.word	0x0801f004
 80005d0:	0801f008 	.word	0x0801f008
 80005d4:	0801f018 	.word	0x0801f018
 80005d8:	0801f014 	.word	0x0801f014
 80005dc:	0801f01c 	.word	0x0801f01c
 80005e0:	0801f020 	.word	0x0801f020
 80005e4:	0801f024 	.word	0x0801f024
 80005e8:	0801f028 	.word	0x0801f028
 80005ec:	0801f02c 	.word	0x0801f02c

080005f0 <ESC_Write_Flash>:
 80005f0:	e92d 41f0 	stmdb	sp!, {r4, r5, r6, r7, r8, lr}
 80005f4:	4b2e      	ldr	r3, [pc, #184]	; (80006b0 <ESC_Write_Flash+0xc0>)
 80005f6:	799d      	ldrb	r5, [r3, #6]
 80005f8:	2d06      	cmp	r5, #6
 80005fa:	b086      	sub	sp, #24
 80005fc:	d049      	beq.n	8000692 <ESC_Write_Flash+0xa2>
 80005fe:	2000      	movs	r0, #0
 8000600:	2101      	movs	r1, #1
 8000602:	223e      	movs	r2, #62	; 0x3e
 8000604:	2302      	movs	r3, #2
 8000606:	e9cd 0102 	strd	r0, r1, [sp, #8]
 800060a:	e9cd 2304 	strd	r2, r3, [sp, #16]
 800060e:	2403      	movs	r4, #3
 8000610:	f005 fa5c 	bl	8005acc <HAL_FLASH_Unlock>
 8000614:	b148      	cbz	r0, 800062a <ESC_Write_Flash+0x3a>
 8000616:	3c01      	subs	r4, #1
 8000618:	f04f 0001 	mov.w	r0, #1
 800061c:	d035      	beq.n	800068a <ESC_Write_Flash+0x9a>
 800061e:	f003 fc2b 	bl	8003e78 <HAL_Delay>
 8000622:	f005 fa53 	bl	8005acc <HAL_FLASH_Unlock>
 8000626:	2800      	cmp	r0, #0
 8000628:	d1f5      	bne.n	8000616 <ESC_Write_Flash+0x26>
 800062a:	a901      	add	r1, sp, #4
 800062c:	a802      	add	r0, sp, #8
 800062e:	2403      	movs	r4, #3
 8000630:	f005 fa96 	bl	8005b60 <HAL_FLASHEx_Erase>
 8000634:	b158      	cbz	r0, 800064e <ESC_Write_Flash+0x5e>
 8000636:	3c01      	subs	r4, #1
 8000638:	f04f 0001 	mov.w	r0, #1
 800063c:	d025      	beq.n	800068a <ESC_Write_Flash+0x9a>
 800063e:	f003 fc1b 	bl	8003e78 <HAL_Delay>
 8000642:	a901      	add	r1, sp, #4
 8000644:	a802      	add	r0, sp, #8
 8000646:	f005 fa8b 	bl	8005b60 <HAL_FLASHEx_Erase>
 800064a:	2800      	cmp	r0, #0
 800064c:	d1f3      	bne.n	8000636 <ESC_Write_Flash+0x46>
 800064e:	4f18      	ldr	r7, [pc, #96]	; (80006b0 <ESC_Write_Flash+0xc0>)
 8000650:	4e18      	ldr	r6, [pc, #96]	; (80006b4 <ESC_Write_Flash+0xc4>)
 8000652:	f8df 8064 	ldr.w	r8, [pc, #100]	; 80006b8 <ESC_Write_Flash+0xc8>
 8000656:	2403      	movs	r4, #3
 8000658:	e9d7 2300 	ldrd	r2, r3, [r7]
 800065c:	4631      	mov	r1, r6
 800065e:	2000      	movs	r0, #0
 8000660:	f005 f99e 	bl	80059a0 <HAL_FLASH_Program>
 8000664:	b130      	cbz	r0, 8000674 <ESC_Write_Flash+0x84>
 8000666:	3c01      	subs	r4, #1
 8000668:	f04f 0001 	mov.w	r0, #1
 800066c:	d00d      	beq.n	800068a <ESC_Write_Flash+0x9a>
 800066e:	f003 fc03 	bl	8003e78 <HAL_Delay>
 8000672:	e7f1      	b.n	8000658 <ESC_Write_Flash+0x68>
 8000674:	3608      	adds	r6, #8
 8000676:	4546      	cmp	r6, r8
 8000678:	f107 0708 	add.w	r7, r7, #8
 800067c:	d1eb      	bne.n	8000656 <ESC_Write_Flash+0x66>
 800067e:	2403      	movs	r4, #3
 8000680:	f005 fa38 	bl	8005af4 <HAL_FLASH_Lock>
 8000684:	b160      	cbz	r0, 80006a0 <ESC_Write_Flash+0xb0>
 8000686:	3c01      	subs	r4, #1
 8000688:	d1fa      	bne.n	8000680 <ESC_Write_Flash+0x90>
 800068a:	2000      	movs	r0, #0
 800068c:	b006      	add	sp, #24
 800068e:	e8bd 81f0 	ldmia.w	sp!, {r4, r5, r6, r7, r8, pc}
 8000692:	f000 ffb9 	bl	8001608 <MC_StopMotor1>
 8000696:	f44f 60fa 	mov.w	r0, #2000	; 0x7d0
 800069a:	f003 fbed 	bl	8003e78 <HAL_Delay>
 800069e:	e7ae      	b.n	80005fe <ESC_Write_Flash+0xe>
 80006a0:	2d06      	cmp	r5, #6
 80006a2:	d001      	beq.n	80006a8 <ESC_Write_Flash+0xb8>
 80006a4:	2001      	movs	r0, #1
 80006a6:	e7f1      	b.n	800068c <ESC_Write_Flash+0x9c>
 80006a8:	f000 ffa8 	bl	80015fc <MC_StartMotor1>
 80006ac:	2001      	movs	r0, #1
 80006ae:	e7ed      	b.n	800068c <ESC_Write_Flash+0x9c>
 80006b0:	20000688 	.word	0x20000688
 80006b4:	0801f000 	.word	0x0801f000
 80006b8:	0801f030 	.word	0x0801f030

080006bc <ESC_UART_Init>:
 80006bc:	b510      	push	{r4, lr}
 80006be:	4c1b      	ldr	r4, [pc, #108]	; (800072c <ESC_UART_Init+0x70>)
 80006c0:	4620      	mov	r0, r4
 80006c2:	f007 f9f5 	bl	8007ab0 <HAL_UART_DeInit>
 80006c6:	4b1a      	ldr	r3, [pc, #104]	; (8000730 <ESC_UART_Init+0x74>)
 80006c8:	6023      	str	r3, [r4, #0]
 80006ca:	f44f 31e1 	mov.w	r1, #115200	; 0x1c200
 80006ce:	2300      	movs	r3, #0
 80006d0:	220c      	movs	r2, #12
 80006d2:	4620      	mov	r0, r4
 80006d4:	6061      	str	r1, [r4, #4]
 80006d6:	6162      	str	r2, [r4, #20]
 80006d8:	e9c4 3302 	strd	r3, r3, [r4, #8]
 80006dc:	6123      	str	r3, [r4, #16]
 80006de:	e9c4 3306 	strd	r3, r3, [r4, #24]
 80006e2:	e9c4 3308 	strd	r3, r3, [r4, #32]
 80006e6:	62a3      	str	r3, [r4, #40]	; 0x28
 80006e8:	f007 fbfe 	bl	8007ee8 <HAL_UART_Init>
 80006ec:	b9d0      	cbnz	r0, 8000724 <ESC_UART_Init+0x68>
 80006ee:	2100      	movs	r1, #0
 80006f0:	480e      	ldr	r0, [pc, #56]	; (800072c <ESC_UART_Init+0x70>)
 80006f2:	f008 f9fb 	bl	8008aec <HAL_UARTEx_SetTxFifoThreshold>
 80006f6:	b990      	cbnz	r0, 800071e <ESC_UART_Init+0x62>
 80006f8:	2100      	movs	r1, #0
 80006fa:	480c      	ldr	r0, [pc, #48]	; (800072c <ESC_UART_Init+0x70>)
 80006fc:	f008 fa48 	bl	8008b90 <HAL_UARTEx_SetRxFifoThreshold>
 8000700:	b950      	cbnz	r0, 8000718 <ESC_UART_Init+0x5c>
 8000702:	480a      	ldr	r0, [pc, #40]	; (800072c <ESC_UART_Init+0x70>)
 8000704:	f008 f9d4 	bl	8008ab0 <HAL_UARTEx_DisableFifoMode>
 8000708:	b108      	cbz	r0, 800070e <ESC_UART_Init+0x52>
 800070a:	f000 ff75 	bl	80015f8 <Error_Handler>
 800070e:	2026      	movs	r0, #38	; 0x26
 8000710:	e8bd 4010 	ldmia.w	sp!, {r4, lr}
 8000714:	f004 bb04 	b.w	8004d20 <HAL_NVIC_DisableIRQ>
 8000718:	f000 ff6e 	bl	80015f8 <Error_Handler>
 800071c:	e7f1      	b.n	8000702 <ESC_UART_Init+0x46>
 800071e:	f000 ff6b 	bl	80015f8 <Error_Handler>
 8000722:	e7e9      	b.n	80006f8 <ESC_UART_Init+0x3c>
 8000724:	f000 ff68 	bl	80015f8 <Error_Handler>
 8000728:	e7e1      	b.n	80006ee <ESC_UART_Init+0x32>
 800072a:	bf00      	nop
 800072c:	20000b1c 	.word	0x20000b1c
 8000730:	40004400 	.word	0x40004400

08000734 <ESC_UART_TX_Feedback>:
 8000734:	b530      	push	{r4, r5, lr}
 8000736:	4931      	ldr	r1, [pc, #196]	; (80007fc <ESC_UART_TX_Feedback+0xc8>)
 8000738:	7808      	ldrb	r0, [r1, #0]
 800073a:	784b      	ldrb	r3, [r1, #1]
 800073c:	b087      	sub	sp, #28
 800073e:	2200      	movs	r2, #0
 8000740:	f3c0 1003 	ubfx	r0, r0, #4, #4
 8000744:	07dd      	lsls	r5, r3, #31
 8000746:	e9cd 2201 	strd	r2, r2, [sp, #4]
 800074a:	e9cd 2203 	strd	r2, r2, [sp, #12]
 800074e:	f88d 0004 	strb.w	r0, [sp, #4]
 8000752:	9205      	str	r2, [sp, #20]
 8000754:	d54f      	bpl.n	80007f6 <ESC_UART_TX_Feedback+0xc2>
 8000756:	790a      	ldrb	r2, [r1, #4]
 8000758:	f88d 2005 	strb.w	r2, [sp, #5]
 800075c:	2003      	movs	r0, #3
 800075e:	2202      	movs	r2, #2
 8000760:	079c      	lsls	r4, r3, #30
 8000762:	d505      	bpl.n	8000770 <ESC_UART_TX_Feedback+0x3c>
 8000764:	ac06      	add	r4, sp, #24
 8000766:	4422      	add	r2, r4
 8000768:	794c      	ldrb	r4, [r1, #5]
 800076a:	f802 4c14 	strb.w	r4, [r2, #-20]
 800076e:	4602      	mov	r2, r0
 8000770:	0758      	lsls	r0, r3, #29
 8000772:	d505      	bpl.n	8000780 <ESC_UART_TX_Feedback+0x4c>
 8000774:	a806      	add	r0, sp, #24
 8000776:	4410      	add	r0, r2
 8000778:	798c      	ldrb	r4, [r1, #6]
 800077a:	f800 4c14 	strb.w	r4, [r0, #-20]
 800077e:	3201      	adds	r2, #1
 8000780:	071d      	lsls	r5, r3, #28
 8000782:	d505      	bpl.n	8000790 <ESC_UART_TX_Feedback+0x5c>
 8000784:	a806      	add	r0, sp, #24
 8000786:	4410      	add	r0, r2
 8000788:	79cc      	ldrb	r4, [r1, #7]
 800078a:	f800 4c14 	strb.w	r4, [r0, #-20]
 800078e:	3201      	adds	r2, #1
 8000790:	06dc      	lsls	r4, r3, #27
 8000792:	d509      	bpl.n	80007a8 <ESC_UART_TX_Feedback+0x74>
 8000794:	f9b1 4008 	ldrsh.w	r4, [r1, #8]
 8000798:	a806      	add	r0, sp, #24
 800079a:	4410      	add	r0, r2
 800079c:	1225      	asrs	r5, r4, #8
 800079e:	f800 5c13 	strb.w	r5, [r0, #-19]
 80007a2:	f800 4c14 	strb.w	r4, [r0, #-20]
 80007a6:	3202      	adds	r2, #2
 80007a8:	0698      	lsls	r0, r3, #26
 80007aa:	d509      	bpl.n	80007c0 <ESC_UART_TX_Feedback+0x8c>
 80007ac:	f9b1 4018 	ldrsh.w	r4, [r1, #24]
 80007b0:	a806      	add	r0, sp, #24
 80007b2:	4410      	add	r0, r2
 80007b4:	1225      	asrs	r5, r4, #8
 80007b6:	f800 5c13 	strb.w	r5, [r0, #-19]
 80007ba:	f800 4c14 	strb.w	r4, [r0, #-20]
 80007be:	3202      	adds	r2, #2
 80007c0:	065b      	lsls	r3, r3, #25
 80007c2:	d511      	bpl.n	80007e8 <ESC_UART_TX_Feedback+0xb4>
 80007c4:	f9b1 0022 	ldrsh.w	r0, [r1, #34]	; 0x22
 80007c8:	f891 402a 	ldrb.w	r4, [r1, #42]	; 0x2a
 80007cc:	f891 102b 	ldrb.w	r1, [r1, #43]	; 0x2b
 80007d0:	ab06      	add	r3, sp, #24
 80007d2:	4413      	add	r3, r2
 80007d4:	1205      	asrs	r5, r0, #8
 80007d6:	f803 5c13 	strb.w	r5, [r3, #-19]
 80007da:	f803 0c14 	strb.w	r0, [r3, #-20]
 80007de:	3204      	adds	r2, #4
 80007e0:	f803 4c12 	strb.w	r4, [r3, #-18]
 80007e4:	f803 1c11 	strb.w	r1, [r3, #-17]
 80007e8:	b292      	uxth	r2, r2
 80007ea:	a901      	add	r1, sp, #4
 80007ec:	4804      	ldr	r0, [pc, #16]	; (8000800 <ESC_UART_TX_Feedback+0xcc>)
 80007ee:	f007 fa21 	bl	8007c34 <HAL_UART_Transmit_DMA>
 80007f2:	b007      	add	sp, #28
 80007f4:	bd30      	pop	{r4, r5, pc}
 80007f6:	2002      	movs	r0, #2
 80007f8:	2201      	movs	r2, #1
 80007fa:	e7b1      	b.n	8000760 <ESC_UART_TX_Feedback+0x2c>
 80007fc:	20000688 	.word	0x20000688
 8000800:	20000b1c 	.word	0x20000b1c

08000804 <FDCAN1_RX_Filter_Init>:
 8000804:	b570      	push	{r4, r5, r6, lr}
 8000806:	4b0f      	ldr	r3, [pc, #60]	; (8000844 <FDCAN1_RX_Filter_Init+0x40>)
 8000808:	781b      	ldrb	r3, [r3, #0]
 800080a:	b086      	sub	sp, #24
 800080c:	2602      	movs	r6, #2
 800080e:	091b      	lsrs	r3, r3, #4
 8000810:	2200      	movs	r2, #0
 8000812:	2401      	movs	r4, #1
 8000814:	250f      	movs	r5, #15
 8000816:	4669      	mov	r1, sp
 8000818:	e9cd 6402 	strd	r6, r4, [sp, #8]
 800081c:	9304      	str	r3, [sp, #16]
 800081e:	e9cd 2200 	strd	r2, r2, [sp]
 8000822:	9505      	str	r5, [sp, #20]
 8000824:	4606      	mov	r6, r0
 8000826:	f004 fe99 	bl	800555c <HAL_FDCAN_ConfigFilter>
 800082a:	b110      	cbz	r0, 8000832 <FDCAN1_RX_Filter_Init+0x2e>
 800082c:	4620      	mov	r0, r4
 800082e:	b006      	add	sp, #24
 8000830:	bd70      	pop	{r4, r5, r6, pc}
 8000832:	4669      	mov	r1, sp
 8000834:	4630      	mov	r0, r6
 8000836:	9401      	str	r4, [sp, #4]
 8000838:	9504      	str	r5, [sp, #16]
 800083a:	f004 fe8f 	bl	800555c <HAL_FDCAN_ConfigFilter>
 800083e:	b006      	add	sp, #24
 8000840:	bd70      	pop	{r4, r5, r6, pc}
 8000842:	bf00      	nop
 8000844:	20000688 	.word	0x20000688

08000848 <CAN_TX_Init_Data>:
 8000848:	b410      	push	{r4}
 800084a:	4c05      	ldr	r4, [pc, #20]	; (8000860 <CAN_TX_Init_Data+0x18>)
 800084c:	7824      	ldrb	r4, [r4, #0]
 800084e:	7058      	strb	r0, [r3, #1]
 8000850:	f3c4 1403 	ubfx	r4, r4, #4, #4
 8000854:	701c      	strb	r4, [r3, #0]
 8000856:	7099      	strb	r1, [r3, #2]
 8000858:	70da      	strb	r2, [r3, #3]
 800085a:	f85d 4b04 	ldr.w	r4, [sp], #4
 800085e:	4770      	bx	lr
 8000860:	20000688 	.word	0x20000688

08000864 <FDCAN1_TX>:
 8000864:	b510      	push	{r4, lr}
 8000866:	b08a      	sub	sp, #40	; 0x28
 8000868:	2300      	movs	r3, #0
 800086a:	460a      	mov	r2, r1
 800086c:	f44f 2480 	mov.w	r4, #262144	; 0x40000
 8000870:	a901      	add	r1, sp, #4
 8000872:	e9cd 3301 	strd	r3, r3, [sp, #4]
 8000876:	9303      	str	r3, [sp, #12]
 8000878:	e9cd 3307 	strd	r3, r3, [sp, #28]
 800087c:	9404      	str	r4, [sp, #16]
 800087e:	f004 fed1 	bl	8005624 <HAL_FDCAN_AddMessageToTxFifoQ>
 8000882:	b00a      	add	sp, #40	; 0x28
 8000884:	bd10      	pop	{r4, pc}
 8000886:	bf00      	nop

08000888 <ESCReg_Read>:
 8000888:	282f      	cmp	r0, #47	; 0x2f
 800088a:	d817      	bhi.n	80008bc <ESCReg_Read+0x34>
 800088c:	2807      	cmp	r0, #7
 800088e:	b430      	push	{r4, r5}
 8000890:	4603      	mov	r3, r0
 8000892:	d908      	bls.n	80008a6 <ESCReg_Read+0x1e>
 8000894:	4c0a      	ldr	r4, [pc, #40]	; (80008c0 <ESCReg_Read+0x38>)
 8000896:	18e5      	adds	r5, r4, r3
 8000898:	2001      	movs	r0, #1
 800089a:	786d      	ldrb	r5, [r5, #1]
 800089c:	700d      	strb	r5, [r1, #0]
 800089e:	5ce3      	ldrb	r3, [r4, r3]
 80008a0:	7013      	strb	r3, [r2, #0]
 80008a2:	bc30      	pop	{r4, r5}
 80008a4:	4770      	bx	lr
 80008a6:	3802      	subs	r0, #2
 80008a8:	2801      	cmp	r0, #1
 80008aa:	d9f3      	bls.n	8000894 <ESCReg_Read+0xc>
 80008ac:	2400      	movs	r4, #0
 80008ae:	4804      	ldr	r0, [pc, #16]	; (80008c0 <ESCReg_Read+0x38>)
 80008b0:	700c      	strb	r4, [r1, #0]
 80008b2:	5cc3      	ldrb	r3, [r0, r3]
 80008b4:	7013      	strb	r3, [r2, #0]
 80008b6:	2001      	movs	r0, #1
 80008b8:	bc30      	pop	{r4, r5}
 80008ba:	4770      	bx	lr
 80008bc:	2000      	movs	r0, #0
 80008be:	4770      	bx	lr
 80008c0:	20000688 	.word	0x20000688

080008c4 <ESCReg_Write>:
 80008c4:	282f      	cmp	r0, #47	; 0x2f
 80008c6:	d82e      	bhi.n	8000926 <ESCReg_Write+0x62>
 80008c8:	b530      	push	{r4, r5, lr}
 80008ca:	2807      	cmp	r0, #7
 80008cc:	b083      	sub	sp, #12
 80008ce:	4c6f      	ldr	r4, [pc, #444]	; (8000a8c <ESCReg_Write+0x1c8>)
 80008d0:	d91c      	bls.n	800090c <ESCReg_Write+0x48>
 80008d2:	1823      	adds	r3, r4, r0
 80008d4:	7059      	strb	r1, [r3, #1]
 80008d6:	5422      	strb	r2, [r4, r0]
 80008d8:	282a      	cmp	r0, #42	; 0x2a
 80008da:	d853      	bhi.n	8000984 <ESCReg_Write+0xc0>
 80008dc:	e8df f000 	tbb	[pc, r0]
 80008e0:	52525237 	.word	0x52525237
 80008e4:	52525252 	.word	0x52525252
 80008e8:	52525252 	.word	0x52525252
 80008ec:	5261524a 	.word	0x5261524a
 80008f0:	527b526e 	.word	0x527b526e
 80008f4:	52255288 	.word	0x52255288
 80008f8:	52ab5252 	.word	0x52ab5252
 80008fc:	525452b8 	.word	0x525452b8
 8000900:	52525225 	.word	0x52525225
 8000904:	52a35295 	.word	0x52a35295
 8000908:	52a7      	.short	0x52a7
 800090a:	cb          	.byte	0xcb
 800090b:	00          	.byte	0x00
 800090c:	1e83      	subs	r3, r0, #2
 800090e:	2b01      	cmp	r3, #1
 8000910:	d9df      	bls.n	80008d2 <ESCReg_Write+0xe>
 8000912:	2800      	cmp	r0, #0
 8000914:	d1df      	bne.n	80008d6 <ESCReg_Write+0x12>
 8000916:	7821      	ldrb	r1, [r4, #0]
 8000918:	f002 030f 	and.w	r3, r2, #15
 800091c:	f021 010f 	bic.w	r1, r1, #15
 8000920:	430b      	orrs	r3, r1
 8000922:	7023      	strb	r3, [r4, #0]
 8000924:	e7d7      	b.n	80008d6 <ESCReg_Write+0x12>
 8000926:	2000      	movs	r0, #0
 8000928:	4770      	bx	lr
 800092a:	4b59      	ldr	r3, [pc, #356]	; (8000a90 <ESCReg_Write+0x1cc>)
 800092c:	8ae0      	ldrh	r0, [r4, #22]
 800092e:	f893 202c 	ldrb.w	r2, [r3, #44]	; 0x2c
 8000932:	8c21      	ldrh	r1, [r4, #32]
 8000934:	6a1b      	ldr	r3, [r3, #32]
 8000936:	f8ad 0006 	strh.w	r0, [sp, #6]
 800093a:	f8ad 1004 	strh.w	r1, [sp, #4]
 800093e:	f853 0022 	ldr.w	r0, [r3, r2, lsl #2]
 8000942:	9901      	ldr	r1, [sp, #4]
 8000944:	f000 fea4 	bl	8001690 <MCI_SetCurrentReferences>
 8000948:	2001      	movs	r0, #1
 800094a:	b003      	add	sp, #12
 800094c:	bd30      	pop	{r4, r5, pc}
 800094e:	7823      	ldrb	r3, [r4, #0]
 8000950:	0759      	lsls	r1, r3, #29
 8000952:	d50a      	bpl.n	800096a <ESCReg_Write+0xa6>
 8000954:	22ff      	movs	r2, #255	; 0xff
 8000956:	25c8      	movs	r5, #200	; 0xc8
 8000958:	f640 300b 	movw	r0, #2827	; 0xb0b
 800095c:	494d      	ldr	r1, [pc, #308]	; (8000a94 <ESCReg_Write+0x1d0>)
 800095e:	7062      	strb	r2, [r4, #1]
 8000960:	224b      	movs	r2, #75	; 0x4b
 8000962:	8065      	strh	r5, [r4, #2]
 8000964:	85a0      	strh	r0, [r4, #44]	; 0x2c
 8000966:	6121      	str	r1, [r4, #16]
 8000968:	82a2      	strh	r2, [r4, #20]
 800096a:	07da      	lsls	r2, r3, #31
 800096c:	f100 808a 	bmi.w	8000a84 <ESCReg_Write+0x1c0>
 8000970:	f000 fe4a 	bl	8001608 <MC_StopMotor1>
 8000974:	7823      	ldrb	r3, [r4, #0]
 8000976:	89a1      	ldrh	r1, [r4, #12]
 8000978:	079b      	lsls	r3, r3, #30
 800097a:	d476      	bmi.n	8000a6a <ESCReg_Write+0x1a6>
 800097c:	f9b4 300e 	ldrsh.w	r3, [r4, #14]
 8000980:	4845      	ldr	r0, [pc, #276]	; (8000a98 <ESCReg_Write+0x1d4>)
 8000982:	e012      	b.n	80009aa <ESCReg_Write+0xe6>
 8000984:	2001      	movs	r0, #1
 8000986:	e7e0      	b.n	800094a <ESCReg_Write+0x86>
 8000988:	4b41      	ldr	r3, [pc, #260]	; (8000a90 <ESCReg_Write+0x1cc>)
 800098a:	f9b4 101e 	ldrsh.w	r1, [r4, #30]
 800098e:	f893 202c 	ldrb.w	r2, [r3, #44]	; 0x2c
 8000992:	6a5b      	ldr	r3, [r3, #36]	; 0x24
 8000994:	f853 3022 	ldr.w	r3, [r3, r2, lsl #2]
 8000998:	6898      	ldr	r0, [r3, #8]
 800099a:	f008 fc0f 	bl	80091bc <PID_SetKD>
 800099e:	2001      	movs	r0, #1
 80009a0:	e7d3      	b.n	800094a <ESCReg_Write+0x86>
 80009a2:	f9b4 300e 	ldrsh.w	r3, [r4, #14]
 80009a6:	483c      	ldr	r0, [pc, #240]	; (8000a98 <ESCReg_Write+0x1d4>)
 80009a8:	89a1      	ldrh	r1, [r4, #12]
 80009aa:	fb80 2003 	smull	r2, r0, r0, r3
 80009ae:	eba0 70e3 	sub.w	r0, r0, r3, asr #31
 80009b2:	b200      	sxth	r0, r0
 80009b4:	f000 fe2e 	bl	8001614 <MC_ProgramSpeedRampMotor1>
 80009b8:	2001      	movs	r0, #1
 80009ba:	e7c6      	b.n	800094a <ESCReg_Write+0x86>
 80009bc:	4b34      	ldr	r3, [pc, #208]	; (8000a90 <ESCReg_Write+0x1cc>)
 80009be:	f9b4 1010 	ldrsh.w	r1, [r4, #16]
 80009c2:	f893 202c 	ldrb.w	r2, [r3, #44]	; 0x2c
 80009c6:	6a5b      	ldr	r3, [r3, #36]	; 0x24
 80009c8:	f853 3022 	ldr.w	r3, [r3, r2, lsl #2]
 80009cc:	6818      	ldr	r0, [r3, #0]
 80009ce:	f008 fbe3 	bl	8009198 <PID_SetKP>
 80009d2:	2001      	movs	r0, #1
 80009d4:	e7b9      	b.n	800094a <ESCReg_Write+0x86>
 80009d6:	4b2e      	ldr	r3, [pc, #184]	; (8000a90 <ESCReg_Write+0x1cc>)
 80009d8:	f9b4 1012 	ldrsh.w	r1, [r4, #18]
 80009dc:	f893 202c 	ldrb.w	r2, [r3, #44]	; 0x2c
 80009e0:	6a5b      	ldr	r3, [r3, #36]	; 0x24
 80009e2:	f853 3022 	ldr.w	r3, [r3, r2, lsl #2]
 80009e6:	6818      	ldr	r0, [r3, #0]
 80009e8:	f008 fbd8 	bl	800919c <PID_SetKI>
 80009ec:	2001      	movs	r0, #1
 80009ee:	e7ac      	b.n	800094a <ESCReg_Write+0x86>
 80009f0:	4b27      	ldr	r3, [pc, #156]	; (8000a90 <ESCReg_Write+0x1cc>)
 80009f2:	f9b4 1014 	ldrsh.w	r1, [r4, #20]
 80009f6:	f893 202c 	ldrb.w	r2, [r3, #44]	; 0x2c
 80009fa:	6a5b      	ldr	r3, [r3, #36]	; 0x24
 80009fc:	f853 3022 	ldr.w	r3, [r3, r2, lsl #2]
 8000a00:	6818      	ldr	r0, [r3, #0]
 8000a02:	f008 fbdb 	bl	80091bc <PID_SetKD>
 8000a06:	2001      	movs	r0, #1
 8000a08:	e79f      	b.n	800094a <ESCReg_Write+0x86>
 8000a0a:	4b21      	ldr	r3, [pc, #132]	; (8000a90 <ESCReg_Write+0x1cc>)
 8000a0c:	f9b4 1024 	ldrsh.w	r1, [r4, #36]	; 0x24
 8000a10:	f893 202c 	ldrb.w	r2, [r3, #44]	; 0x2c
 8000a14:	6a5b      	ldr	r3, [r3, #36]	; 0x24
 8000a16:	f853 3022 	ldr.w	r3, [r3, r2, lsl #2]
 8000a1a:	6858      	ldr	r0, [r3, #4]
 8000a1c:	f008 fbce 	bl	80091bc <PID_SetKD>
 8000a20:	2001      	movs	r0, #1
 8000a22:	b003      	add	sp, #12
 8000a24:	bd30      	pop	{r4, r5, pc}
 8000a26:	4b1a      	ldr	r3, [pc, #104]	; (8000a90 <ESCReg_Write+0x1cc>)
 8000a28:	f9b4 1026 	ldrsh.w	r1, [r4, #38]	; 0x26
 8000a2c:	e7f0      	b.n	8000a10 <ESCReg_Write+0x14c>
 8000a2e:	4b18      	ldr	r3, [pc, #96]	; (8000a90 <ESCReg_Write+0x1cc>)
 8000a30:	f9b4 1028 	ldrsh.w	r1, [r4, #40]	; 0x28
 8000a34:	e7ec      	b.n	8000a10 <ESCReg_Write+0x14c>
 8000a36:	4b16      	ldr	r3, [pc, #88]	; (8000a90 <ESCReg_Write+0x1cc>)
 8000a38:	f9b4 101a 	ldrsh.w	r1, [r4, #26]
 8000a3c:	f893 202c 	ldrb.w	r2, [r3, #44]	; 0x2c
 8000a40:	6a5b      	ldr	r3, [r3, #36]	; 0x24
 8000a42:	f853 3022 	ldr.w	r3, [r3, r2, lsl #2]
 8000a46:	6898      	ldr	r0, [r3, #8]
 8000a48:	f008 fba6 	bl	8009198 <PID_SetKP>
 8000a4c:	2001      	movs	r0, #1
 8000a4e:	e77c      	b.n	800094a <ESCReg_Write+0x86>
 8000a50:	4b0f      	ldr	r3, [pc, #60]	; (8000a90 <ESCReg_Write+0x1cc>)
 8000a52:	f9b4 101c 	ldrsh.w	r1, [r4, #28]
 8000a56:	f893 202c 	ldrb.w	r2, [r3, #44]	; 0x2c
 8000a5a:	6a5b      	ldr	r3, [r3, #36]	; 0x24
 8000a5c:	f853 3022 	ldr.w	r3, [r3, r2, lsl #2]
 8000a60:	6898      	ldr	r0, [r3, #8]
 8000a62:	f008 fb9b 	bl	800919c <PID_SetKI>
 8000a66:	2001      	movs	r0, #1
 8000a68:	e76f      	b.n	800094a <ESCReg_Write+0x86>
 8000a6a:	f9b4 0016 	ldrsh.w	r0, [r4, #22]
 8000a6e:	f000 fdd9 	bl	8001624 <MC_ProgramTorqueRampMotor1>
 8000a72:	2001      	movs	r0, #1
 8000a74:	e769      	b.n	800094a <ESCReg_Write+0x86>
 8000a76:	8d63      	ldrh	r3, [r4, #42]	; 0x2a
 8000a78:	2b00      	cmp	r3, #0
 8000a7a:	d183      	bne.n	8000984 <ESCReg_Write+0xc0>
 8000a7c:	f000 fdda 	bl	8001634 <MC_AcknowledgeFaultMotor1>
 8000a80:	2001      	movs	r0, #1
 8000a82:	e762      	b.n	800094a <ESCReg_Write+0x86>
 8000a84:	f000 fdba 	bl	80015fc <MC_StartMotor1>
 8000a88:	e774      	b.n	8000974 <ESCReg_Write+0xb0>
 8000a8a:	bf00      	nop
 8000a8c:	20000688 	.word	0x20000688
 8000a90:	20000cd0 	.word	0x20000cd0
 8000a94:	07d07530 	.word	0x07d07530
 8000a98:	2aaaaaab 	.word	0x2aaaaaab

08000a9c <ESCReg_Refreshed>:
 8000a9c:	4b15      	ldr	r3, [pc, #84]	; (8000af4 <ESCReg_Refreshed+0x58>)
 8000a9e:	681a      	ldr	r2, [r3, #0]
 8000aa0:	3201      	adds	r2, #1
 8000aa2:	d124      	bne.n	8000aee <ESCReg_Refreshed+0x52>
 8000aa4:	685a      	ldr	r2, [r3, #4]
 8000aa6:	3201      	adds	r2, #1
 8000aa8:	d121      	bne.n	8000aee <ESCReg_Refreshed+0x52>
 8000aaa:	689a      	ldr	r2, [r3, #8]
 8000aac:	3201      	adds	r2, #1
 8000aae:	d11e      	bne.n	8000aee <ESCReg_Refreshed+0x52>
 8000ab0:	68da      	ldr	r2, [r3, #12]
 8000ab2:	3201      	adds	r2, #1
 8000ab4:	d11b      	bne.n	8000aee <ESCReg_Refreshed+0x52>
 8000ab6:	691a      	ldr	r2, [r3, #16]
 8000ab8:	3201      	adds	r2, #1
 8000aba:	d118      	bne.n	8000aee <ESCReg_Refreshed+0x52>
 8000abc:	695a      	ldr	r2, [r3, #20]
 8000abe:	3201      	adds	r2, #1
 8000ac0:	d115      	bne.n	8000aee <ESCReg_Refreshed+0x52>
 8000ac2:	699a      	ldr	r2, [r3, #24]
 8000ac4:	3201      	adds	r2, #1
 8000ac6:	d112      	bne.n	8000aee <ESCReg_Refreshed+0x52>
 8000ac8:	69da      	ldr	r2, [r3, #28]
 8000aca:	3201      	adds	r2, #1
 8000acc:	d10f      	bne.n	8000aee <ESCReg_Refreshed+0x52>
 8000ace:	6a1a      	ldr	r2, [r3, #32]
 8000ad0:	3201      	adds	r2, #1
 8000ad2:	d10c      	bne.n	8000aee <ESCReg_Refreshed+0x52>
 8000ad4:	6a5a      	ldr	r2, [r3, #36]	; 0x24
 8000ad6:	3201      	adds	r2, #1
 8000ad8:	d109      	bne.n	8000aee <ESCReg_Refreshed+0x52>
 8000ada:	6a9a      	ldr	r2, [r3, #40]	; 0x28
 8000adc:	3201      	adds	r2, #1
 8000ade:	d106      	bne.n	8000aee <ESCReg_Refreshed+0x52>
 8000ae0:	6ad8      	ldr	r0, [r3, #44]	; 0x2c
 8000ae2:	f1a0 30ff 	sub.w	r0, r0, #4294967295
 8000ae6:	fab0 f080 	clz	r0, r0
 8000aea:	0940      	lsrs	r0, r0, #5
 8000aec:	4770      	bx	lr
 8000aee:	2000      	movs	r0, #0
 8000af0:	4770      	bx	lr
 8000af2:	bf00      	nop
 8000af4:	20000688 	.word	0x20000688

08000af8 <ESCReg_Init>:
 8000af8:	4b07      	ldr	r3, [pc, #28]	; (8000b18 <ESCReg_Init+0x20>)
 8000afa:	4a08      	ldr	r2, [pc, #32]	; (8000b1c <ESCReg_Init+0x24>)
 8000afc:	b410      	push	{r4}
 8000afe:	20c8      	movs	r0, #200	; 0xc8
 8000b00:	24ff      	movs	r4, #255	; 0xff
 8000b02:	611a      	str	r2, [r3, #16]
 8000b04:	f640 310b 	movw	r1, #2827	; 0xb0b
 8000b08:	224b      	movs	r2, #75	; 0x4b
 8000b0a:	705c      	strb	r4, [r3, #1]
 8000b0c:	8058      	strh	r0, [r3, #2]
 8000b0e:	8599      	strh	r1, [r3, #44]	; 0x2c
 8000b10:	829a      	strh	r2, [r3, #20]
 8000b12:	f85d 4b04 	ldr.w	r4, [sp], #4
 8000b16:	4770      	bx	lr
 8000b18:	20000688 	.word	0x20000688
 8000b1c:	07d07530 	.word	0x07d07530

08000b20 <ESCReg_Clear>:
 8000b20:	2230      	movs	r2, #48	; 0x30
 8000b22:	2100      	movs	r1, #0
 8000b24:	4801      	ldr	r0, [pc, #4]	; (8000b2c <ESCReg_Clear+0xc>)
 8000b26:	f00a b8db 	b.w	800ace0 <memset>
 8000b2a:	bf00      	nop
 8000b2c:	20000688 	.word	0x20000688

08000b30 <ESCReg_UpdateCycle>:
 8000b30:	b5f8      	push	{r3, r4, r5, r6, r7, lr}
 8000b32:	4d2e      	ldr	r5, [pc, #184]	; (8000bec <ESCReg_UpdateCycle+0xbc>)
 8000b34:	4c2e      	ldr	r4, [pc, #184]	; (8000bf0 <ESCReg_UpdateCycle+0xc0>)
 8000b36:	f895 202c 	ldrb.w	r2, [r5, #44]	; 0x2c
 8000b3a:	6a6b      	ldr	r3, [r5, #36]	; 0x24
 8000b3c:	f853 3022 	ldr.w	r3, [r3, r2, lsl #2]
 8000b40:	6b18      	ldr	r0, [r3, #48]	; 0x30
 8000b42:	f008 f877 	bl	8008c34 <VBS_GetAvBusVoltage_V>
 8000b46:	f895 202c 	ldrb.w	r2, [r5, #44]	; 0x2c
 8000b4a:	6a6b      	ldr	r3, [r5, #36]	; 0x24
 8000b4c:	7120      	strb	r0, [r4, #4]
 8000b4e:	f853 3022 	ldr.w	r3, [r3, r2, lsl #2]
 8000b52:	6ad8      	ldr	r0, [r3, #44]	; 0x2c
 8000b54:	f008 fb02 	bl	800915c <NTC_GetAvTemp_C>
 8000b58:	e9d5 1308 	ldrd	r1, r3, [r5, #32]
 8000b5c:	f895 202c 	ldrb.w	r2, [r5, #44]	; 0x2c
 8000b60:	f853 3022 	ldr.w	r3, [r3, r2, lsl #2]
 8000b64:	f851 6022 	ldr.w	r6, [r1, r2, lsl #2]
 8000b68:	6a59      	ldr	r1, [r3, #36]	; 0x24
 8000b6a:	6872      	ldr	r2, [r6, #4]
 8000b6c:	8bcd      	ldrh	r5, [r1, #30]
 8000b6e:	7160      	strb	r0, [r4, #5]
 8000b70:	eb05 0045 	add.w	r0, r5, r5, lsl #1
 8000b74:	6a9d      	ldr	r5, [r3, #40]	; 0x28
 8000b76:	6951      	ldr	r1, [r2, #20]
 8000b78:	782d      	ldrb	r5, [r5, #0]
 8000b7a:	89f2      	ldrh	r2, [r6, #14]
 8000b7c:	8989      	ldrh	r1, [r1, #12]
 8000b7e:	71a5      	strb	r5, [r4, #6]
 8000b80:	0040      	lsls	r0, r0, #1
 8000b82:	2500      	movs	r5, #0
 8000b84:	6bdf      	ldr	r7, [r3, #60]	; 0x3c
 8000b86:	f360 050f 	bfi	r5, r0, #0, #16
 8000b8a:	8af0      	ldrh	r0, [r6, #22]
 8000b8c:	f8b7 7104 	ldrh.w	r7, [r7, #260]	; 0x104
 8000b90:	71e7      	strb	r7, [r4, #7]
 8000b92:	eb01 0141 	add.w	r1, r1, r1, lsl #1
 8000b96:	eb02 0242 	add.w	r2, r2, r2, lsl #1
 8000b9a:	f360 451f 	bfi	r5, r0, #16, #16
 8000b9e:	0049      	lsls	r1, r1, #1
 8000ba0:	6818      	ldr	r0, [r3, #0]
 8000ba2:	8121      	strh	r1, [r4, #8]
 8000ba4:	0052      	lsls	r2, r2, #1
 8000ba6:	68b1      	ldr	r1, [r6, #8]
 8000ba8:	f8c4 500a 	str.w	r5, [r4, #10]
 8000bac:	81e2      	strh	r2, [r4, #14]
 8000bae:	6842      	ldr	r2, [r0, #4]
 8000bb0:	8c45      	ldrh	r5, [r0, #34]	; 0x22
 8000bb2:	8a48      	ldrh	r0, [r1, #18]
 8000bb4:	6122      	str	r2, [r4, #16]
 8000bb6:	89ca      	ldrh	r2, [r1, #14]
 8000bb8:	8322      	strh	r2, [r4, #24]
 8000bba:	82a5      	strh	r5, [r4, #20]
 8000bbc:	82e0      	strh	r0, [r4, #22]
 8000bbe:	e9d3 2001 	ldrd	r2, r0, [r3, #4]
 8000bc2:	6833      	ldr	r3, [r6, #0]
 8000bc4:	8c45      	ldrh	r5, [r0, #34]	; 0x22
 8000bc6:	6846      	ldr	r6, [r0, #4]
 8000bc8:	8a08      	ldrh	r0, [r1, #16]
 8000bca:	8989      	ldrh	r1, [r1, #12]
 8000bcc:	8461      	strh	r1, [r4, #34]	; 0x22
 8000bce:	f8c4 601a 	str.w	r6, [r4, #26]
 8000bd2:	83e5      	strh	r5, [r4, #30]
 8000bd4:	8420      	strh	r0, [r4, #32]
 8000bd6:	6850      	ldr	r0, [r2, #4]
 8000bd8:	8c51      	ldrh	r1, [r2, #34]	; 0x22
 8000bda:	885a      	ldrh	r2, [r3, #2]
 8000bdc:	889b      	ldrh	r3, [r3, #4]
 8000bde:	f884 302b 	strb.w	r3, [r4, #43]	; 0x2b
 8000be2:	6260      	str	r0, [r4, #36]	; 0x24
 8000be4:	8521      	strh	r1, [r4, #40]	; 0x28
 8000be6:	f884 202a 	strb.w	r2, [r4, #42]	; 0x2a
 8000bea:	bdf8      	pop	{r3, r4, r5, r6, r7, pc}
 8000bec:	20000cd0 	.word	0x20000cd0
 8000bf0:	20000688 	.word	0x20000688

08000bf4 <validata>:
 8000bf4:	2a00      	cmp	r2, #0
 8000bf6:	dd17      	ble.n	8000c28 <validata+0x34>
 8000bf8:	b410      	push	{r4}
 8000bfa:	780b      	ldrb	r3, [r1, #0]
 8000bfc:	7804      	ldrb	r4, [r0, #0]
 8000bfe:	429c      	cmp	r4, r3
 8000c00:	d10e      	bne.n	8000c20 <validata+0x2c>
 8000c02:	1e43      	subs	r3, r0, #1
 8000c04:	441a      	add	r2, r3
 8000c06:	e005      	b.n	8000c14 <validata+0x20>
 8000c08:	f810 4f01 	ldrb.w	r4, [r0, #1]!
 8000c0c:	f811 3f01 	ldrb.w	r3, [r1, #1]!
 8000c10:	429c      	cmp	r4, r3
 8000c12:	d105      	bne.n	8000c20 <validata+0x2c>
 8000c14:	4290      	cmp	r0, r2
 8000c16:	d1f7      	bne.n	8000c08 <validata+0x14>
 8000c18:	2001      	movs	r0, #1
 8000c1a:	f85d 4b04 	ldr.w	r4, [sp], #4
 8000c1e:	4770      	bx	lr
 8000c20:	2000      	movs	r0, #0
 8000c22:	f85d 4b04 	ldr.w	r4, [sp], #4
 8000c26:	4770      	bx	lr
 8000c28:	2001      	movs	r0, #1
 8000c2a:	4770      	bx	lr

08000c2c <Motor_PID_Init>:
 8000c2c:	b538      	push	{r3, r4, r5, lr}
 8000c2e:	4d0b      	ldr	r5, [pc, #44]	; (8000c5c <Motor_PID_Init+0x30>)
 8000c30:	4c0b      	ldr	r4, [pc, #44]	; (8000c60 <Motor_PID_Init+0x34>)
 8000c32:	682b      	ldr	r3, [r5, #0]
 8000c34:	f9b4 1010 	ldrsh.w	r1, [r4, #16]
 8000c38:	6918      	ldr	r0, [r3, #16]
 8000c3a:	f008 faad 	bl	8009198 <PID_SetKP>
 8000c3e:	682b      	ldr	r3, [r5, #0]
 8000c40:	f9b4 1012 	ldrsh.w	r1, [r4, #18]
 8000c44:	6918      	ldr	r0, [r3, #16]
 8000c46:	f008 faa9 	bl	800919c <PID_SetKI>
 8000c4a:	682b      	ldr	r3, [r5, #0]
 8000c4c:	f9b4 1014 	ldrsh.w	r1, [r4, #20]
 8000c50:	6918      	ldr	r0, [r3, #16]
 8000c52:	e8bd 4038 	ldmia.w	sp!, {r3, r4, r5, lr}
 8000c56:	f008 bab1 	b.w	80091bc <PID_SetKD>
 8000c5a:	bf00      	nop
 8000c5c:	20000c88 	.word	0x20000c88
 8000c60:	20000688 	.word	0x20000688

08000c64 <DAC_Init>:
 8000c64:	4a02      	ldr	r2, [pc, #8]	; (8000c70 <DAC_Init+0xc>)
 8000c66:	6813      	ldr	r3, [r2, #0]
 8000c68:	f043 0301 	orr.w	r3, r3, #1
 8000c6c:	6013      	str	r3, [r2, #0]
 8000c6e:	4770      	bx	lr
 8000c70:	50000800 	.word	0x50000800

08000c74 <DAC_Exec>:
 8000c74:	b508      	push	{r3, lr}
 8000c76:	2200      	movs	r2, #0
 8000c78:	f890 1030 	ldrb.w	r1, [r0, #48]	; 0x30
 8000c7c:	f002 fe88 	bl	8003990 <UI_GetReg>
 8000c80:	4908      	ldr	r1, [pc, #32]	; (8000ca4 <DAC_Exec+0x30>)
 8000c82:	4a09      	ldr	r2, [pc, #36]	; (8000ca8 <DAC_Exec+0x34>)
 8000c84:	684b      	ldr	r3, [r1, #4]
 8000c86:	b200      	sxth	r0, r0
 8000c88:	f423 437f 	bic.w	r3, r3, #65280	; 0xff00
 8000c8c:	f023 03f0 	bic.w	r3, r3, #240	; 0xf0
 8000c90:	f500 4000 	add.w	r0, r0, #32768	; 0x8000
 8000c94:	4318      	orrs	r0, r3
 8000c96:	6048      	str	r0, [r1, #4]
 8000c98:	6853      	ldr	r3, [r2, #4]
 8000c9a:	f043 0301 	orr.w	r3, r3, #1
 8000c9e:	6053      	str	r3, [r2, #4]
 8000ca0:	bd08      	pop	{r3, pc}
 8000ca2:	bf00      	nop
 8000ca4:	50000808 	.word	0x50000808
 8000ca8:	50000800 	.word	0x50000800

08000cac <SystemClock_Config>:
 8000cac:	b570      	push	{r4, r5, r6, lr}
 8000cae:	2100      	movs	r1, #0
 8000cb0:	b0a4      	sub	sp, #144	; 0x90
 8000cb2:	460c      	mov	r4, r1
 8000cb4:	a805      	add	r0, sp, #20
 8000cb6:	2238      	movs	r2, #56	; 0x38
 8000cb8:	f00a f812 	bl	800ace0 <memset>
 8000cbc:	4621      	mov	r1, r4
 8000cbe:	2244      	movs	r2, #68	; 0x44
 8000cc0:	a813      	add	r0, sp, #76	; 0x4c
 8000cc2:	e9cd 4400 	strd	r4, r4, [sp]
 8000cc6:	e9cd 4402 	strd	r4, r4, [sp, #8]
 8000cca:	9404      	str	r4, [sp, #16]
 8000ccc:	f00a f808 	bl	800ace0 <memset>
 8000cd0:	4620      	mov	r0, r4
 8000cd2:	f005 f9fd 	bl	80060d0 <HAL_PWREx_ControlVoltageScaling>
 8000cd6:	2201      	movs	r2, #1
 8000cd8:	2302      	movs	r3, #2
 8000cda:	2503      	movs	r5, #3
 8000cdc:	f44f 3180 	mov.w	r1, #65536	; 0x10000
 8000ce0:	9205      	str	r2, [sp, #20]
 8000ce2:	2608      	movs	r6, #8
 8000ce4:	2255      	movs	r2, #85	; 0x55
 8000ce6:	a805      	add	r0, sp, #20
 8000ce8:	e9cd 260f 	strd	r2, r6, [sp, #60]	; 0x3c
 8000cec:	9106      	str	r1, [sp, #24]
 8000cee:	930c      	str	r3, [sp, #48]	; 0x30
 8000cf0:	930e      	str	r3, [sp, #56]	; 0x38
 8000cf2:	e9cd 3311 	strd	r3, r3, [sp, #68]	; 0x44
 8000cf6:	950d      	str	r5, [sp, #52]	; 0x34
 8000cf8:	f005 fa68 	bl	80061cc <HAL_RCC_OscConfig>
 8000cfc:	4631      	mov	r1, r6
 8000cfe:	230f      	movs	r3, #15
 8000d00:	4668      	mov	r0, sp
 8000d02:	9300      	str	r3, [sp, #0]
 8000d04:	e9cd 5401 	strd	r5, r4, [sp, #4]
 8000d08:	e9cd 4403 	strd	r4, r4, [sp, #12]
 8000d0c:	f005 fcb0 	bl	8006670 <HAL_RCC_ClockConfig>
 8000d10:	f249 0102 	movw	r1, #36866	; 0x9002
 8000d14:	f04f 7200 	mov.w	r2, #33554432	; 0x2000000
 8000d18:	f04f 5380 	mov.w	r3, #268435456	; 0x10000000
 8000d1c:	a813      	add	r0, sp, #76	; 0x4c
 8000d1e:	9415      	str	r4, [sp, #84]	; 0x54
 8000d20:	9113      	str	r1, [sp, #76]	; 0x4c
 8000d22:	921f      	str	r2, [sp, #124]	; 0x7c
 8000d24:	9322      	str	r3, [sp, #136]	; 0x88
 8000d26:	f005 fe73 	bl	8006a10 <HAL_RCCEx_PeriphCLKConfig>
 8000d2a:	b024      	add	sp, #144	; 0x90
 8000d2c:	bd70      	pop	{r4, r5, r6, pc}
 8000d2e:	bf00      	nop

08000d30 <main>:
 8000d30:	e92d 4ff0 	stmdb	sp!, {r4, r5, r6, r7, r8, r9, sl, fp, lr}
 8000d34:	4bc0      	ldr	r3, [pc, #768]	; (8001038 <main+0x308>)
 8000d36:	4dc1      	ldr	r5, [pc, #772]	; (800103c <main+0x30c>)
 8000d38:	681b      	ldr	r3, [r3, #0]
 8000d3a:	4fc1      	ldr	r7, [pc, #772]	; (8001040 <main+0x310>)
 8000d3c:	b0af      	sub	sp, #188	; 0xbc
 8000d3e:	2400      	movs	r4, #0
 8000d40:	9304      	str	r3, [sp, #16]
 8000d42:	f003 f873 	bl	8003e2c <HAL_Init>
 8000d46:	f7ff ffb1 	bl	8000cac <SystemClock_Config>
 8000d4a:	4bbe      	ldr	r3, [pc, #760]	; (8001044 <main+0x314>)
 8000d4c:	6cda      	ldr	r2, [r3, #76]	; 0x4c
 8000d4e:	f042 0204 	orr.w	r2, r2, #4
 8000d52:	64da      	str	r2, [r3, #76]	; 0x4c
 8000d54:	6cda      	ldr	r2, [r3, #76]	; 0x4c
 8000d56:	f002 0204 	and.w	r2, r2, #4
 8000d5a:	9207      	str	r2, [sp, #28]
 8000d5c:	9a07      	ldr	r2, [sp, #28]
 8000d5e:	6cda      	ldr	r2, [r3, #76]	; 0x4c
 8000d60:	f042 0220 	orr.w	r2, r2, #32
 8000d64:	64da      	str	r2, [r3, #76]	; 0x4c
 8000d66:	6cda      	ldr	r2, [r3, #76]	; 0x4c
 8000d68:	f002 0220 	and.w	r2, r2, #32
 8000d6c:	9208      	str	r2, [sp, #32]
 8000d6e:	9a08      	ldr	r2, [sp, #32]
 8000d70:	6cda      	ldr	r2, [r3, #76]	; 0x4c
 8000d72:	f042 0201 	orr.w	r2, r2, #1
 8000d76:	64da      	str	r2, [r3, #76]	; 0x4c
 8000d78:	6cda      	ldr	r2, [r3, #76]	; 0x4c
 8000d7a:	f002 0201 	and.w	r2, r2, #1
 8000d7e:	9209      	str	r2, [sp, #36]	; 0x24
 8000d80:	9a09      	ldr	r2, [sp, #36]	; 0x24
 8000d82:	6cda      	ldr	r2, [r3, #76]	; 0x4c
 8000d84:	f042 0202 	orr.w	r2, r2, #2
 8000d88:	64da      	str	r2, [r3, #76]	; 0x4c
 8000d8a:	6cda      	ldr	r2, [r3, #76]	; 0x4c
 8000d8c:	f002 0202 	and.w	r2, r2, #2
 8000d90:	920a      	str	r2, [sp, #40]	; 0x28
 8000d92:	9a0a      	ldr	r2, [sp, #40]	; 0x28
 8000d94:	6c9a      	ldr	r2, [r3, #72]	; 0x48
 8000d96:	f042 0204 	orr.w	r2, r2, #4
 8000d9a:	649a      	str	r2, [r3, #72]	; 0x48
 8000d9c:	6c9a      	ldr	r2, [r3, #72]	; 0x48
 8000d9e:	f002 0204 	and.w	r2, r2, #4
 8000da2:	9205      	str	r2, [sp, #20]
 8000da4:	9a05      	ldr	r2, [sp, #20]
 8000da6:	6c9a      	ldr	r2, [r3, #72]	; 0x48
 8000da8:	f042 0201 	orr.w	r2, r2, #1
 8000dac:	649a      	str	r2, [r3, #72]	; 0x48
 8000dae:	6c9b      	ldr	r3, [r3, #72]	; 0x48
 8000db0:	2200      	movs	r2, #0
 8000db2:	f003 0301 	and.w	r3, r3, #1
 8000db6:	4611      	mov	r1, r2
 8000db8:	9306      	str	r3, [sp, #24]
 8000dba:	200b      	movs	r0, #11
 8000dbc:	9b06      	ldr	r3, [sp, #24]
 8000dbe:	f003 ff6b 	bl	8004c98 <HAL_NVIC_SetPriority>
 8000dc2:	200b      	movs	r0, #11
 8000dc4:	f003 ff9e 	bl	8004d04 <HAL_NVIC_EnableIRQ>
 8000dc8:	2200      	movs	r2, #0
 8000dca:	4611      	mov	r1, r2
 8000dcc:	200c      	movs	r0, #12
 8000dce:	f003 ff63 	bl	8004c98 <HAL_NVIC_SetPriority>
 8000dd2:	200c      	movs	r0, #12
 8000dd4:	f003 ff96 	bl	8004d04 <HAL_NVIC_EnableIRQ>
 8000dd8:	4621      	mov	r1, r4
 8000dda:	223c      	movs	r2, #60	; 0x3c
 8000ddc:	a81e      	add	r0, sp, #120	; 0x78
 8000dde:	e9cd 4411 	strd	r4, r4, [sp, #68]	; 0x44
 8000de2:	9413      	str	r4, [sp, #76]	; 0x4c
 8000de4:	f009 ff7c 	bl	800ace0 <memset>
 8000de8:	2220      	movs	r2, #32
 8000dea:	4621      	mov	r1, r4
 8000dec:	a816      	add	r0, sp, #88	; 0x58
 8000dee:	f009 ff77 	bl	800ace0 <memset>
 8000df2:	f44f 2a00 	mov.w	sl, #524288	; 0x80000
 8000df6:	f04f 43a0 	mov.w	r3, #1342177280	; 0x50000000
 8000dfa:	2601      	movs	r6, #1
 8000dfc:	f04f 0902 	mov.w	r9, #2
 8000e00:	e9c5 3a00 	strd	r3, sl, [r5]
 8000e04:	f44f 4800 	mov.w	r8, #32768	; 0x8000
 8000e08:	2304      	movs	r3, #4
 8000e0a:	4628      	mov	r0, r5
 8000e0c:	61ab      	str	r3, [r5, #24]
 8000e0e:	f8c5 800c 	str.w	r8, [r5, #12]
 8000e12:	60ac      	str	r4, [r5, #8]
 8000e14:	612c      	str	r4, [r5, #16]
 8000e16:	772c      	strb	r4, [r5, #28]
 8000e18:	776c      	strb	r4, [r5, #29]
 8000e1a:	f885 4024 	strb.w	r4, [r5, #36]	; 0x24
 8000e1e:	e9c5 440b 	strd	r4, r4, [r5, #44]	; 0x2c
 8000e22:	f885 4038 	strb.w	r4, [r5, #56]	; 0x38
 8000e26:	63ec      	str	r4, [r5, #60]	; 0x3c
 8000e28:	f885 4040 	strb.w	r4, [r5, #64]	; 0x40
 8000e2c:	616e      	str	r6, [r5, #20]
 8000e2e:	f8c5 9020 	str.w	r9, [r5, #32]
 8000e32:	f003 f833 	bl	8003e9c <HAL_ADC_Init>
 8000e36:	a911      	add	r1, sp, #68	; 0x44
 8000e38:	4628      	mov	r0, r5
 8000e3a:	f04f 0b01 	mov.w	fp, #1
 8000e3e:	9411      	str	r4, [sp, #68]	; 0x44
 8000e40:	f003 fdf0 	bl	8004a24 <HAL_ADCEx_MultiModeConfigChannel>
 8000e44:	f04f 0c7f 	mov.w	ip, #127	; 0x7f
 8000e48:	4a7f      	ldr	r2, [pc, #508]	; (8001048 <main+0x318>)
 8000e4a:	f8cd 9098 	str.w	r9, [sp, #152]	; 0x98
 8000e4e:	e9cd bc20 	strd	fp, ip, [sp, #128]	; 0x80
 8000e52:	f04f 0b04 	mov.w	fp, #4
 8000e56:	f04f 0c00 	mov.w	ip, #0
 8000e5a:	2309      	movs	r3, #9
 8000e5c:	e9cd bc22 	strd	fp, ip, [sp, #136]	; 0x88
 8000e60:	a91e      	add	r1, sp, #120	; 0x78
 8000e62:	f04f 0c80 	mov.w	ip, #128	; 0x80
 8000e66:	4628      	mov	r0, r5
 8000e68:	f04f 0b84 	mov.w	fp, #132	; 0x84
 8000e6c:	e9cd 231e 	strd	r2, r3, [sp, #120]	; 0x78
 8000e70:	e9cd bc28 	strd	fp, ip, [sp, #160]	; 0xa0
 8000e74:	f88d 409c 	strb.w	r4, [sp, #156]	; 0x9c
 8000e78:	f88d 409d 	strb.w	r4, [sp, #157]	; 0x9d
 8000e7c:	f88d 409e 	strb.w	r4, [sp, #158]	; 0x9e
 8000e80:	f88d 40a8 	strb.w	r4, [sp, #168]	; 0xa8
 8000e84:	f003 fb2c 	bl	80044e0 <HAL_ADCEx_InjectedConfigChannel>
 8000e88:	4b70      	ldr	r3, [pc, #448]	; (800104c <main+0x31c>)
 8000e8a:	f240 1b0f 	movw	fp, #271	; 0x10f
 8000e8e:	a91e      	add	r1, sp, #120	; 0x78
 8000e90:	4628      	mov	r0, r5
 8000e92:	e9cd 3b1e 	strd	r3, fp, [sp, #120]	; 0x78
 8000e96:	f003 fb23 	bl	80044e0 <HAL_ADCEx_InjectedConfigChannel>
 8000e9a:	f04f 0c04 	mov.w	ip, #4
 8000e9e:	4b6c      	ldr	r3, [pc, #432]	; (8001050 <main+0x320>)
 8000ea0:	f8cd c060 	str.w	ip, [sp, #96]	; 0x60
 8000ea4:	a916      	add	r1, sp, #88	; 0x58
 8000ea6:	4628      	mov	r0, r5
 8000ea8:	e9cd c41a 	strd	ip, r4, [sp, #104]	; 0x68
 8000eac:	9316      	str	r3, [sp, #88]	; 0x58
 8000eae:	f04f 0c06 	mov.w	ip, #6
 8000eb2:	237f      	movs	r3, #127	; 0x7f
 8000eb4:	f8cd c05c 	str.w	ip, [sp, #92]	; 0x5c
 8000eb8:	9319      	str	r3, [sp, #100]	; 0x64
 8000eba:	f003 f8fd 	bl	80040b8 <HAL_ADC_ConfigChannel>
 8000ebe:	4628      	mov	r0, r5
 8000ec0:	4d64      	ldr	r5, [pc, #400]	; (8001054 <main+0x324>)
 8000ec2:	230c      	movs	r3, #12
 8000ec4:	a916      	add	r1, sp, #88	; 0x58
 8000ec6:	e9cd 5316 	strd	r5, r3, [sp, #88]	; 0x58
 8000eca:	f003 f8f5 	bl	80040b8 <HAL_ADC_ConfigChannel>
 8000ece:	223c      	movs	r2, #60	; 0x3c
 8000ed0:	4621      	mov	r1, r4
 8000ed2:	a81e      	add	r0, sp, #120	; 0x78
 8000ed4:	f009 ff04 	bl	800ace0 <memset>
 8000ed8:	4b5f      	ldr	r3, [pc, #380]	; (8001058 <main+0x328>)
 8000eda:	f8c7 a004 	str.w	sl, [r7, #4]
 8000ede:	2104      	movs	r1, #4
 8000ee0:	4638      	mov	r0, r7
 8000ee2:	e9c7 4802 	strd	r4, r8, [r7, #8]
 8000ee6:	61b9      	str	r1, [r7, #24]
 8000ee8:	603b      	str	r3, [r7, #0]
 8000eea:	e9c7 4604 	strd	r4, r6, [r7, #16]
 8000eee:	773c      	strb	r4, [r7, #28]
 8000ef0:	777c      	strb	r4, [r7, #29]
 8000ef2:	623e      	str	r6, [r7, #32]
 8000ef4:	f887 4024 	strb.w	r4, [r7, #36]	; 0x24
 8000ef8:	f887 4038 	strb.w	r4, [r7, #56]	; 0x38
 8000efc:	63fc      	str	r4, [r7, #60]	; 0x3c
 8000efe:	f887 4040 	strb.w	r4, [r7, #64]	; 0x40
 8000f02:	f002 ffcb 	bl	8003e9c <HAL_ADC_Init>
 8000f06:	4a50      	ldr	r2, [pc, #320]	; (8001048 <main+0x318>)
 8000f08:	f8cd 9098 	str.w	r9, [sp, #152]	; 0x98
 8000f0c:	2309      	movs	r3, #9
 8000f0e:	e9cd 231e 	strd	r2, r3, [sp, #120]	; 0x78
 8000f12:	2201      	movs	r2, #1
 8000f14:	237f      	movs	r3, #127	; 0x7f
 8000f16:	e9cd 2320 	strd	r2, r3, [sp, #128]	; 0x80
 8000f1a:	2204      	movs	r2, #4
 8000f1c:	2300      	movs	r3, #0
 8000f1e:	e9cd 2322 	strd	r2, r3, [sp, #136]	; 0x88
 8000f22:	a91e      	add	r1, sp, #120	; 0x78
 8000f24:	2284      	movs	r2, #132	; 0x84
 8000f26:	2380      	movs	r3, #128	; 0x80
 8000f28:	4638      	mov	r0, r7
 8000f2a:	e9cd 2328 	strd	r2, r3, [sp, #160]	; 0xa0
 8000f2e:	f88d 409c 	strb.w	r4, [sp, #156]	; 0x9c
 8000f32:	f88d 409d 	strb.w	r4, [sp, #157]	; 0x9d
 8000f36:	f88d 409e 	strb.w	r4, [sp, #158]	; 0x9e
 8000f3a:	f88d 40a8 	strb.w	r4, [sp, #168]	; 0xa8
 8000f3e:	f003 facf 	bl	80044e0 <HAL_ADCEx_InjectedConfigChannel>
 8000f42:	4b46      	ldr	r3, [pc, #280]	; (800105c <main+0x32c>)
 8000f44:	a91e      	add	r1, sp, #120	; 0x78
 8000f46:	4638      	mov	r0, r7
 8000f48:	e9cd 3b1e 	strd	r3, fp, [sp, #120]	; 0x78
 8000f4c:	f003 fac8 	bl	80044e0 <HAL_ADCEx_InjectedConfigChannel>
 8000f50:	4b43      	ldr	r3, [pc, #268]	; (8001060 <main+0x330>)
 8000f52:	4a44      	ldr	r2, [pc, #272]	; (8001064 <main+0x334>)
 8000f54:	601a      	str	r2, [r3, #0]
 8000f56:	f44f 0540 	mov.w	r5, #12582912	; 0xc00000
 8000f5a:	4618      	mov	r0, r3
 8000f5c:	609d      	str	r5, [r3, #8]
 8000f5e:	605c      	str	r4, [r3, #4]
 8000f60:	e9c3 4403 	strd	r4, r4, [r3, #12]
 8000f64:	e9c3 4405 	strd	r4, r4, [r3, #20]
 8000f68:	f003 fdc6 	bl	8004af8 <HAL_COMP_Init>
 8000f6c:	4b3e      	ldr	r3, [pc, #248]	; (8001068 <main+0x338>)
 8000f6e:	4a3f      	ldr	r2, [pc, #252]	; (800106c <main+0x33c>)
 8000f70:	609d      	str	r5, [r3, #8]
 8000f72:	4618      	mov	r0, r3
 8000f74:	601a      	str	r2, [r3, #0]
 8000f76:	605c      	str	r4, [r3, #4]
 8000f78:	e9c3 4403 	strd	r4, r4, [r3, #12]
 8000f7c:	e9c3 4405 	strd	r4, r4, [r3, #20]
 8000f80:	f003 fdba 	bl	8004af8 <HAL_COMP_Init>
 8000f84:	4b3a      	ldr	r3, [pc, #232]	; (8001070 <main+0x340>)
 8000f86:	4a3b      	ldr	r2, [pc, #236]	; (8001074 <main+0x344>)
 8000f88:	601a      	str	r2, [r3, #0]
 8000f8a:	4618      	mov	r0, r3
 8000f8c:	609d      	str	r5, [r3, #8]
 8000f8e:	605c      	str	r4, [r3, #4]
 8000f90:	e9c3 4403 	strd	r4, r4, [r3, #12]
 8000f94:	e9c3 4405 	strd	r4, r4, [r3, #20]
 8000f98:	f003 fdae 	bl	8004af8 <HAL_COMP_Init>
 8000f9c:	4836      	ldr	r0, [pc, #216]	; (8001078 <main+0x348>)
 8000f9e:	4b37      	ldr	r3, [pc, #220]	; (800107c <main+0x34c>)
 8000fa0:	4d37      	ldr	r5, [pc, #220]	; (8001080 <main+0x350>)
 8000fa2:	6003      	str	r3, [r0, #0]
 8000fa4:	f003 fe4c 	bl	8004c40 <HAL_CORDIC_Init>
 8000fa8:	4621      	mov	r1, r4
 8000faa:	2230      	movs	r2, #48	; 0x30
 8000fac:	a81e      	add	r0, sp, #120	; 0x78
 8000fae:	f009 fe97 	bl	800ace0 <memset>
 8000fb2:	4b34      	ldr	r3, [pc, #208]	; (8001084 <main+0x354>)
 8000fb4:	4a34      	ldr	r2, [pc, #208]	; (8001088 <main+0x358>)
 8000fb6:	9303      	str	r3, [sp, #12]
 8000fb8:	4628      	mov	r0, r5
 8000fba:	602a      	str	r2, [r5, #0]
 8000fbc:	f04f 0a00 	mov.w	sl, #0
 8000fc0:	f003 fee2 	bl	8004d88 <HAL_DAC_Init>
 8000fc4:	f04f 0b02 	mov.w	fp, #2
 8000fc8:	4628      	mov	r0, r5
 8000fca:	4622      	mov	r2, r4
 8000fcc:	a91e      	add	r1, sp, #120	; 0x78
 8000fce:	2705      	movs	r7, #5
 8000fd0:	f04f 0800 	mov.w	r8, #0
 8000fd4:	e9cd ab20 	strd	sl, fp, [sp, #128]	; 0x80
 8000fd8:	e9cd ab22 	strd	sl, fp, [sp, #136]	; 0x88
 8000fdc:	e9cd 7824 	strd	r7, r8, [sp, #144]	; 0x90
 8000fe0:	f8cd 9078 	str.w	r9, [sp, #120]	; 0x78
 8000fe4:	f88d 407c 	strb.w	r4, [sp, #124]	; 0x7c
 8000fe8:	f88d 407d 	strb.w	r4, [sp, #125]	; 0x7d
 8000fec:	f003 fee2 	bl	8004db4 <HAL_DAC_ConfigChannel>
 8000ff0:	9b03      	ldr	r3, [sp, #12]
 8000ff2:	f8df a098 	ldr.w	sl, [pc, #152]	; 800108c <main+0x35c>
 8000ff6:	f8c3 a000 	str.w	sl, [r3]
 8000ffa:	f04f 0c55 	mov.w	ip, #85	; 0x55
 8000ffe:	220d      	movs	r2, #13
 8001000:	210a      	movs	r1, #10
 8001002:	4618      	mov	r0, r3
 8001004:	f8c3 c014 	str.w	ip, [r3, #20]
 8001008:	6259      	str	r1, [r3, #36]	; 0x24
 800100a:	61da      	str	r2, [r3, #28]
 800100c:	62da      	str	r2, [r3, #44]	; 0x2c
 800100e:	e9c3 4401 	strd	r4, r4, [r3, #4]
 8001012:	60dc      	str	r4, [r3, #12]
 8001014:	741e      	strb	r6, [r3, #16]
 8001016:	745c      	strb	r4, [r3, #17]
 8001018:	749c      	strb	r4, [r3, #18]
 800101a:	619e      	str	r6, [r3, #24]
 800101c:	f8c3 9020 	str.w	r9, [r3, #32]
 8001020:	629e      	str	r6, [r3, #40]	; 0x28
 8001022:	e9c3 990c 	strd	r9, r9, [r3, #48]	; 0x30
 8001026:	e9c3 440e 	strd	r4, r4, [r3, #56]	; 0x38
 800102a:	f004 f9a5 	bl	8005378 <HAL_FDCAN_Init>
 800102e:	9b03      	ldr	r3, [sp, #12]
 8001030:	9600      	str	r6, [sp, #0]
 8001032:	4618      	mov	r0, r3
 8001034:	464a      	mov	r2, r9
 8001036:	e02b      	b.n	8001090 <main+0x360>
 8001038:	0800ad08 	.word	0x0800ad08
 800103c:	2000095c 	.word	0x2000095c
 8001040:	200007b0 	.word	0x200007b0
 8001044:	40021000 	.word	0x40021000
 8001048:	0c900008 	.word	0x0c900008
 800104c:	32601000 	.word	0x32601000
 8001050:	04300002 	.word	0x04300002
 8001054:	14f00020 	.word	0x14f00020
 8001058:	50000100 	.word	0x50000100
 800105c:	cb8c0000 	.word	0xcb8c0000
 8001060:	20000898 	.word	0x20000898
 8001064:	40010200 	.word	0x40010200
 8001068:	20000af8 	.word	0x20000af8
 800106c:	40010204 	.word	0x40010204
 8001070:	20000938 	.word	0x20000938
 8001074:	4001020c 	.word	0x4001020c
 8001078:	20000a28 	.word	0x20000a28
 800107c:	40020c00 	.word	0x40020c00
 8001080:	2000079c 	.word	0x2000079c
 8001084:	20000a50 	.word	0x20000a50
 8001088:	50000800 	.word	0x50000800
 800108c:	40006400 	.word	0x40006400
 8001090:	4623      	mov	r3, r4
 8001092:	4649      	mov	r1, r9
 8001094:	f004 fa8e 	bl	80055b4 <HAL_FDCAN_ConfigGlobalFilter>
 8001098:	49cb      	ldr	r1, [pc, #812]	; (80013c8 <main+0x698>)
 800109a:	4bcc      	ldr	r3, [pc, #816]	; (80013cc <main+0x69c>)
 800109c:	f8ca 905c 	str.w	r9, [sl, #92]	; 0x5c
 80010a0:	2240      	movs	r2, #64	; 0x40
 80010a2:	f8ca 6058 	str.w	r6, [sl, #88]	; 0x58
 80010a6:	4608      	mov	r0, r1
 80010a8:	f8ca 6054 	str.w	r6, [sl, #84]	; 0x54
 80010ac:	f44f 4a40 	mov.w	sl, #49152	; 0xc000
 80010b0:	600b      	str	r3, [r1, #0]
 80010b2:	f44f 3300 	mov.w	r3, #131072	; 0x20000
 80010b6:	e9c1 3a09 	strd	r3, sl, [r1, #36]	; 0x24
 80010ba:	608a      	str	r2, [r1, #8]
 80010bc:	604c      	str	r4, [r1, #4]
 80010be:	610c      	str	r4, [r1, #16]
 80010c0:	750c      	strb	r4, [r1, #20]
 80010c2:	618c      	str	r4, [r1, #24]
 80010c4:	62cc      	str	r4, [r1, #44]	; 0x2c
 80010c6:	9203      	str	r2, [sp, #12]
 80010c8:	f004 ff7e 	bl	8005fc8 <HAL_OPAMP_Init>
 80010cc:	49c0      	ldr	r1, [pc, #768]	; (80013d0 <main+0x6a0>)
 80010ce:	9a03      	ldr	r2, [sp, #12]
 80010d0:	4bc0      	ldr	r3, [pc, #768]	; (80013d4 <main+0x6a4>)
 80010d2:	608a      	str	r2, [r1, #8]
 80010d4:	4608      	mov	r0, r1
 80010d6:	f44f 3200 	mov.w	r2, #131072	; 0x20000
 80010da:	e9c1 2a09 	strd	r2, sl, [r1, #36]	; 0x24
 80010de:	600b      	str	r3, [r1, #0]
 80010e0:	604c      	str	r4, [r1, #4]
 80010e2:	610c      	str	r4, [r1, #16]
 80010e4:	750c      	strb	r4, [r1, #20]
 80010e6:	618c      	str	r4, [r1, #24]
 80010e8:	62cc      	str	r4, [r1, #44]	; 0x2c
 80010ea:	f004 ff6d 	bl	8005fc8 <HAL_OPAMP_Init>
 80010ee:	49ba      	ldr	r1, [pc, #744]	; (80013d8 <main+0x6a8>)
 80010f0:	9a03      	ldr	r2, [sp, #12]
 80010f2:	4bba      	ldr	r3, [pc, #744]	; (80013dc <main+0x6ac>)
 80010f4:	608a      	str	r2, [r1, #8]
 80010f6:	4608      	mov	r0, r1
 80010f8:	f44f 3200 	mov.w	r2, #131072	; 0x20000
 80010fc:	4db8      	ldr	r5, [pc, #736]	; (80013e0 <main+0x6b0>)
 80010fe:	600b      	str	r3, [r1, #0]
 8001100:	e9c1 2a09 	strd	r2, sl, [r1, #36]	; 0x24
 8001104:	604c      	str	r4, [r1, #4]
 8001106:	610c      	str	r4, [r1, #16]
 8001108:	750e      	strb	r6, [r1, #20]
 800110a:	618c      	str	r4, [r1, #24]
 800110c:	62cc      	str	r4, [r1, #44]	; 0x2c
 800110e:	f004 ff5b 	bl	8005fc8 <HAL_OPAMP_Init>
 8001112:	4621      	mov	r1, r4
 8001114:	2234      	movs	r2, #52	; 0x34
 8001116:	a81e      	add	r0, sp, #120	; 0x78
 8001118:	e9cd 4411 	strd	r4, r4, [sp, #68]	; 0x44
 800111c:	e9cd 4413 	strd	r4, r4, [sp, #76]	; 0x4c
 8001120:	9415      	str	r4, [sp, #84]	; 0x54
 8001122:	940b      	str	r4, [sp, #44]	; 0x2c
 8001124:	940e      	str	r4, [sp, #56]	; 0x38
 8001126:	e9cd 4416 	strd	r4, r4, [sp, #88]	; 0x58
 800112a:	e9cd 4418 	strd	r4, r4, [sp, #96]	; 0x60
 800112e:	e9cd 441a 	strd	r4, r4, [sp, #104]	; 0x68
 8001132:	941c      	str	r4, [sp, #112]	; 0x70
 8001134:	e9cd 440c 	strd	r4, r4, [sp, #48]	; 0x30
 8001138:	e9cd 440f 	strd	r4, r4, [sp, #60]	; 0x3c
 800113c:	f009 fdd0 	bl	800ace0 <memset>
 8001140:	2320      	movs	r3, #32
 8001142:	60ab      	str	r3, [r5, #8]
 8001144:	f640 53d5 	movw	r3, #3541	; 0xdd5
 8001148:	4aa6      	ldr	r2, [pc, #664]	; (80013e4 <main+0x6b4>)
 800114a:	60eb      	str	r3, [r5, #12]
 800114c:	4628      	mov	r0, r5
 800114e:	f44f 7380 	mov.w	r3, #256	; 0x100
 8001152:	602a      	str	r2, [r5, #0]
 8001154:	612b      	str	r3, [r5, #16]
 8001156:	606c      	str	r4, [r5, #4]
 8001158:	e9c5 6405 	strd	r6, r4, [r5, #20]
 800115c:	f005 fda4 	bl	8006ca8 <HAL_TIM_Base_Init>
 8001160:	4628      	mov	r0, r5
 8001162:	f005 fe41 	bl	8006de8 <HAL_TIM_PWM_Init>
 8001166:	2310      	movs	r3, #16
 8001168:	2206      	movs	r2, #6
 800116a:	a911      	add	r1, sp, #68	; 0x44
 800116c:	4628      	mov	r0, r5
 800116e:	e9cd 2311 	strd	r2, r3, [sp, #68]	; 0x44
 8001172:	9303      	str	r3, [sp, #12]
 8001174:	f04f 0a70 	mov.w	sl, #112	; 0x70
 8001178:	f006 fa2c 	bl	80075d4 <HAL_TIM_SlaveConfigSynchro>
 800117c:	a90b      	add	r1, sp, #44	; 0x2c
 800117e:	4628      	mov	r0, r5
 8001180:	f8cd a02c 	str.w	sl, [sp, #44]	; 0x2c
 8001184:	e9cd 440c 	strd	r4, r4, [sp, #48]	; 0x30
 8001188:	f006 fbaa 	bl	80078e0 <HAL_TIMEx_MasterConfigSynchronization>
 800118c:	aa0e      	add	r2, sp, #56	; 0x38
 800118e:	4649      	mov	r1, r9
 8001190:	4628      	mov	r0, r5
 8001192:	e9cd 960e 	strd	r9, r6, [sp, #56]	; 0x38
 8001196:	9410      	str	r4, [sp, #64]	; 0x40
 8001198:	f006 fc22 	bl	80079e0 <HAL_TIMEx_ConfigBreakInput>
 800119c:	2304      	movs	r3, #4
 800119e:	aa0e      	add	r2, sp, #56	; 0x38
 80011a0:	4649      	mov	r1, r9
 80011a2:	4628      	mov	r0, r5
 80011a4:	930e      	str	r3, [sp, #56]	; 0x38
 80011a6:	f006 fc1b 	bl	80079e0 <HAL_TIMEx_ConfigBreakInput>
 80011aa:	9b03      	ldr	r3, [sp, #12]
 80011ac:	930e      	str	r3, [sp, #56]	; 0x38
 80011ae:	aa0e      	add	r2, sp, #56	; 0x38
 80011b0:	4649      	mov	r1, r9
 80011b2:	4628      	mov	r0, r5
 80011b4:	f006 fc14 	bl	80079e0 <HAL_TIMEx_ConfigBreakInput>
 80011b8:	2360      	movs	r3, #96	; 0x60
 80011ba:	4622      	mov	r2, r4
 80011bc:	a916      	add	r1, sp, #88	; 0x58
 80011be:	4628      	mov	r0, r5
 80011c0:	9316      	str	r3, [sp, #88]	; 0x58
 80011c2:	e9cd 4417 	strd	r4, r4, [sp, #92]	; 0x5c
 80011c6:	e9cd 4419 	strd	r4, r4, [sp, #100]	; 0x64
 80011ca:	e9cd 441b 	strd	r4, r4, [sp, #108]	; 0x6c
 80011ce:	f005 ff5b 	bl	8007088 <HAL_TIM_PWM_ConfigChannel>
 80011d2:	2204      	movs	r2, #4
 80011d4:	a916      	add	r1, sp, #88	; 0x58
 80011d6:	4628      	mov	r0, r5
 80011d8:	9417      	str	r4, [sp, #92]	; 0x5c
 80011da:	f005 ff55 	bl	8007088 <HAL_TIM_PWM_ConfigChannel>
 80011de:	a916      	add	r1, sp, #88	; 0x58
 80011e0:	4628      	mov	r0, r5
 80011e2:	2208      	movs	r2, #8
 80011e4:	9417      	str	r4, [sp, #92]	; 0x5c
 80011e6:	f005 ff4f 	bl	8007088 <HAL_TIM_PWM_ConfigChannel>
 80011ea:	220c      	movs	r2, #12
 80011ec:	a916      	add	r1, sp, #88	; 0x58
 80011ee:	4628      	mov	r0, r5
 80011f0:	e9cd a416 	strd	sl, r4, [sp, #88]	; 0x58
 80011f4:	9419      	str	r4, [sp, #100]	; 0x64
 80011f6:	f005 ff47 	bl	8007088 <HAL_TIM_PWM_ConfigChannel>
 80011fa:	f44f 7380 	mov.w	r3, #256	; 0x100
 80011fe:	f44f 6c80 	mov.w	ip, #1024	; 0x400
 8001202:	f44f 6e00 	mov.w	lr, #2048	; 0x800
 8001206:	9320      	str	r3, [sp, #128]	; 0x80
 8001208:	f44f 5300 	mov.w	r3, #8192	; 0x2000
 800120c:	e9cd ec1e 	strd	lr, ip, [sp, #120]	; 0x78
 8001210:	f04f 0a03 	mov.w	sl, #3
 8001214:	f04f 7e80 	mov.w	lr, #16777216	; 0x1000000
 8001218:	2244      	movs	r2, #68	; 0x44
 800121a:	a91e      	add	r1, sp, #120	; 0x78
 800121c:	4628      	mov	r0, r5
 800121e:	9323      	str	r3, [sp, #140]	; 0x8c
 8001220:	f04f 7300 	mov.w	r3, #33554432	; 0x2000000
 8001224:	e9cd e326 	strd	lr, r3, [sp, #152]	; 0x98
 8001228:	9221      	str	r2, [sp, #132]	; 0x84
 800122a:	9422      	str	r4, [sp, #136]	; 0x88
 800122c:	e9cd 4424 	strd	r4, r4, [sp, #144]	; 0x90
 8001230:	e9cd 4429 	strd	r4, r4, [sp, #164]	; 0xa4
 8001234:	f8cd a0a0 	str.w	sl, [sp, #160]	; 0xa0
 8001238:	f006 fb84 	bl	8007944 <HAL_TIMEx_ConfigBreakDeadTime>
 800123c:	4628      	mov	r0, r5
 800123e:	f001 ff61 	bl	8003104 <HAL_TIM_MspPostInit>
 8001242:	4869      	ldr	r0, [pc, #420]	; (80013e8 <main+0x6b8>)
 8001244:	4a69      	ldr	r2, [pc, #420]	; (80013ec <main+0x6bc>)
 8001246:	4f6a      	ldr	r7, [pc, #424]	; (80013f0 <main+0x6c0>)
 8001248:	6002      	str	r2, [r0, #0]
 800124a:	250c      	movs	r5, #12
 800124c:	f640 739f 	movw	r3, #3999	; 0xf9f
 8001250:	a91e      	add	r1, sp, #120	; 0x78
 8001252:	9522      	str	r5, [sp, #136]	; 0x88
 8001254:	9526      	str	r5, [sp, #152]	; 0x98
 8001256:	4605      	mov	r5, r0
 8001258:	60c3      	str	r3, [r0, #12]
 800125a:	f8cd a078 	str.w	sl, [sp, #120]	; 0x78
 800125e:	9620      	str	r6, [sp, #128]	; 0x80
 8001260:	9624      	str	r6, [sp, #144]	; 0x90
 8001262:	941f      	str	r4, [sp, #124]	; 0x7c
 8001264:	e9cd 4416 	strd	r4, r4, [sp, #88]	; 0x58
 8001268:	9418      	str	r4, [sp, #96]	; 0x60
 800126a:	9421      	str	r4, [sp, #132]	; 0x84
 800126c:	9423      	str	r4, [sp, #140]	; 0x8c
 800126e:	9425      	str	r4, [sp, #148]	; 0x94
 8001270:	e9c0 4401 	strd	r4, r4, [r0, #4]
 8001274:	6104      	str	r4, [r0, #16]
 8001276:	6184      	str	r4, [r0, #24]
 8001278:	f005 fe3e 	bl	8006ef8 <HAL_TIM_Encoder_Init>
 800127c:	a916      	add	r1, sp, #88	; 0x58
 800127e:	4628      	mov	r0, r5
 8001280:	9416      	str	r4, [sp, #88]	; 0x58
 8001282:	9418      	str	r4, [sp, #96]	; 0x60
 8001284:	f006 fb2c 	bl	80078e0 <HAL_TIMEx_MasterConfigSynchronization>
 8001288:	4a5a      	ldr	r2, [pc, #360]	; (80013f4 <main+0x6c4>)
 800128a:	613c      	str	r4, [r7, #16]
 800128c:	230c      	movs	r3, #12
 800128e:	617b      	str	r3, [r7, #20]
 8001290:	4638      	mov	r0, r7
 8001292:	f44f 23e1 	mov.w	r3, #460800	; 0x70800
 8001296:	e9c7 2300 	strd	r2, r3, [r7]
 800129a:	e9c7 4402 	strd	r4, r4, [r7, #8]
 800129e:	e9c7 4406 	strd	r4, r4, [r7, #24]
 80012a2:	e9c7 4408 	strd	r4, r4, [r7, #32]
 80012a6:	62bc      	str	r4, [r7, #40]	; 0x28
 80012a8:	f006 fe1e 	bl	8007ee8 <HAL_UART_Init>
 80012ac:	4621      	mov	r1, r4
 80012ae:	4638      	mov	r0, r7
 80012b0:	f8df b154 	ldr.w	fp, [pc, #340]	; 8001408 <main+0x6d8>
 80012b4:	f8df 8154 	ldr.w	r8, [pc, #340]	; 800140c <main+0x6dc>
 80012b8:	f007 fc18 	bl	8008aec <HAL_UARTEx_SetTxFifoThreshold>
 80012bc:	4621      	mov	r1, r4
 80012be:	4638      	mov	r0, r7
 80012c0:	f007 fc66 	bl	8008b90 <HAL_UARTEx_SetRxFifoThreshold>
 80012c4:	4638      	mov	r0, r7
 80012c6:	f007 fbf3 	bl	8008ab0 <HAL_UARTEx_DisableFifoMode>
 80012ca:	f001 fb35 	bl	8002938 <MX_MotorControl_Init>
 80012ce:	4b4a      	ldr	r3, [pc, #296]	; (80013f8 <main+0x6c8>)
 80012d0:	f8cb 3000 	str.w	r3, [fp]
 80012d4:	4658      	mov	r0, fp
 80012d6:	941e      	str	r4, [sp, #120]	; 0x78
 80012d8:	e9cd 441f 	strd	r4, r4, [sp, #124]	; 0x7c
 80012dc:	9421      	str	r4, [sp, #132]	; 0x84
 80012de:	e9cd 4416 	strd	r4, r4, [sp, #88]	; 0x58
 80012e2:	9418      	str	r4, [sp, #96]	; 0x60
 80012e4:	e9cb 4401 	strd	r4, r4, [fp, #4]
 80012e8:	e9cb 4403 	strd	r4, r4, [fp, #12]
 80012ec:	f8cb 4018 	str.w	r4, [fp, #24]
 80012f0:	f005 fcda 	bl	8006ca8 <HAL_TIM_Base_Init>
 80012f4:	f44f 5380 	mov.w	r3, #4096	; 0x1000
 80012f8:	a91e      	add	r1, sp, #120	; 0x78
 80012fa:	4658      	mov	r0, fp
 80012fc:	931e      	str	r3, [sp, #120]	; 0x78
 80012fe:	f006 f8a1 	bl	8007444 <HAL_TIM_ConfigClockSource>
 8001302:	a916      	add	r1, sp, #88	; 0x58
 8001304:	4658      	mov	r0, fp
 8001306:	9416      	str	r4, [sp, #88]	; 0x58
 8001308:	9418      	str	r4, [sp, #96]	; 0x60
 800130a:	f006 fae9 	bl	80078e0 <HAL_TIMEx_MasterConfigSynchronization>
 800130e:	4a3b      	ldr	r2, [pc, #236]	; (80013fc <main+0x6cc>)
 8001310:	f8c8 4008 	str.w	r4, [r8, #8]
 8001314:	23aa      	movs	r3, #170	; 0xaa
 8001316:	f44f 757a 	mov.w	r5, #1000	; 0x3e8
 800131a:	4640      	mov	r0, r8
 800131c:	e9c8 2300 	strd	r2, r3, [r8]
 8001320:	e9c8 4404 	strd	r4, r4, [r8, #16]
 8001324:	f8c8 4018 	str.w	r4, [r8, #24]
 8001328:	f8c8 500c 	str.w	r5, [r8, #12]
 800132c:	f005 fcbc 	bl	8006ca8 <HAL_TIM_Base_Init>
 8001330:	4632      	mov	r2, r6
 8001332:	2104      	movs	r1, #4
 8001334:	2018      	movs	r0, #24
 8001336:	f003 fcaf 	bl	8004c98 <HAL_NVIC_SetPriority>
 800133a:	2018      	movs	r0, #24
 800133c:	f003 fce2 	bl	8004d04 <HAL_NVIC_EnableIRQ>
 8001340:	4622      	mov	r2, r4
 8001342:	4621      	mov	r1, r4
 8001344:	2019      	movs	r0, #25
 8001346:	f003 fca7 	bl	8004c98 <HAL_NVIC_SetPriority>
 800134a:	2019      	movs	r0, #25
 800134c:	f003 fcda 	bl	8004d04 <HAL_NVIC_EnableIRQ>
 8001350:	4622      	mov	r2, r4
 8001352:	4649      	mov	r1, r9
 8001354:	2012      	movs	r0, #18
 8001356:	f003 fc9f 	bl	8004c98 <HAL_NVIC_SetPriority>
 800135a:	2012      	movs	r0, #18
 800135c:	f003 fcd2 	bl	8004d04 <HAL_NVIC_EnableIRQ>
 8001360:	4622      	mov	r2, r4
 8001362:	4651      	mov	r1, sl
 8001364:	201e      	movs	r0, #30
 8001366:	f003 fc97 	bl	8004c98 <HAL_NVIC_SetPriority>
 800136a:	201e      	movs	r0, #30
 800136c:	f003 fcca 	bl	8004d04 <HAL_NVIC_EnableIRQ>
 8001370:	4632      	mov	r2, r6
 8001372:	4651      	mov	r1, sl
 8001374:	2026      	movs	r0, #38	; 0x26
 8001376:	f003 fc8f 	bl	8004c98 <HAL_NVIC_SetPriority>
 800137a:	2026      	movs	r0, #38	; 0x26
 800137c:	f003 fcc2 	bl	8004d04 <HAL_NVIC_EnableIRQ>
 8001380:	f7ff f8f4 	bl	800056c <ESC_Read_Flash>
 8001384:	f7ff fb8a 	bl	8000a9c <ESCReg_Refreshed>
 8001388:	2800      	cmp	r0, #0
 800138a:	f040 80e9 	bne.w	8001560 <main+0x830>
 800138e:	4e1c      	ldr	r6, [pc, #112]	; (8001400 <main+0x6d0>)
 8001390:	f8df b07c 	ldr.w	fp, [pc, #124]	; 8001410 <main+0x6e0>
 8001394:	4c1b      	ldr	r4, [pc, #108]	; (8001404 <main+0x6d4>)
 8001396:	f8df 907c 	ldr.w	r9, [pc, #124]	; 8001414 <main+0x6e4>
 800139a:	4682      	mov	sl, r0
 800139c:	f7ff fc46 	bl	8000c2c <Motor_PID_Init>
 80013a0:	f8cb a000 	str.w	sl, [fp]
 80013a4:	f8c6 a000 	str.w	sl, [r6]
 80013a8:	f8c6 a004 	str.w	sl, [r6, #4]
 80013ac:	f8a6 a008 	strh.w	sl, [r6, #8]
 80013b0:	f884 a000 	strb.w	sl, [r4]
 80013b4:	f7ff f982 	bl	80006bc <ESC_UART_Init>
 80013b8:	4628      	mov	r0, r5
 80013ba:	f002 fd5d 	bl	8003e78 <HAL_Delay>
 80013be:	4640      	mov	r0, r8
 80013c0:	f005 fcfa 	bl	8006db8 <HAL_TIM_Base_Start_IT>
 80013c4:	464d      	mov	r5, r9
 80013c6:	e02a      	b.n	800141e <main+0x6ee>
 80013c8:	200008fc 	.word	0x200008fc
 80013cc:	40010300 	.word	0x40010300
 80013d0:	20000720 	.word	0x20000720
 80013d4:	40010304 	.word	0x40010304
 80013d8:	2000085c 	.word	0x2000085c
 80013dc:	40010308 	.word	0x40010308
 80013e0:	20000ab8 	.word	0x20000ab8
 80013e4:	40012c00 	.word	0x40012c00
 80013e8:	2000075c 	.word	0x2000075c
 80013ec:	40000800 	.word	0x40000800
 80013f0:	20000b1c 	.word	0x20000b1c
 80013f4:	40004400 	.word	0x40004400
 80013f8:	40000400 	.word	0x40000400
 80013fc:	40014800 	.word	0x40014800
 8001400:	20000650 	.word	0x20000650
 8001404:	2000065a 	.word	0x2000065a
 8001408:	200008bc 	.word	0x200008bc
 800140c:	2000081c 	.word	0x2000081c
 8001410:	200006bc 	.word	0x200006bc
 8001414:	200006b8 	.word	0x200006b8
 8001418:	2001      	movs	r0, #1
 800141a:	f002 fd2d 	bl	8003e78 <HAL_Delay>
 800141e:	230a      	movs	r3, #10
 8001420:	2201      	movs	r2, #1
 8001422:	4629      	mov	r1, r5
 8001424:	4638      	mov	r0, r7
 8001426:	f006 fb61 	bl	8007aec <HAL_UART_Receive>
 800142a:	2800      	cmp	r0, #0
 800142c:	d1f4      	bne.n	8001418 <main+0x6e8>
 800142e:	4d6a      	ldr	r5, [pc, #424]	; (80015d8 <main+0x8a8>)
 8001430:	f899 2000 	ldrb.w	r2, [r9]
 8001434:	782b      	ldrb	r3, [r5, #0]
 8001436:	f8df a1b4 	ldr.w	sl, [pc, #436]	; 80015ec <main+0x8bc>
 800143a:	f8df 91a0 	ldr.w	r9, [pc, #416]	; 80015dc <main+0x8ac>
 800143e:	f362 1307 	bfi	r3, r2, #4, #4
 8001442:	4680      	mov	r8, r0
 8001444:	4865      	ldr	r0, [pc, #404]	; (80015dc <main+0x8ac>)
 8001446:	702b      	strb	r3, [r5, #0]
 8001448:	f7ff f9dc 	bl	8000804 <FDCAN1_RX_Filter_Init>
 800144c:	4863      	ldr	r0, [pc, #396]	; (80015dc <main+0x8ac>)
 800144e:	f004 f8d1 	bl	80055f4 <HAL_FDCAN_Start>
 8001452:	4641      	mov	r1, r8
 8001454:	4640      	mov	r0, r8
 8001456:	782a      	ldrb	r2, [r5, #0]
 8001458:	f8df 8194 	ldr.w	r8, [pc, #404]	; 80015f0 <main+0x8c0>
 800145c:	4653      	mov	r3, sl
 800145e:	f7ff f9f3 	bl	8000848 <CAN_TX_Init_Data>
 8001462:	4651      	mov	r1, sl
 8001464:	4648      	mov	r0, r9
 8001466:	f7ff f9fd 	bl	8000864 <FDCAN1_TX>
 800146a:	f44f 77fa 	mov.w	r7, #500	; 0x1f4
 800146e:	e003      	b.n	8001478 <main+0x748>
 8001470:	f002 fd02 	bl	8003e78 <HAL_Delay>
 8001474:	3f01      	subs	r7, #1
 8001476:	d0f4      	beq.n	8001462 <main+0x732>
 8001478:	7823      	ldrb	r3, [r4, #0]
 800147a:	2001      	movs	r0, #1
 800147c:	2b00      	cmp	r3, #0
 800147e:	d0f7      	beq.n	8001470 <main+0x740>
 8001480:	4643      	mov	r3, r8
 8001482:	4a57      	ldr	r2, [pc, #348]	; (80015e0 <main+0x8b0>)
 8001484:	2140      	movs	r1, #64	; 0x40
 8001486:	4648      	mov	r0, r9
 8001488:	f004 f934 	bl	80056f4 <HAL_FDCAN_GetRxMessage>
 800148c:	7823      	ldrb	r3, [r4, #0]
 800148e:	2204      	movs	r2, #4
 8001490:	3b01      	subs	r3, #1
 8001492:	a904      	add	r1, sp, #16
 8001494:	4640      	mov	r0, r8
 8001496:	7023      	strb	r3, [r4, #0]
 8001498:	f7ff fbac 	bl	8000bf4 <validata>
 800149c:	2800      	cmp	r0, #0
 800149e:	d0e0      	beq.n	8001462 <main+0x732>
 80014a0:	f8df 8150 	ldr.w	r8, [pc, #336]	; 80015f4 <main+0x8c4>
 80014a4:	f8df a148 	ldr.w	sl, [pc, #328]	; 80015f0 <main+0x8c0>
 80014a8:	f8df 9134 	ldr.w	r9, [pc, #308]	; 80015e0 <main+0x8b0>
 80014ac:	4f4b      	ldr	r7, [pc, #300]	; (80015dc <main+0x8ac>)
 80014ae:	e002      	b.n	80014b6 <main+0x786>
 80014b0:	782b      	ldrb	r3, [r5, #0]
 80014b2:	07da      	lsls	r2, r3, #31
 80014b4:	d41c      	bmi.n	80014f0 <main+0x7c0>
 80014b6:	f7ff fb3b 	bl	8000b30 <ESCReg_UpdateCycle>
 80014ba:	7823      	ldrb	r3, [r4, #0]
 80014bc:	2b00      	cmp	r3, #0
 80014be:	d0f7      	beq.n	80014b0 <main+0x780>
 80014c0:	4653      	mov	r3, sl
 80014c2:	464a      	mov	r2, r9
 80014c4:	2140      	movs	r1, #64	; 0x40
 80014c6:	4638      	mov	r0, r7
 80014c8:	f004 f914 	bl	80056f4 <HAL_FDCAN_GetRxMessage>
 80014cc:	7822      	ldrb	r2, [r4, #0]
 80014ce:	7873      	ldrb	r3, [r6, #1]
 80014d0:	3a01      	subs	r2, #1
 80014d2:	2bff      	cmp	r3, #255	; 0xff
 80014d4:	7022      	strb	r2, [r4, #0]
 80014d6:	4618      	mov	r0, r3
 80014d8:	d059      	beq.n	800158e <main+0x85e>
 80014da:	0619      	lsls	r1, r3, #24
 80014dc:	d45b      	bmi.n	8001596 <main+0x866>
 80014de:	2b0e      	cmp	r3, #14
 80014e0:	d050      	beq.n	8001584 <main+0x854>
 80014e2:	78f2      	ldrb	r2, [r6, #3]
 80014e4:	78b1      	ldrb	r1, [r6, #2]
 80014e6:	f7ff f9ed 	bl	80008c4 <ESCReg_Write>
 80014ea:	782b      	ldrb	r3, [r5, #0]
 80014ec:	07da      	lsls	r2, r3, #31
 80014ee:	d5e2      	bpl.n	80014b6 <main+0x786>
 80014f0:	f000 f8a6 	bl	8001640 <MC_GetSTMStateMotor1>
 80014f4:	2800      	cmp	r0, #0
 80014f6:	d06c      	beq.n	80015d2 <main+0x8a2>
 80014f8:	f000 f8a2 	bl	8001640 <MC_GetSTMStateMotor1>
 80014fc:	280b      	cmp	r0, #11
 80014fe:	d003      	beq.n	8001508 <main+0x7d8>
 8001500:	f000 f89e 	bl	8001640 <MC_GetSTMStateMotor1>
 8001504:	280a      	cmp	r0, #10
 8001506:	d1d1      	bne.n	80014ac <main+0x77c>
 8001508:	f898 202c 	ldrb.w	r2, [r8, #44]	; 0x2c
 800150c:	f8d8 3020 	ldr.w	r3, [r8, #32]
 8001510:	f853 3022 	ldr.w	r3, [r3, r2, lsl #2]
 8001514:	6818      	ldr	r0, [r3, #0]
 8001516:	f009 f9ed 	bl	800a8f4 <STM_GetFaultState>
 800151a:	f898 202c 	ldrb.w	r2, [r8, #44]	; 0x2c
 800151e:	f8d8 3020 	ldr.w	r3, [r8, #32]
 8001522:	f885 002b 	strb.w	r0, [r5, #43]	; 0x2b
 8001526:	f853 3022 	ldr.w	r3, [r3, r2, lsl #2]
 800152a:	6818      	ldr	r0, [r3, #0]
 800152c:	f009 f9e2 	bl	800a8f4 <STM_GetFaultState>
 8001530:	0c00      	lsrs	r0, r0, #16
 8001532:	f885 002a 	strb.w	r0, [r5, #42]	; 0x2a
 8001536:	f000 f87d 	bl	8001634 <MC_AcknowledgeFaultMotor1>
 800153a:	782b      	ldrb	r3, [r5, #0]
 800153c:	079b      	lsls	r3, r3, #30
 800153e:	d442      	bmi.n	80015c6 <main+0x896>
 8001540:	f9b5 300e 	ldrsh.w	r3, [r5, #14]
 8001544:	4a27      	ldr	r2, [pc, #156]	; (80015e4 <main+0x8b4>)
 8001546:	89a9      	ldrh	r1, [r5, #12]
 8001548:	fb82 2003 	smull	r2, r0, r2, r3
 800154c:	eba0 70e3 	sub.w	r0, r0, r3, asr #31
 8001550:	b200      	sxth	r0, r0
 8001552:	f000 f85f 	bl	8001614 <MC_ProgramSpeedRampMotor1>
 8001556:	f000 f851 	bl	80015fc <MC_StartMotor1>
 800155a:	2300      	movs	r3, #0
 800155c:	856b      	strh	r3, [r5, #42]	; 0x2a
 800155e:	e7a5      	b.n	80014ac <main+0x77c>
 8001560:	f7ff fade 	bl	8000b20 <ESCReg_Clear>
 8001564:	f7ff fae4 	bl	8000b30 <ESCReg_UpdateCycle>
 8001568:	f7ff fac6 	bl	8000af8 <ESCReg_Init>
 800156c:	2064      	movs	r0, #100	; 0x64
 800156e:	f002 fc83 	bl	8003e78 <HAL_Delay>
 8001572:	f7ff f83d 	bl	80005f0 <ESC_Write_Flash>
 8001576:	2064      	movs	r0, #100	; 0x64
 8001578:	f002 fc7e 	bl	8003e78 <HAL_Delay>
 800157c:	4620      	mov	r0, r4
 800157e:	b02f      	add	sp, #188	; 0xbc
 8001580:	e8bd 8ff0 	ldmia.w	sp!, {r4, r5, r6, r7, r8, r9, sl, fp, pc}
 8001584:	7972      	ldrb	r2, [r6, #5]
 8001586:	7931      	ldrb	r1, [r6, #4]
 8001588:	f7ff f99c 	bl	80008c4 <ESCReg_Write>
 800158c:	e790      	b.n	80014b0 <main+0x780>
 800158e:	2001      	movs	r0, #1
 8001590:	f002 fc72 	bl	8003e78 <HAL_Delay>
 8001594:	e78c      	b.n	80014b0 <main+0x780>
 8001596:	4a14      	ldr	r2, [pc, #80]	; (80015e8 <main+0x8b8>)
 8001598:	f003 037f 	and.w	r3, r3, #127	; 0x7f
 800159c:	1e51      	subs	r1, r2, #1
 800159e:	4618      	mov	r0, r3
 80015a0:	7073      	strb	r3, [r6, #1]
 80015a2:	f7ff f971 	bl	8000888 <ESCReg_Read>
 80015a6:	782b      	ldrb	r3, [r5, #0]
 80015a8:	7872      	ldrb	r2, [r6, #1]
 80015aa:	f88b 2001 	strb.w	r2, [fp, #1]
 80015ae:	f3c3 1303 	ubfx	r3, r3, #4, #4
 80015b2:	2001      	movs	r0, #1
 80015b4:	f88b 3000 	strb.w	r3, [fp]
 80015b8:	f002 fc5e 	bl	8003e78 <HAL_Delay>
 80015bc:	490b      	ldr	r1, [pc, #44]	; (80015ec <main+0x8bc>)
 80015be:	4638      	mov	r0, r7
 80015c0:	f7ff f950 	bl	8000864 <FDCAN1_TX>
 80015c4:	e774      	b.n	80014b0 <main+0x780>
 80015c6:	89a9      	ldrh	r1, [r5, #12]
 80015c8:	f9b5 0016 	ldrsh.w	r0, [r5, #22]
 80015cc:	f000 f82a 	bl	8001624 <MC_ProgramTorqueRampMotor1>
 80015d0:	e7c1      	b.n	8001556 <main+0x826>
 80015d2:	f000 f813 	bl	80015fc <MC_StartMotor1>
 80015d6:	e78f      	b.n	80014f8 <main+0x7c8>
 80015d8:	20000688 	.word	0x20000688
 80015dc:	20000a50 	.word	0x20000a50
 80015e0:	2000065c 	.word	0x2000065c
 80015e4:	2aaaaaab 	.word	0x2aaaaaab
 80015e8:	200006bf 	.word	0x200006bf
 80015ec:	200006bc 	.word	0x200006bc
 80015f0:	20000650 	.word	0x20000650
 80015f4:	20000cd0 	.word	0x20000cd0

080015f8 <Error_Handler>:
 80015f8:	4770      	bx	lr
 80015fa:	bf00      	nop

080015fc <MC_StartMotor1>:
 80015fc:	4b01      	ldr	r3, [pc, #4]	; (8001604 <MC_StartMotor1+0x8>)
 80015fe:	6818      	ldr	r0, [r3, #0]
 8001600:	f000 b854 	b.w	80016ac <MCI_StartMotor>
 8001604:	20000c8c 	.word	0x20000c8c

08001608 <MC_StopMotor1>:
 8001608:	4b01      	ldr	r3, [pc, #4]	; (8001610 <MC_StopMotor1+0x8>)
 800160a:	6818      	ldr	r0, [r3, #0]
 800160c:	f000 b858 	b.w	80016c0 <MCI_StopMotor>
 8001610:	20000c8c 	.word	0x20000c8c

08001614 <MC_ProgramSpeedRampMotor1>:
 8001614:	4b02      	ldr	r3, [pc, #8]	; (8001620 <MC_ProgramSpeedRampMotor1+0xc>)
 8001616:	460a      	mov	r2, r1
 8001618:	4601      	mov	r1, r0
 800161a:	6818      	ldr	r0, [r3, #0]
 800161c:	f000 b824 	b.w	8001668 <MCI_ExecSpeedRamp>
 8001620:	20000c8c 	.word	0x20000c8c

08001624 <MC_ProgramTorqueRampMotor1>:
 8001624:	4b02      	ldr	r3, [pc, #8]	; (8001630 <MC_ProgramTorqueRampMotor1+0xc>)
 8001626:	460a      	mov	r2, r1
 8001628:	4601      	mov	r1, r0
 800162a:	6818      	ldr	r0, [r3, #0]
 800162c:	f000 b824 	b.w	8001678 <MCI_ExecTorqueRamp>
 8001630:	20000c8c 	.word	0x20000c8c

08001634 <MC_AcknowledgeFaultMotor1>:
 8001634:	4b01      	ldr	r3, [pc, #4]	; (800163c <MC_AcknowledgeFaultMotor1+0x8>)
 8001636:	6818      	ldr	r0, [r3, #0]
 8001638:	f000 b846 	b.w	80016c8 <MCI_FaultAcknowledged>
 800163c:	20000c8c 	.word	0x20000c8c

08001640 <MC_GetSTMStateMotor1>:
 8001640:	4b01      	ldr	r3, [pc, #4]	; (8001648 <MC_GetSTMStateMotor1+0x8>)
 8001642:	6818      	ldr	r0, [r3, #0]
 8001644:	f000 b882 	b.w	800174c <MCI_GetSTMState>
 8001648:	20000c8c 	.word	0x20000c8c

0800164c <MCI_Init>:
 800164c:	b410      	push	{r4}
 800164e:	2400      	movs	r4, #0
 8001650:	7304      	strb	r4, [r0, #12]
 8001652:	f8c0 400e 	str.w	r4, [r0, #14]
 8001656:	82c4      	strh	r4, [r0, #22]
 8001658:	7604      	strb	r4, [r0, #24]
 800165a:	e9c0 1200 	strd	r1, r2, [r0]
 800165e:	6083      	str	r3, [r0, #8]
 8001660:	f85d 4b04 	ldr.w	r4, [sp], #4
 8001664:	4770      	bx	lr
 8001666:	bf00      	nop

08001668 <MCI_ExecSpeedRamp>:
 8001668:	2301      	movs	r3, #1
 800166a:	81c1      	strh	r1, [r0, #14]
 800166c:	82c2      	strh	r2, [r0, #22]
 800166e:	7303      	strb	r3, [r0, #12]
 8001670:	7603      	strb	r3, [r0, #24]
 8001672:	7643      	strb	r3, [r0, #25]
 8001674:	4770      	bx	lr
 8001676:	bf00      	nop

08001678 <MCI_ExecTorqueRamp>:
 8001678:	b430      	push	{r4, r5}
 800167a:	2300      	movs	r3, #0
 800167c:	2502      	movs	r5, #2
 800167e:	2401      	movs	r4, #1
 8001680:	7305      	strb	r5, [r0, #12]
 8001682:	7604      	strb	r4, [r0, #24]
 8001684:	8201      	strh	r1, [r0, #16]
 8001686:	82c2      	strh	r2, [r0, #22]
 8001688:	7643      	strb	r3, [r0, #25]
 800168a:	bc30      	pop	{r4, r5}
 800168c:	4770      	bx	lr
 800168e:	bf00      	nop

08001690 <MCI_SetCurrentReferences>:
 8001690:	b410      	push	{r4}
 8001692:	2201      	movs	r2, #1
 8001694:	b083      	sub	sp, #12
 8001696:	2403      	movs	r4, #3
 8001698:	2300      	movs	r3, #0
 800169a:	f8c0 1012 	str.w	r1, [r0, #18]
 800169e:	7304      	strb	r4, [r0, #12]
 80016a0:	7602      	strb	r2, [r0, #24]
 80016a2:	7643      	strb	r3, [r0, #25]
 80016a4:	b003      	add	sp, #12
 80016a6:	f85d 4b04 	ldr.w	r4, [sp], #4
 80016aa:	4770      	bx	lr

080016ac <MCI_StartMotor>:
 80016ac:	b510      	push	{r4, lr}
 80016ae:	2103      	movs	r1, #3
 80016b0:	4604      	mov	r4, r0
 80016b2:	6800      	ldr	r0, [r0, #0]
 80016b4:	f009 f89c 	bl	800a7f0 <STM_NextState>
 80016b8:	b108      	cbz	r0, 80016be <MCI_StartMotor+0x12>
 80016ba:	2301      	movs	r3, #1
 80016bc:	7623      	strb	r3, [r4, #24]
 80016be:	bd10      	pop	{r4, pc}

080016c0 <MCI_StopMotor>:
 80016c0:	6800      	ldr	r0, [r0, #0]
 80016c2:	2107      	movs	r1, #7
 80016c4:	f009 b894 	b.w	800a7f0 <STM_NextState>

080016c8 <MCI_FaultAcknowledged>:
 80016c8:	6800      	ldr	r0, [r0, #0]
 80016ca:	f009 b907 	b.w	800a8dc <STM_FaultAcknowledged>
 80016ce:	bf00      	nop

080016d0 <MCI_EncoderAlign>:
 80016d0:	6800      	ldr	r0, [r0, #0]
 80016d2:	2101      	movs	r1, #1
 80016d4:	f009 b88c 	b.w	800a7f0 <STM_NextState>

080016d8 <MCI_ExecBufferedCommands>:
 80016d8:	b110      	cbz	r0, 80016e0 <MCI_ExecBufferedCommands+0x8>
 80016da:	7e03      	ldrb	r3, [r0, #24]
 80016dc:	2b01      	cmp	r3, #1
 80016de:	d000      	beq.n	80016e2 <MCI_ExecBufferedCommands+0xa>
 80016e0:	4770      	bx	lr
 80016e2:	7b01      	ldrb	r1, [r0, #12]
 80016e4:	2902      	cmp	r1, #2
 80016e6:	b510      	push	{r4, lr}
 80016e8:	4604      	mov	r4, r0
 80016ea:	d01f      	beq.n	800172c <MCI_ExecBufferedCommands+0x54>
 80016ec:	2903      	cmp	r1, #3
 80016ee:	d004      	beq.n	80016fa <MCI_ExecBufferedCommands+0x22>
 80016f0:	2901      	cmp	r1, #1
 80016f2:	d00b      	beq.n	800170c <MCI_ExecBufferedCommands+0x34>
 80016f4:	2303      	movs	r3, #3
 80016f6:	7623      	strb	r3, [r4, #24]
 80016f8:	bd10      	pop	{r4, pc}
 80016fa:	6882      	ldr	r2, [r0, #8]
 80016fc:	f8d0 1012 	ldr.w	r1, [r0, #18]
 8001700:	6111      	str	r1, [r2, #16]
 8001702:	f882 3024 	strb.w	r3, [r2, #36]	; 0x24
 8001706:	2302      	movs	r3, #2
 8001708:	7623      	strb	r3, [r4, #24]
 800170a:	bd10      	pop	{r4, pc}
 800170c:	e9d0 0301 	ldrd	r0, r3, [r0, #4]
 8001710:	2200      	movs	r2, #0
 8001712:	f883 2024 	strb.w	r2, [r3, #36]	; 0x24
 8001716:	f008 ffab 	bl	800a670 <STC_SetControlMode>
 800171a:	8ae2      	ldrh	r2, [r4, #22]
 800171c:	f9b4 100e 	ldrsh.w	r1, [r4, #14]
 8001720:	6860      	ldr	r0, [r4, #4]
 8001722:	f008 ffa9 	bl	800a678 <STC_ExecRamp>
 8001726:	2800      	cmp	r0, #0
 8001728:	d0e4      	beq.n	80016f4 <MCI_ExecBufferedCommands+0x1c>
 800172a:	e7ec      	b.n	8001706 <MCI_ExecBufferedCommands+0x2e>
 800172c:	e9d0 0301 	ldrd	r0, r3, [r0, #4]
 8001730:	2100      	movs	r1, #0
 8001732:	f883 1024 	strb.w	r1, [r3, #36]	; 0x24
 8001736:	f008 ff9b 	bl	800a670 <STC_SetControlMode>
 800173a:	8ae2      	ldrh	r2, [r4, #22]
 800173c:	f9b4 1010 	ldrsh.w	r1, [r4, #16]
 8001740:	6860      	ldr	r0, [r4, #4]
 8001742:	f008 ff99 	bl	800a678 <STC_ExecRamp>
 8001746:	2800      	cmp	r0, #0
 8001748:	d0d4      	beq.n	80016f4 <MCI_ExecBufferedCommands+0x1c>
 800174a:	e7dc      	b.n	8001706 <MCI_ExecBufferedCommands+0x2e>

0800174c <MCI_GetSTMState>:
 800174c:	6800      	ldr	r0, [r0, #0]
 800174e:	f009 b8c3 	b.w	800a8d8 <STM_GetState>
 8001752:	bf00      	nop

08001754 <MCI_GetControlMode>:
 8001754:	7e40      	ldrb	r0, [r0, #25]
 8001756:	4770      	bx	lr

08001758 <MCI_GetLastRampFinalSpeed>:
 8001758:	7b03      	ldrb	r3, [r0, #12]
 800175a:	2b01      	cmp	r3, #1
 800175c:	bf0c      	ite	eq
 800175e:	f9b0 000e 	ldrsheq.w	r0, [r0, #14]
 8001762:	2000      	movne	r0, #0
 8001764:	4770      	bx	lr
 8001766:	bf00      	nop

08001768 <MCI_StopRamp>:
 8001768:	6840      	ldr	r0, [r0, #4]
 800176a:	f008 bfcf 	b.w	800a70c <STC_StopRamp>
 800176e:	bf00      	nop

08001770 <MCI_GetAvrgMecSpeedUnit>:
 8001770:	b508      	push	{r3, lr}
 8001772:	6840      	ldr	r0, [r0, #4]
 8001774:	f008 ff62 	bl	800a63c <STC_GetSpeedSensor>
 8001778:	e8bd 4008 	ldmia.w	sp!, {r3, lr}
 800177c:	f008 bf06 	b.w	800a58c <SPD_GetAvrgMecSpeedUnit>

08001780 <MCI_GetMecSpeedRefUnit>:
 8001780:	6840      	ldr	r0, [r0, #4]
 8001782:	f008 bf65 	b.w	800a650 <STC_GetMecSpeedRefUnit>
 8001786:	bf00      	nop

08001788 <MCI_GetIab>:
 8001788:	6883      	ldr	r3, [r0, #8]
 800178a:	6818      	ldr	r0, [r3, #0]
 800178c:	b283      	uxth	r3, r0
 800178e:	b082      	sub	sp, #8
 8001790:	f363 000f 	bfi	r0, r3, #0, #16
 8001794:	b002      	add	sp, #8
 8001796:	4770      	bx	lr

08001798 <MCI_GetIalphabeta>:
 8001798:	6883      	ldr	r3, [r0, #8]
 800179a:	6858      	ldr	r0, [r3, #4]
 800179c:	b283      	uxth	r3, r0
 800179e:	b082      	sub	sp, #8
 80017a0:	f363 000f 	bfi	r0, r3, #0, #16
 80017a4:	b002      	add	sp, #8
 80017a6:	4770      	bx	lr

080017a8 <MCI_GetIqd>:
 80017a8:	6883      	ldr	r3, [r0, #8]
 80017aa:	68d8      	ldr	r0, [r3, #12]
 80017ac:	b283      	uxth	r3, r0
 80017ae:	b082      	sub	sp, #8
 80017b0:	f363 000f 	bfi	r0, r3, #0, #16
 80017b4:	b002      	add	sp, #8
 80017b6:	4770      	bx	lr

080017b8 <MCI_GetIqdref>:
 80017b8:	6883      	ldr	r3, [r0, #8]
 80017ba:	6918      	ldr	r0, [r3, #16]
 80017bc:	b283      	uxth	r3, r0
 80017be:	b082      	sub	sp, #8
 80017c0:	f363 000f 	bfi	r0, r3, #0, #16
 80017c4:	b002      	add	sp, #8
 80017c6:	4770      	bx	lr

080017c8 <MCI_GetVqd>:
 80017c8:	6883      	ldr	r3, [r0, #8]
 80017ca:	f8d3 0016 	ldr.w	r0, [r3, #22]
 80017ce:	b283      	uxth	r3, r0
 80017d0:	b082      	sub	sp, #8
 80017d2:	f363 000f 	bfi	r0, r3, #0, #16
 80017d6:	b002      	add	sp, #8
 80017d8:	4770      	bx	lr
 80017da:	bf00      	nop

080017dc <MCI_GetValphabeta>:
 80017dc:	6883      	ldr	r3, [r0, #8]
 80017de:	f8d3 001a 	ldr.w	r0, [r3, #26]
 80017e2:	b283      	uxth	r3, r0
 80017e4:	b082      	sub	sp, #8
 80017e6:	f363 000f 	bfi	r0, r3, #0, #16
 80017ea:	b002      	add	sp, #8
 80017ec:	4770      	bx	lr
 80017ee:	bf00      	nop

080017f0 <MCI_GetTeref>:
 80017f0:	6883      	ldr	r3, [r0, #8]
 80017f2:	f9b3 001e 	ldrsh.w	r0, [r3, #30]
 80017f6:	4770      	bx	lr

080017f8 <MCI_SetIdref>:
 80017f8:	6883      	ldr	r3, [r0, #8]
 80017fa:	8259      	strh	r1, [r3, #18]
 80017fc:	8299      	strh	r1, [r3, #20]
 80017fe:	4770      	bx	lr

08001800 <MCI_Clear_Iqdref>:
 8001800:	b510      	push	{r4, lr}
 8001802:	e9d0 0401 	ldrd	r0, r4, [r0, #4]
 8001806:	f008 ffbf 	bl	800a788 <STC_GetDefaultIqdref>
 800180a:	f3c0 430f 	ubfx	r3, r0, #16, #16
 800180e:	8220      	strh	r0, [r4, #16]
 8001810:	8263      	strh	r3, [r4, #18]
 8001812:	bd10      	pop	{r4, pc}

08001814 <MCM_Clarke>:
 8001814:	f644 11e6 	movw	r1, #18918	; 0x49e6
 8001818:	b202      	sxth	r2, r0
 800181a:	f3c0 430f 	ubfx	r3, r0, #16, #16
 800181e:	fb12 f001 	smulbb	r0, r2, r1
 8001822:	fb13 f301 	smulbb	r3, r3, r1
 8001826:	4240      	negs	r0, r0
 8001828:	eba0 0043 	sub.w	r0, r0, r3, lsl #1
 800182c:	13c0      	asrs	r0, r0, #15
 800182e:	f5b0 4f00 	cmp.w	r0, #32768	; 0x8000
 8001832:	b084      	sub	sp, #16
 8001834:	da04      	bge.n	8001840 <MCM_Clarke+0x2c>
 8001836:	f510 4f00 	cmn.w	r0, #32768	; 0x8000
 800183a:	da0c      	bge.n	8001856 <MCM_Clarke+0x42>
 800183c:	4b07      	ldr	r3, [pc, #28]	; (800185c <MCM_Clarke+0x48>)
 800183e:	e001      	b.n	8001844 <MCM_Clarke+0x30>
 8001840:	f647 73ff 	movw	r3, #32767	; 0x7fff
 8001844:	b292      	uxth	r2, r2
 8001846:	2000      	movs	r0, #0
 8001848:	b29b      	uxth	r3, r3
 800184a:	f362 000f 	bfi	r0, r2, #0, #16
 800184e:	f363 401f 	bfi	r0, r3, #16, #16
 8001852:	b004      	add	sp, #16
 8001854:	4770      	bx	lr
 8001856:	b203      	sxth	r3, r0
 8001858:	d1f4      	bne.n	8001844 <MCM_Clarke+0x30>
 800185a:	e7ef      	b.n	800183c <MCM_Clarke+0x28>
 800185c:	ffff8001 	.word	0xffff8001

08001860 <MCM_Trig_Functions>:
 8001860:	4b09      	ldr	r3, [pc, #36]	; (8001888 <MCM_Trig_Functions+0x28>)
 8001862:	4a0a      	ldr	r2, [pc, #40]	; (800188c <MCM_Trig_Functions+0x2c>)
 8001864:	601a      	str	r2, [r3, #0]
 8001866:	f100 40ff 	add.w	r0, r0, #2139095040	; 0x7f800000
 800186a:	f500 00fe 	add.w	r0, r0, #8323072	; 0x7f0000
 800186e:	6058      	str	r0, [r3, #4]
 8001870:	689b      	ldr	r3, [r3, #8]
 8001872:	2000      	movs	r0, #0
 8001874:	b29a      	uxth	r2, r3
 8001876:	f362 000f 	bfi	r0, r2, #0, #16
 800187a:	0c1b      	lsrs	r3, r3, #16
 800187c:	b082      	sub	sp, #8
 800187e:	f363 401f 	bfi	r0, r3, #16, #16
 8001882:	b002      	add	sp, #8
 8001884:	4770      	bx	lr
 8001886:	bf00      	nop
 8001888:	40020c00 	.word	0x40020c00
 800188c:	00600040 	.word	0x00600040

08001890 <MCM_Park>:
 8001890:	b530      	push	{r4, r5, lr}
 8001892:	b085      	sub	sp, #20
 8001894:	b204      	sxth	r4, r0
 8001896:	9001      	str	r0, [sp, #4]
 8001898:	1405      	asrs	r5, r0, #16
 800189a:	4608      	mov	r0, r1
 800189c:	f7ff ffe0 	bl	8001860 <MCM_Trig_Functions>
 80018a0:	b201      	sxth	r1, r0
 80018a2:	fb04 f301 	mul.w	r3, r4, r1
 80018a6:	1400      	asrs	r0, r0, #16
 80018a8:	fb05 3310 	mls	r3, r5, r0, r3
 80018ac:	13db      	asrs	r3, r3, #15
 80018ae:	f5b3 4f00 	cmp.w	r3, #32768	; 0x8000
 80018b2:	da04      	bge.n	80018be <MCM_Park+0x2e>
 80018b4:	f513 4f00 	cmn.w	r3, #32768	; 0x8000
 80018b8:	da1e      	bge.n	80018f8 <MCM_Park+0x68>
 80018ba:	4a11      	ldr	r2, [pc, #68]	; (8001900 <MCM_Park+0x70>)
 80018bc:	e001      	b.n	80018c2 <MCM_Park+0x32>
 80018be:	f647 72ff 	movw	r2, #32767	; 0x7fff
 80018c2:	fb01 f105 	mul.w	r1, r1, r5
 80018c6:	fb04 1000 	mla	r0, r4, r0, r1
 80018ca:	13c0      	asrs	r0, r0, #15
 80018cc:	f5b0 4f00 	cmp.w	r0, #32768	; 0x8000
 80018d0:	da04      	bge.n	80018dc <MCM_Park+0x4c>
 80018d2:	f510 4f00 	cmn.w	r0, #32768	; 0x8000
 80018d6:	da0c      	bge.n	80018f2 <MCM_Park+0x62>
 80018d8:	4b09      	ldr	r3, [pc, #36]	; (8001900 <MCM_Park+0x70>)
 80018da:	e001      	b.n	80018e0 <MCM_Park+0x50>
 80018dc:	f647 73ff 	movw	r3, #32767	; 0x7fff
 80018e0:	b292      	uxth	r2, r2
 80018e2:	2000      	movs	r0, #0
 80018e4:	b29b      	uxth	r3, r3
 80018e6:	f362 000f 	bfi	r0, r2, #0, #16
 80018ea:	f363 401f 	bfi	r0, r3, #16, #16
 80018ee:	b005      	add	sp, #20
 80018f0:	bd30      	pop	{r4, r5, pc}
 80018f2:	b203      	sxth	r3, r0
 80018f4:	d1f4      	bne.n	80018e0 <MCM_Park+0x50>
 80018f6:	e7ef      	b.n	80018d8 <MCM_Park+0x48>
 80018f8:	b21a      	sxth	r2, r3
 80018fa:	d1e2      	bne.n	80018c2 <MCM_Park+0x32>
 80018fc:	e7dd      	b.n	80018ba <MCM_Park+0x2a>
 80018fe:	bf00      	nop
 8001900:	ffff8001 	.word	0xffff8001

08001904 <MCM_Rev_Park>:
 8001904:	b530      	push	{r4, r5, lr}
 8001906:	b085      	sub	sp, #20
 8001908:	b204      	sxth	r4, r0
 800190a:	1405      	asrs	r5, r0, #16
 800190c:	9001      	str	r0, [sp, #4]
 800190e:	4608      	mov	r0, r1
 8001910:	f7ff ffa6 	bl	8001860 <MCM_Trig_Functions>
 8001914:	1403      	asrs	r3, r0, #16
 8001916:	fb05 f203 	mul.w	r2, r5, r3
 800191a:	b200      	sxth	r0, r0
 800191c:	fb04 2200 	mla	r2, r4, r0, r2
 8001920:	fb00 f005 	mul.w	r0, r0, r5
 8001924:	fb04 0313 	mls	r3, r4, r3, r0
 8001928:	f3c2 32cf 	ubfx	r2, r2, #15, #16
 800192c:	2000      	movs	r0, #0
 800192e:	f3c3 33cf 	ubfx	r3, r3, #15, #16
 8001932:	f362 000f 	bfi	r0, r2, #0, #16
 8001936:	f363 401f 	bfi	r0, r3, #16, #16
 800193a:	b005      	add	sp, #20
 800193c:	bd30      	pop	{r4, r5, pc}
 800193e:	bf00      	nop

08001940 <FOC_Clear>:
 8001940:	b5f8      	push	{r3, r4, r5, r6, r7, lr}
 8001942:	eb00 03c0 	add.w	r3, r0, r0, lsl #3
 8001946:	4a18      	ldr	r2, [pc, #96]	; (80019a8 <FOC_Clear+0x68>)
 8001948:	eb00 0343 	add.w	r3, r0, r3, lsl #1
 800194c:	005b      	lsls	r3, r3, #1
 800194e:	2400      	movs	r4, #0
 8001950:	189f      	adds	r7, r3, r2
 8001952:	f103 060c 	add.w	r6, r3, #12
 8001956:	509c      	str	r4, [r3, r2]
 8001958:	4605      	mov	r5, r0
 800195a:	f103 0116 	add.w	r1, r3, #22
 800195e:	2326      	movs	r3, #38	; 0x26
 8001960:	607c      	str	r4, [r7, #4]
 8001962:	fb03 2305 	mla	r3, r3, r5, r2
 8001966:	50b4      	str	r4, [r6, r2]
 8001968:	18b7      	adds	r7, r6, r2
 800196a:	4810      	ldr	r0, [pc, #64]	; (80019ac <FOC_Clear+0x6c>)
 800196c:	607c      	str	r4, [r7, #4]
 800196e:	188e      	adds	r6, r1, r2
 8001970:	83dc      	strh	r4, [r3, #30]
 8001972:	f850 0025 	ldr.w	r0, [r0, r5, lsl #2]
 8001976:	508c      	str	r4, [r1, r2]
 8001978:	4621      	mov	r1, r4
 800197a:	6074      	str	r4, [r6, #4]
 800197c:	841c      	strh	r4, [r3, #32]
 800197e:	f007 fc17 	bl	80091b0 <PID_SetIntegralTerm>
 8001982:	4b0b      	ldr	r3, [pc, #44]	; (80019b0 <FOC_Clear+0x70>)
 8001984:	4621      	mov	r1, r4
 8001986:	f853 0025 	ldr.w	r0, [r3, r5, lsl #2]
 800198a:	f007 fc11 	bl	80091b0 <PID_SetIntegralTerm>
 800198e:	4b09      	ldr	r3, [pc, #36]	; (80019b4 <FOC_Clear+0x74>)
 8001990:	f853 0025 	ldr.w	r0, [r3, r5, lsl #2]
 8001994:	f008 fe54 	bl	800a640 <STC_Clear>
 8001998:	4b07      	ldr	r3, [pc, #28]	; (80019b8 <FOC_Clear+0x78>)
 800199a:	f853 0025 	ldr.w	r0, [r3, r5, lsl #2]
 800199e:	e8bd 40f8 	ldmia.w	sp!, {r3, r4, r5, r6, r7, lr}
 80019a2:	f007 bdf9 	b.w	8009598 <PWMC_SwitchOffPWM>
 80019a6:	bf00      	nop
 80019a8:	20000bd4 	.word	0x20000bd4
 80019ac:	20000bc8 	.word	0x20000bc8
 80019b0:	20000c84 	.word	0x20000c84
 80019b4:	20000c88 	.word	0x20000c88
 80019b8:	20000bbc 	.word	0x20000bbc

080019bc <MCboot>:
 80019bc:	e92d 4ff0 	stmdb	sp!, {r4, r5, r6, r7, r8, r9, sl, fp, lr}
 80019c0:	b087      	sub	sp, #28
 80019c2:	4c61      	ldr	r4, [pc, #388]	; (8001b48 <MCboot+0x18c>)
 80019c4:	9001      	str	r0, [sp, #4]
 80019c6:	4861      	ldr	r0, [pc, #388]	; (8001b4c <MCboot+0x190>)
 80019c8:	9102      	str	r1, [sp, #8]
 80019ca:	f008 fef1 	bl	800a7b0 <STM_Init>
 80019ce:	4b60      	ldr	r3, [pc, #384]	; (8001b50 <MCboot+0x194>)
 80019d0:	4960      	ldr	r1, [pc, #384]	; (8001b54 <MCboot+0x198>)
 80019d2:	4861      	ldr	r0, [pc, #388]	; (8001b58 <MCboot+0x19c>)
 80019d4:	4a61      	ldr	r2, [pc, #388]	; (8001b5c <MCboot+0x1a0>)
 80019d6:	6020      	str	r0, [r4, #0]
 80019d8:	2400      	movs	r4, #0
 80019da:	f8df a1d0 	ldr.w	sl, [pc, #464]	; 8001bac <MCboot+0x1f0>
 80019de:	700c      	strb	r4, [r1, #0]
 80019e0:	601a      	str	r2, [r3, #0]
 80019e2:	f008 f89f 	bl	8009b24 <R3_2_Init>
 80019e6:	f007 fc69 	bl	80092bc <startTimers>
 80019ea:	485d      	ldr	r0, [pc, #372]	; (8001b60 <MCboot+0x1a4>)
 80019ec:	4d5d      	ldr	r5, [pc, #372]	; (8001b64 <MCboot+0x1a8>)
 80019ee:	f8df 91c0 	ldr.w	r9, [pc, #448]	; 8001bb0 <MCboot+0x1f4>
 80019f2:	f8df 81c0 	ldr.w	r8, [pc, #448]	; 8001bb4 <MCboot+0x1f8>
 80019f6:	4f5c      	ldr	r7, [pc, #368]	; (8001b68 <MCboot+0x1ac>)
 80019f8:	f8df b1bc 	ldr.w	fp, [pc, #444]	; 8001bb8 <MCboot+0x1fc>
 80019fc:	4e5b      	ldr	r6, [pc, #364]	; (8001b6c <MCboot+0x1b0>)
 80019fe:	f007 fbc3 	bl	8009188 <PID_HandleInit>
 8001a02:	4a5b      	ldr	r2, [pc, #364]	; (8001b70 <MCboot+0x1b4>)
 8001a04:	4b5b      	ldr	r3, [pc, #364]	; (8001b74 <MCboot+0x1b8>)
 8001a06:	4956      	ldr	r1, [pc, #344]	; (8001b60 <MCboot+0x1a4>)
 8001a08:	6011      	str	r1, [r2, #0]
 8001a0a:	4650      	mov	r0, sl
 8001a0c:	602b      	str	r3, [r5, #0]
 8001a0e:	f007 f9ab 	bl	8008d68 <ENC_Init>
 8001a12:	4653      	mov	r3, sl
 8001a14:	6829      	ldr	r1, [r5, #0]
 8001a16:	4858      	ldr	r0, [pc, #352]	; (8001b78 <MCboot+0x1bc>)
 8001a18:	464a      	mov	r2, r9
 8001a1a:	f007 f955 	bl	8008cc8 <EAC_Init>
 8001a1e:	4a54      	ldr	r2, [pc, #336]	; (8001b70 <MCboot+0x1b4>)
 8001a20:	4b56      	ldr	r3, [pc, #344]	; (8001b7c <MCboot+0x1c0>)
 8001a22:	6811      	ldr	r1, [r2, #0]
 8001a24:	4a54      	ldr	r2, [pc, #336]	; (8001b78 <MCboot+0x1bc>)
 8001a26:	601a      	str	r2, [r3, #0]
 8001a28:	6828      	ldr	r0, [r5, #0]
 8001a2a:	4652      	mov	r2, sl
 8001a2c:	f008 fdf0 	bl	800a610 <STC_Init>
 8001a30:	4648      	mov	r0, r9
 8001a32:	f009 f8c3 	bl	800abbc <VSS_Init>
 8001a36:	4640      	mov	r0, r8
 8001a38:	f007 fba6 	bl	8009188 <PID_HandleInit>
 8001a3c:	4638      	mov	r0, r7
 8001a3e:	f007 fba3 	bl	8009188 <PID_HandleInit>
 8001a42:	4b4f      	ldr	r3, [pc, #316]	; (8001b80 <MCboot+0x1c4>)
 8001a44:	484f      	ldr	r0, [pc, #316]	; (8001b84 <MCboot+0x1c8>)
 8001a46:	4950      	ldr	r1, [pc, #320]	; (8001b88 <MCboot+0x1cc>)
 8001a48:	f8c0 8000 	str.w	r8, [r0]
 8001a4c:	4618      	mov	r0, r3
 8001a4e:	600f      	str	r7, [r1, #0]
 8001a50:	f8cb 3000 	str.w	r3, [fp]
 8001a54:	f008 fd40 	bl	800a4d8 <RVBS_Init>
 8001a58:	494c      	ldr	r1, [pc, #304]	; (8001b8c <MCboot+0x1d0>)
 8001a5a:	4b4d      	ldr	r3, [pc, #308]	; (8001b90 <MCboot+0x1d4>)
 8001a5c:	4f4d      	ldr	r7, [pc, #308]	; (8001b94 <MCboot+0x1d8>)
 8001a5e:	f8db 2000 	ldr.w	r2, [fp]
 8001a62:	600b      	str	r3, [r1, #0]
 8001a64:	4630      	mov	r0, r6
 8001a66:	f8c3 2110 	str.w	r2, [r3, #272]	; 0x110
 8001a6a:	f8c3 710c 	str.w	r7, [r3, #268]	; 0x10c
 8001a6e:	f007 fb45 	bl	80090fc <NTC_Init>
 8001a72:	4b49      	ldr	r3, [pc, #292]	; (8001b98 <MCboot+0x1dc>)
 8001a74:	4a49      	ldr	r2, [pc, #292]	; (8001b9c <MCboot+0x1e0>)
 8001a76:	f8df 8144 	ldr.w	r8, [pc, #324]	; 8001bbc <MCboot+0x200>
 8001a7a:	6013      	str	r3, [r2, #0]
 8001a7c:	4618      	mov	r0, r3
 8001a7e:	f8c8 6000 	str.w	r6, [r8]
 8001a82:	f04f 0901 	mov.w	r9, #1
 8001a86:	f008 fd75 	bl	800a574 <REMNG_Init>
 8001a8a:	4620      	mov	r0, r4
 8001a8c:	f7ff ff58 	bl	8001940 <FOC_Clear>
 8001a90:	f887 9024 	strb.w	r9, [r7, #36]	; 0x24
 8001a94:	6828      	ldr	r0, [r5, #0]
 8001a96:	4e42      	ldr	r6, [pc, #264]	; (8001ba0 <MCboot+0x1e4>)
 8001a98:	f008 fe76 	bl	800a788 <STC_GetDefaultIqdref>
 8001a9c:	4603      	mov	r3, r0
 8001a9e:	f3c0 420f 	ubfx	r2, r0, #16, #16
 8001aa2:	823b      	strh	r3, [r7, #16]
 8001aa4:	827a      	strh	r2, [r7, #18]
 8001aa6:	6828      	ldr	r0, [r5, #0]
 8001aa8:	f008 fe6e 	bl	800a788 <STC_GetDefaultIqdref>
 8001aac:	493d      	ldr	r1, [pc, #244]	; (8001ba4 <MCboot+0x1e8>)
 8001aae:	682a      	ldr	r2, [r5, #0]
 8001ab0:	6031      	str	r1, [r6, #0]
 8001ab2:	f3c0 4c0f 	ubfx	ip, r0, #16, #16
 8001ab6:	463b      	mov	r3, r7
 8001ab8:	f8a7 c014 	strh.w	ip, [r7, #20]
 8001abc:	4608      	mov	r0, r1
 8001abe:	4923      	ldr	r1, [pc, #140]	; (8001b4c <MCboot+0x190>)
 8001ac0:	f7ff fdc4 	bl	800164c <MCI_Init>
 8001ac4:	6828      	ldr	r0, [r5, #0]
 8001ac6:	6837      	ldr	r7, [r6, #0]
 8001ac8:	f008 fe54 	bl	800a774 <STC_GetMecSpeedRefUnitDefault>
 8001acc:	4622      	mov	r2, r4
 8001ace:	4601      	mov	r1, r0
 8001ad0:	4638      	mov	r0, r7
 8001ad2:	f7ff fdc9 	bl	8001668 <MCI_ExecSpeedRamp>
 8001ad6:	4a26      	ldr	r2, [pc, #152]	; (8001b70 <MCboot+0x1b4>)
 8001ad8:	6837      	ldr	r7, [r6, #0]
 8001ada:	9700      	str	r7, [sp, #0]
 8001adc:	6817      	ldr	r7, [r2, #0]
 8001ade:	4a2a      	ldr	r2, [pc, #168]	; (8001b88 <MCboot+0x1cc>)
 8001ae0:	4e28      	ldr	r6, [pc, #160]	; (8001b84 <MCboot+0x1c8>)
 8001ae2:	6810      	ldr	r0, [r2, #0]
 8001ae4:	4a18      	ldr	r2, [pc, #96]	; (8001b48 <MCboot+0x18c>)
 8001ae6:	4b30      	ldr	r3, [pc, #192]	; (8001ba8 <MCboot+0x1ec>)
 8001ae8:	6811      	ldr	r1, [r2, #0]
 8001aea:	682a      	ldr	r2, [r5, #0]
 8001aec:	9203      	str	r2, [sp, #12]
 8001aee:	4a27      	ldr	r2, [pc, #156]	; (8001b8c <MCboot+0x1d0>)
 8001af0:	f8d8 5000 	ldr.w	r5, [r8]
 8001af4:	f8d2 e000 	ldr.w	lr, [r2]
 8001af8:	9a01      	ldr	r2, [sp, #4]
 8001afa:	6836      	ldr	r6, [r6, #0]
 8001afc:	f8db c000 	ldr.w	ip, [fp]
 8001b00:	4690      	mov	r8, r2
 8001b02:	9a00      	ldr	r2, [sp, #0]
 8001b04:	f8c8 2000 	str.w	r2, [r8]
 8001b08:	9a03      	ldr	r2, [sp, #12]
 8001b0a:	625a      	str	r2, [r3, #36]	; 0x24
 8001b0c:	4a0f      	ldr	r2, [pc, #60]	; (8001b4c <MCboot+0x190>)
 8001b0e:	6119      	str	r1, [r3, #16]
 8001b10:	629a      	str	r2, [r3, #40]	; 0x28
 8001b12:	e9c3 7600 	strd	r7, r6, [r3]
 8001b16:	6098      	str	r0, [r3, #8]
 8001b18:	e9c3 5c0b 	strd	r5, ip, [r3, #44]	; 0x2c
 8001b1c:	f8c3 e03c 	str.w	lr, [r3, #60]	; 0x3c
 8001b20:	60dc      	str	r4, [r3, #12]
 8001b22:	e9c3 4a05 	strd	r4, sl, [r3, #20]
 8001b26:	e9c3 4407 	strd	r4, r4, [r3, #28]
 8001b2a:	e9c3 440d 	strd	r4, r4, [r3, #52]	; 0x34
 8001b2e:	4909      	ldr	r1, [pc, #36]	; (8001b54 <MCboot+0x198>)
 8001b30:	e9c3 4410 	strd	r4, r4, [r3, #64]	; 0x40
 8001b34:	9a02      	ldr	r2, [sp, #8]
 8001b36:	651c      	str	r4, [r3, #80]	; 0x50
 8001b38:	e9c3 4412 	strd	r4, r4, [r3, #72]	; 0x48
 8001b3c:	6013      	str	r3, [r2, #0]
 8001b3e:	f881 9000 	strb.w	r9, [r1]
 8001b42:	b007      	add	sp, #28
 8001b44:	e8bd 8ff0 	ldmia.w	sp!, {r4, r5, r6, r7, r8, r9, sl, fp, pc}
 8001b48:	20000bbc 	.word	0x20000bbc
 8001b4c:	20000c74 	.word	0x20000c74
 8001b50:	20000c50 	.word	0x20000c50
 8001b54:	2000062c 	.word	0x2000062c
 8001b58:	20000320 	.word	0x20000320
 8001b5c:	20000000 	.word	0x20000000
 8001b60:	200001e0 	.word	0x200001e0
 8001b64:	20000c88 	.word	0x20000c88
 8001b68:	20000188 	.word	0x20000188
 8001b6c:	2000040c 	.word	0x2000040c
 8001b70:	20000bc0 	.word	0x20000bc0
 8001b74:	200003d8 	.word	0x200003d8
 8001b78:	2000016c 	.word	0x2000016c
 8001b7c:	20000bc4 	.word	0x20000bc4
 8001b80:	200003b0 	.word	0x200003b0
 8001b84:	20000bc8 	.word	0x20000bc8
 8001b88:	20000c84 	.word	0x20000c84
 8001b8c:	20000c80 	.word	0x20000c80
 8001b90:	2000020c 	.word	0x2000020c
 8001b94:	20000bd4 	.word	0x20000bd4
 8001b98:	20000398 	.word	0x20000398
 8001b9c:	20000c7c 	.word	0x20000c7c
 8001ba0:	20000bcc 	.word	0x20000bcc
 8001ba4:	20000c58 	.word	0x20000c58
 8001ba8:	20000bfc 	.word	0x20000bfc
 8001bac:	200000f0 	.word	0x200000f0
 8001bb0:	20000464 	.word	0x20000464
 8001bb4:	200001b4 	.word	0x200001b4
 8001bb8:	20000c54 	.word	0x20000c54
 8001bbc:	20000bb8 	.word	0x20000bb8

08001bc0 <FOC_InitAdditionalMethods>:
 8001bc0:	4770      	bx	lr
 8001bc2:	bf00      	nop

08001bc4 <FOC_CalcCurrRef>:
 8001bc4:	4b08      	ldr	r3, [pc, #32]	; (8001be8 <FOC_CalcCurrRef+0x24>)
 8001bc6:	b510      	push	{r4, lr}
 8001bc8:	2426      	movs	r4, #38	; 0x26
 8001bca:	fb04 3400 	mla	r4, r4, r0, r3
 8001bce:	f894 3024 	ldrb.w	r3, [r4, #36]	; 0x24
 8001bd2:	b103      	cbz	r3, 8001bd6 <FOC_CalcCurrRef+0x12>
 8001bd4:	bd10      	pop	{r4, pc}
 8001bd6:	4b05      	ldr	r3, [pc, #20]	; (8001bec <FOC_CalcCurrRef+0x28>)
 8001bd8:	f853 0020 	ldr.w	r0, [r3, r0, lsl #2]
 8001bdc:	f008 fd9a 	bl	800a714 <STC_CalcTorqueReference>
 8001be0:	83e0      	strh	r0, [r4, #30]
 8001be2:	8220      	strh	r0, [r4, #16]
 8001be4:	bd10      	pop	{r4, pc}
 8001be6:	bf00      	nop
 8001be8:	20000bd4 	.word	0x20000bd4
 8001bec:	20000c88 	.word	0x20000c88

08001bf0 <TSK_SetChargeBootCapDelayM1>:
 8001bf0:	4b01      	ldr	r3, [pc, #4]	; (8001bf8 <TSK_SetChargeBootCapDelayM1+0x8>)
 8001bf2:	8018      	strh	r0, [r3, #0]
 8001bf4:	4770      	bx	lr
 8001bf6:	bf00      	nop
 8001bf8:	2000062e 	.word	0x2000062e

08001bfc <TSK_ChargeBootCapDelayHasElapsedM1>:
 8001bfc:	4b03      	ldr	r3, [pc, #12]	; (8001c0c <TSK_ChargeBootCapDelayHasElapsedM1+0x10>)
 8001bfe:	8818      	ldrh	r0, [r3, #0]
 8001c00:	b280      	uxth	r0, r0
 8001c02:	fab0 f080 	clz	r0, r0
 8001c06:	0940      	lsrs	r0, r0, #5
 8001c08:	4770      	bx	lr
 8001c0a:	bf00      	nop
 8001c0c:	2000062e 	.word	0x2000062e

08001c10 <TSK_SetStopPermanencyTimeM1>:
 8001c10:	4b01      	ldr	r3, [pc, #4]	; (8001c18 <TSK_SetStopPermanencyTimeM1+0x8>)
 8001c12:	8018      	strh	r0, [r3, #0]
 8001c14:	4770      	bx	lr
 8001c16:	bf00      	nop
 8001c18:	20000632 	.word	0x20000632

08001c1c <TSK_StopPermanencyTimeHasElapsedM1>:
 8001c1c:	4b03      	ldr	r3, [pc, #12]	; (8001c2c <TSK_StopPermanencyTimeHasElapsedM1+0x10>)
 8001c1e:	8818      	ldrh	r0, [r3, #0]
 8001c20:	b280      	uxth	r0, r0
 8001c22:	fab0 f080 	clz	r0, r0
 8001c26:	0940      	lsrs	r0, r0, #5
 8001c28:	4770      	bx	lr
 8001c2a:	bf00      	nop
 8001c2c:	20000632 	.word	0x20000632

08001c30 <TSK_MediumFrequencyTaskM1>:
 8001c30:	b510      	push	{r4, lr}
 8001c32:	b082      	sub	sp, #8
 8001c34:	a902      	add	r1, sp, #8
 8001c36:	2300      	movs	r3, #0
 8001c38:	4c8c      	ldr	r4, [pc, #560]	; (8001e6c <TSK_MediumFrequencyTaskM1+0x23c>)
 8001c3a:	f821 3d02 	strh.w	r3, [r1, #-2]!
 8001c3e:	488c      	ldr	r0, [pc, #560]	; (8001e70 <TSK_MediumFrequencyTaskM1+0x240>)
 8001c40:	f007 f902 	bl	8008e48 <ENC_CalcAvrgMecSpeedUnit>
 8001c44:	6820      	ldr	r0, [r4, #0]
 8001c46:	f007 fb03 	bl	8009250 <PQD_CalcElMotorPower>
 8001c4a:	488a      	ldr	r0, [pc, #552]	; (8001e74 <TSK_MediumFrequencyTaskM1+0x244>)
 8001c4c:	f008 fe44 	bl	800a8d8 <STM_GetState>
 8001c50:	2812      	cmp	r0, #18
 8001c52:	d818      	bhi.n	8001c86 <TSK_MediumFrequencyTaskM1+0x56>
 8001c54:	e8df f010 	tbh	[pc, r0, lsl #1]
 8001c58:	0038002a 	.word	0x0038002a
 8001c5c:	00530044 	.word	0x00530044
 8001c60:	00670062 	.word	0x00670062
 8001c64:	0082007a 	.word	0x0082007a
 8001c68:	00130095 	.word	0x00130095
 8001c6c:	00170017 	.word	0x00170017
 8001c70:	009f0017 	.word	0x009f0017
 8001c74:	00bb00ae 	.word	0x00bb00ae
 8001c78:	00de00cf 	.word	0x00de00cf
 8001c7c:	0019      	.short	0x0019
 8001c7e:	2100      	movs	r1, #0
 8001c80:	487c      	ldr	r0, [pc, #496]	; (8001e74 <TSK_MediumFrequencyTaskM1+0x244>)
 8001c82:	f008 fdb5 	bl	800a7f0 <STM_NextState>
 8001c86:	b002      	add	sp, #8
 8001c88:	bd10      	pop	{r4, pc}
 8001c8a:	4879      	ldr	r0, [pc, #484]	; (8001e70 <TSK_MediumFrequencyTaskM1+0x240>)
 8001c8c:	f007 f8aa 	bl	8008de4 <ENC_Clear>
 8001c90:	2104      	movs	r1, #4
 8001c92:	4878      	ldr	r0, [pc, #480]	; (8001e74 <TSK_MediumFrequencyTaskM1+0x244>)
 8001c94:	f008 fdac 	bl	800a7f0 <STM_NextState>
 8001c98:	2800      	cmp	r0, #0
 8001c9a:	d0f4      	beq.n	8001c86 <TSK_MediumFrequencyTaskM1+0x56>
 8001c9c:	2000      	movs	r0, #0
 8001c9e:	f7ff fe4f 	bl	8001940 <FOC_Clear>
 8001ca2:	4b75      	ldr	r3, [pc, #468]	; (8001e78 <TSK_MediumFrequencyTaskM1+0x248>)
 8001ca4:	6818      	ldr	r0, [r3, #0]
 8001ca6:	f007 fe2b 	bl	8009900 <R3_2_SwitchOnPWM>
 8001caa:	e7ec      	b.n	8001c86 <TSK_MediumFrequencyTaskM1+0x56>
 8001cac:	4873      	ldr	r0, [pc, #460]	; (8001e7c <TSK_MediumFrequencyTaskM1+0x24c>)
 8001cae:	f007 f859 	bl	8008d64 <EAC_GetRestartState>
 8001cb2:	2800      	cmp	r0, #0
 8001cb4:	d0e7      	beq.n	8001c86 <TSK_MediumFrequencyTaskM1+0x56>
 8001cb6:	2100      	movs	r1, #0
 8001cb8:	4870      	ldr	r0, [pc, #448]	; (8001e7c <TSK_MediumFrequencyTaskM1+0x24c>)
 8001cba:	f007 f851 	bl	8008d60 <EAC_SetRestartState>
 8001cbe:	2103      	movs	r1, #3
 8001cc0:	486c      	ldr	r0, [pc, #432]	; (8001e74 <TSK_MediumFrequencyTaskM1+0x244>)
 8001cc2:	f008 fd95 	bl	800a7f0 <STM_NextState>
 8001cc6:	e7de      	b.n	8001c86 <TSK_MediumFrequencyTaskM1+0x56>
 8001cc8:	4b6b      	ldr	r3, [pc, #428]	; (8001e78 <TSK_MediumFrequencyTaskM1+0x248>)
 8001cca:	6818      	ldr	r0, [r3, #0]
 8001ccc:	f007 fdf0 	bl	80098b0 <R3_2_TurnOnLowSides>
 8001cd0:	2014      	movs	r0, #20
 8001cd2:	f7ff ff8d 	bl	8001bf0 <TSK_SetChargeBootCapDelayM1>
 8001cd6:	210d      	movs	r1, #13
 8001cd8:	4866      	ldr	r0, [pc, #408]	; (8001e74 <TSK_MediumFrequencyTaskM1+0x244>)
 8001cda:	f008 fd89 	bl	800a7f0 <STM_NextState>
 8001cde:	e7d2      	b.n	8001c86 <TSK_MediumFrequencyTaskM1+0x56>
 8001ce0:	4866      	ldr	r0, [pc, #408]	; (8001e7c <TSK_MediumFrequencyTaskM1+0x24c>)
 8001ce2:	f007 f823 	bl	8008d2c <EAC_Exec>
 8001ce6:	4604      	mov	r4, r0
 8001ce8:	2800      	cmp	r0, #0
 8001cea:	f040 80ac 	bne.w	8001e46 <TSK_MediumFrequencyTaskM1+0x216>
 8001cee:	4b64      	ldr	r3, [pc, #400]	; (8001e80 <TSK_MediumFrequencyTaskM1+0x250>)
 8001cf0:	6818      	ldr	r0, [r3, #0]
 8001cf2:	f008 fd0f 	bl	800a714 <STC_CalcTorqueReference>
 8001cf6:	4b63      	ldr	r3, [pc, #396]	; (8001e84 <TSK_MediumFrequencyTaskM1+0x254>)
 8001cf8:	8258      	strh	r0, [r3, #18]
 8001cfa:	821c      	strh	r4, [r3, #16]
 8001cfc:	e7c3      	b.n	8001c86 <TSK_MediumFrequencyTaskM1+0x56>
 8001cfe:	485f      	ldr	r0, [pc, #380]	; (8001e7c <TSK_MediumFrequencyTaskM1+0x24c>)
 8001d00:	f007 f82c 	bl	8008d5c <EAC_IsAligned>
 8001d04:	2800      	cmp	r0, #0
 8001d06:	f040 8092 	bne.w	8001e2e <TSK_MediumFrequencyTaskM1+0x1fe>
 8001d0a:	2101      	movs	r1, #1
 8001d0c:	485b      	ldr	r0, [pc, #364]	; (8001e7c <TSK_MediumFrequencyTaskM1+0x24c>)
 8001d0e:	f007 f827 	bl	8008d60 <EAC_SetRestartState>
 8001d12:	2101      	movs	r1, #1
 8001d14:	4857      	ldr	r0, [pc, #348]	; (8001e74 <TSK_MediumFrequencyTaskM1+0x244>)
 8001d16:	f008 fd6b 	bl	800a7f0 <STM_NextState>
 8001d1a:	e7b4      	b.n	8001c86 <TSK_MediumFrequencyTaskM1+0x56>
 8001d1c:	2105      	movs	r1, #5
 8001d1e:	4855      	ldr	r0, [pc, #340]	; (8001e74 <TSK_MediumFrequencyTaskM1+0x244>)
 8001d20:	f008 fd66 	bl	800a7f0 <STM_NextState>
 8001d24:	e7af      	b.n	8001c86 <TSK_MediumFrequencyTaskM1+0x56>
 8001d26:	2000      	movs	r0, #0
 8001d28:	f7ff ff4a 	bl	8001bc0 <FOC_InitAdditionalMethods>
 8001d2c:	2000      	movs	r0, #0
 8001d2e:	f7ff ff49 	bl	8001bc4 <FOC_CalcCurrRef>
 8001d32:	2106      	movs	r1, #6
 8001d34:	484f      	ldr	r0, [pc, #316]	; (8001e74 <TSK_MediumFrequencyTaskM1+0x244>)
 8001d36:	f008 fd5b 	bl	800a7f0 <STM_NextState>
 8001d3a:	4b51      	ldr	r3, [pc, #324]	; (8001e80 <TSK_MediumFrequencyTaskM1+0x250>)
 8001d3c:	6818      	ldr	r0, [r3, #0]
 8001d3e:	f008 fd2f 	bl	800a7a0 <STC_ForceSpeedReferenceToCurrentSpeed>
 8001d42:	4b51      	ldr	r3, [pc, #324]	; (8001e88 <TSK_MediumFrequencyTaskM1+0x258>)
 8001d44:	6818      	ldr	r0, [r3, #0]
 8001d46:	f7ff fcc7 	bl	80016d8 <MCI_ExecBufferedCommands>
 8001d4a:	e79c      	b.n	8001c86 <TSK_MediumFrequencyTaskM1+0x56>
 8001d4c:	4b4e      	ldr	r3, [pc, #312]	; (8001e88 <TSK_MediumFrequencyTaskM1+0x258>)
 8001d4e:	6818      	ldr	r0, [r3, #0]
 8001d50:	f7ff fcc2 	bl	80016d8 <MCI_ExecBufferedCommands>
 8001d54:	2000      	movs	r0, #0
 8001d56:	f7ff ff35 	bl	8001bc4 <FOC_CalcCurrRef>
 8001d5a:	e794      	b.n	8001c86 <TSK_MediumFrequencyTaskM1+0x56>
 8001d5c:	4b46      	ldr	r3, [pc, #280]	; (8001e78 <TSK_MediumFrequencyTaskM1+0x248>)
 8001d5e:	6818      	ldr	r0, [r3, #0]
 8001d60:	f007 fe12 	bl	8009988 <R3_2_SwitchOffPWM>
 8001d64:	2000      	movs	r0, #0
 8001d66:	f7ff fdeb 	bl	8001940 <FOC_Clear>
 8001d6a:	6820      	ldr	r0, [r4, #0]
 8001d6c:	f007 f986 	bl	800907c <MPM_Clear>
 8001d70:	f44f 7048 	mov.w	r0, #800	; 0x320
 8001d74:	f7ff ff4c 	bl	8001c10 <TSK_SetStopPermanencyTimeM1>
 8001d78:	2108      	movs	r1, #8
 8001d7a:	483e      	ldr	r0, [pc, #248]	; (8001e74 <TSK_MediumFrequencyTaskM1+0x244>)
 8001d7c:	f008 fd38 	bl	800a7f0 <STM_NextState>
 8001d80:	e781      	b.n	8001c86 <TSK_MediumFrequencyTaskM1+0x56>
 8001d82:	f7ff ff4b 	bl	8001c1c <TSK_StopPermanencyTimeHasElapsedM1>
 8001d86:	2800      	cmp	r0, #0
 8001d88:	f43f af7d 	beq.w	8001c86 <TSK_MediumFrequencyTaskM1+0x56>
 8001d8c:	2109      	movs	r1, #9
 8001d8e:	4839      	ldr	r0, [pc, #228]	; (8001e74 <TSK_MediumFrequencyTaskM1+0x244>)
 8001d90:	f008 fd2e 	bl	800a7f0 <STM_NextState>
 8001d94:	e777      	b.n	8001c86 <TSK_MediumFrequencyTaskM1+0x56>
 8001d96:	f7ff ff31 	bl	8001bfc <TSK_ChargeBootCapDelayHasElapsedM1>
 8001d9a:	2800      	cmp	r0, #0
 8001d9c:	f43f af73 	beq.w	8001c86 <TSK_MediumFrequencyTaskM1+0x56>
 8001da0:	4b35      	ldr	r3, [pc, #212]	; (8001e78 <TSK_MediumFrequencyTaskM1+0x248>)
 8001da2:	2100      	movs	r1, #0
 8001da4:	6818      	ldr	r0, [r3, #0]
 8001da6:	f007 fbf9 	bl	800959c <PWMC_CurrentReadingCalibr>
 8001daa:	210e      	movs	r1, #14
 8001dac:	4831      	ldr	r0, [pc, #196]	; (8001e74 <TSK_MediumFrequencyTaskM1+0x244>)
 8001dae:	f008 fd1f 	bl	800a7f0 <STM_NextState>
 8001db2:	e768      	b.n	8001c86 <TSK_MediumFrequencyTaskM1+0x56>
 8001db4:	4b30      	ldr	r3, [pc, #192]	; (8001e78 <TSK_MediumFrequencyTaskM1+0x248>)
 8001db6:	2101      	movs	r1, #1
 8001db8:	6818      	ldr	r0, [r3, #0]
 8001dba:	f007 fbef 	bl	800959c <PWMC_CurrentReadingCalibr>
 8001dbe:	2800      	cmp	r0, #0
 8001dc0:	f43f af61 	beq.w	8001c86 <TSK_MediumFrequencyTaskM1+0x56>
 8001dc4:	210f      	movs	r1, #15
 8001dc6:	482b      	ldr	r0, [pc, #172]	; (8001e74 <TSK_MediumFrequencyTaskM1+0x244>)
 8001dc8:	f008 fd12 	bl	800a7f0 <STM_NextState>
 8001dcc:	e75b      	b.n	8001c86 <TSK_MediumFrequencyTaskM1+0x56>
 8001dce:	4a2c      	ldr	r2, [pc, #176]	; (8001e80 <TSK_MediumFrequencyTaskM1+0x250>)
 8001dd0:	4b2c      	ldr	r3, [pc, #176]	; (8001e84 <TSK_MediumFrequencyTaskM1+0x254>)
 8001dd2:	6810      	ldr	r0, [r2, #0]
 8001dd4:	492d      	ldr	r1, [pc, #180]	; (8001e8c <TSK_MediumFrequencyTaskM1+0x25c>)
 8001dd6:	2201      	movs	r2, #1
 8001dd8:	f883 2024 	strb.w	r2, [r3, #36]	; 0x24
 8001ddc:	f008 fc2c 	bl	800a638 <STC_SetSpeedSensor>
 8001de0:	4826      	ldr	r0, [pc, #152]	; (8001e7c <TSK_MediumFrequencyTaskM1+0x24c>)
 8001de2:	f006 ff7b 	bl	8008cdc <EAC_StartAlignment>
 8001de6:	2102      	movs	r1, #2
 8001de8:	4822      	ldr	r0, [pc, #136]	; (8001e74 <TSK_MediumFrequencyTaskM1+0x244>)
 8001dea:	f008 fd01 	bl	800a7f0 <STM_NextState>
 8001dee:	2800      	cmp	r0, #0
 8001df0:	f43f af49 	beq.w	8001c86 <TSK_MediumFrequencyTaskM1+0x56>
 8001df4:	e752      	b.n	8001c9c <TSK_MediumFrequencyTaskM1+0x6c>
 8001df6:	f7ff ff01 	bl	8001bfc <TSK_ChargeBootCapDelayHasElapsedM1>
 8001dfa:	2800      	cmp	r0, #0
 8001dfc:	f43f af43 	beq.w	8001c86 <TSK_MediumFrequencyTaskM1+0x56>
 8001e00:	4b1d      	ldr	r3, [pc, #116]	; (8001e78 <TSK_MediumFrequencyTaskM1+0x248>)
 8001e02:	2100      	movs	r1, #0
 8001e04:	6818      	ldr	r0, [r3, #0]
 8001e06:	f007 fbc9 	bl	800959c <PWMC_CurrentReadingCalibr>
 8001e0a:	2111      	movs	r1, #17
 8001e0c:	4819      	ldr	r0, [pc, #100]	; (8001e74 <TSK_MediumFrequencyTaskM1+0x244>)
 8001e0e:	f008 fcef 	bl	800a7f0 <STM_NextState>
 8001e12:	e738      	b.n	8001c86 <TSK_MediumFrequencyTaskM1+0x56>
 8001e14:	4b18      	ldr	r3, [pc, #96]	; (8001e78 <TSK_MediumFrequencyTaskM1+0x248>)
 8001e16:	2101      	movs	r1, #1
 8001e18:	6818      	ldr	r0, [r3, #0]
 8001e1a:	f007 fbbf 	bl	800959c <PWMC_CurrentReadingCalibr>
 8001e1e:	2800      	cmp	r0, #0
 8001e20:	f43f af31 	beq.w	8001c86 <TSK_MediumFrequencyTaskM1+0x56>
 8001e24:	2112      	movs	r1, #18
 8001e26:	4813      	ldr	r0, [pc, #76]	; (8001e74 <TSK_MediumFrequencyTaskM1+0x244>)
 8001e28:	f008 fce2 	bl	800a7f0 <STM_NextState>
 8001e2c:	e72b      	b.n	8001c86 <TSK_MediumFrequencyTaskM1+0x56>
 8001e2e:	4b12      	ldr	r3, [pc, #72]	; (8001e78 <TSK_MediumFrequencyTaskM1+0x248>)
 8001e30:	6818      	ldr	r0, [r3, #0]
 8001e32:	f007 fd3d 	bl	80098b0 <R3_2_TurnOnLowSides>
 8001e36:	2014      	movs	r0, #20
 8001e38:	f7ff feda 	bl	8001bf0 <TSK_SetChargeBootCapDelayM1>
 8001e3c:	2110      	movs	r1, #16
 8001e3e:	480d      	ldr	r0, [pc, #52]	; (8001e74 <TSK_MediumFrequencyTaskM1+0x244>)
 8001e40:	f008 fcd6 	bl	800a7f0 <STM_NextState>
 8001e44:	e71f      	b.n	8001c86 <TSK_MediumFrequencyTaskM1+0x56>
 8001e46:	4b0c      	ldr	r3, [pc, #48]	; (8001e78 <TSK_MediumFrequencyTaskM1+0x248>)
 8001e48:	4c0d      	ldr	r4, [pc, #52]	; (8001e80 <TSK_MediumFrequencyTaskM1+0x250>)
 8001e4a:	6818      	ldr	r0, [r3, #0]
 8001e4c:	f007 fd9c 	bl	8009988 <R3_2_SwitchOffPWM>
 8001e50:	6820      	ldr	r0, [r4, #0]
 8001e52:	2101      	movs	r1, #1
 8001e54:	f008 fc0c 	bl	800a670 <STC_SetControlMode>
 8001e58:	6820      	ldr	r0, [r4, #0]
 8001e5a:	4905      	ldr	r1, [pc, #20]	; (8001e70 <TSK_MediumFrequencyTaskM1+0x240>)
 8001e5c:	f008 fbec 	bl	800a638 <STC_SetSpeedSensor>
 8001e60:	2107      	movs	r1, #7
 8001e62:	4804      	ldr	r0, [pc, #16]	; (8001e74 <TSK_MediumFrequencyTaskM1+0x244>)
 8001e64:	f008 fcc4 	bl	800a7f0 <STM_NextState>
 8001e68:	e70d      	b.n	8001c86 <TSK_MediumFrequencyTaskM1+0x56>
 8001e6a:	bf00      	nop
 8001e6c:	20000c80 	.word	0x20000c80
 8001e70:	200000f0 	.word	0x200000f0
 8001e74:	20000c74 	.word	0x20000c74
 8001e78:	20000bbc 	.word	0x20000bbc
 8001e7c:	2000016c 	.word	0x2000016c
 8001e80:	20000c88 	.word	0x20000c88
 8001e84:	20000bd4 	.word	0x20000bd4
 8001e88:	20000bcc 	.word	0x20000bcc
 8001e8c:	20000464 	.word	0x20000464

08001e90 <MC_Scheduler>:
 8001e90:	b538      	push	{r3, r4, r5, lr}
 8001e92:	4b12      	ldr	r3, [pc, #72]	; (8001edc <MC_Scheduler+0x4c>)
 8001e94:	781c      	ldrb	r4, [r3, #0]
 8001e96:	2c01      	cmp	r4, #1
 8001e98:	d000      	beq.n	8001e9c <MC_Scheduler+0xc>
 8001e9a:	bd38      	pop	{r3, r4, r5, pc}
 8001e9c:	4d10      	ldr	r5, [pc, #64]	; (8001ee0 <MC_Scheduler+0x50>)
 8001e9e:	882b      	ldrh	r3, [r5, #0]
 8001ea0:	b29b      	uxth	r3, r3
 8001ea2:	b1b3      	cbz	r3, 8001ed2 <MC_Scheduler+0x42>
 8001ea4:	882b      	ldrh	r3, [r5, #0]
 8001ea6:	3b01      	subs	r3, #1
 8001ea8:	b29b      	uxth	r3, r3
 8001eaa:	802b      	strh	r3, [r5, #0]
 8001eac:	4a0d      	ldr	r2, [pc, #52]	; (8001ee4 <MC_Scheduler+0x54>)
 8001eae:	8813      	ldrh	r3, [r2, #0]
 8001eb0:	b29b      	uxth	r3, r3
 8001eb2:	b94b      	cbnz	r3, 8001ec8 <MC_Scheduler+0x38>
 8001eb4:	4a0c      	ldr	r2, [pc, #48]	; (8001ee8 <MC_Scheduler+0x58>)
 8001eb6:	8813      	ldrh	r3, [r2, #0]
 8001eb8:	b29b      	uxth	r3, r3
 8001eba:	2b00      	cmp	r3, #0
 8001ebc:	d0ed      	beq.n	8001e9a <MC_Scheduler+0xa>
 8001ebe:	8813      	ldrh	r3, [r2, #0]
 8001ec0:	3b01      	subs	r3, #1
 8001ec2:	b29b      	uxth	r3, r3
 8001ec4:	8013      	strh	r3, [r2, #0]
 8001ec6:	bd38      	pop	{r3, r4, r5, pc}
 8001ec8:	8813      	ldrh	r3, [r2, #0]
 8001eca:	3b01      	subs	r3, #1
 8001ecc:	b29b      	uxth	r3, r3
 8001ece:	8013      	strh	r3, [r2, #0]
 8001ed0:	e7f0      	b.n	8001eb4 <MC_Scheduler+0x24>
 8001ed2:	f7ff fead 	bl	8001c30 <TSK_MediumFrequencyTaskM1>
 8001ed6:	802c      	strh	r4, [r5, #0]
 8001ed8:	e7e8      	b.n	8001eac <MC_Scheduler+0x1c>
 8001eda:	bf00      	nop
 8001edc:	2000062c 	.word	0x2000062c
 8001ee0:	20000630 	.word	0x20000630
 8001ee4:	2000062e 	.word	0x2000062e
 8001ee8:	20000632 	.word	0x20000632

08001eec <TSK_HighFrequencyTask>:
 8001eec:	e92d 41f0 	stmdb	sp!, {r4, r5, r6, r7, r8, lr}
 8001ef0:	4831      	ldr	r0, [pc, #196]	; (8001fb8 <TSK_HighFrequencyTask+0xcc>)
 8001ef2:	4f32      	ldr	r7, [pc, #200]	; (8001fbc <TSK_HighFrequencyTask+0xd0>)
 8001ef4:	4c32      	ldr	r4, [pc, #200]	; (8001fc0 <TSK_HighFrequencyTask+0xd4>)
 8001ef6:	b086      	sub	sp, #24
 8001ef8:	f006 ff86 	bl	8008e08 <ENC_CalcAngle>
 8001efc:	4b31      	ldr	r3, [pc, #196]	; (8001fc4 <TSK_HighFrequencyTask+0xd8>)
 8001efe:	6818      	ldr	r0, [r3, #0]
 8001f00:	f008 fb9c 	bl	800a63c <STC_GetSpeedSensor>
 8001f04:	4605      	mov	r5, r0
 8001f06:	f008 fb3d 	bl	800a584 <SPD_GetElAngle>
 8001f0a:	a903      	add	r1, sp, #12
 8001f0c:	4606      	mov	r6, r0
 8001f0e:	6838      	ldr	r0, [r7, #0]
 8001f10:	f007 fa2c 	bl	800936c <PWMC_GetPhaseCurrents>
 8001f14:	9803      	ldr	r0, [sp, #12]
 8001f16:	f7ff fc7d 	bl	8001814 <MCM_Clarke>
 8001f1a:	4631      	mov	r1, r6
 8001f1c:	9004      	str	r0, [sp, #16]
 8001f1e:	f7ff fcb7 	bl	8001890 <MCM_Park>
 8001f22:	4b29      	ldr	r3, [pc, #164]	; (8001fc8 <TSK_HighFrequencyTask+0xdc>)
 8001f24:	f9b4 1010 	ldrsh.w	r1, [r4, #16]
 8001f28:	9001      	str	r0, [sp, #4]
 8001f2a:	b200      	sxth	r0, r0
 8001f2c:	1a09      	subs	r1, r1, r0
 8001f2e:	6818      	ldr	r0, [r3, #0]
 8001f30:	f007 f94a 	bl	80091c8 <PI_Controller>
 8001f34:	f9bd 2006 	ldrsh.w	r2, [sp, #6]
 8001f38:	4b24      	ldr	r3, [pc, #144]	; (8001fcc <TSK_HighFrequencyTask+0xe0>)
 8001f3a:	f9b4 1012 	ldrsh.w	r1, [r4, #18]
 8001f3e:	4680      	mov	r8, r0
 8001f40:	1a89      	subs	r1, r1, r2
 8001f42:	6818      	ldr	r0, [r3, #0]
 8001f44:	f007 f940 	bl	80091c8 <PI_Controller>
 8001f48:	4b21      	ldr	r3, [pc, #132]	; (8001fd0 <TSK_HighFrequencyTask+0xe4>)
 8001f4a:	f8ad 8008 	strh.w	r8, [sp, #8]
 8001f4e:	681b      	ldr	r3, [r3, #0]
 8001f50:	f8ad 000a 	strh.w	r0, [sp, #10]
 8001f54:	9902      	ldr	r1, [sp, #8]
 8001f56:	4618      	mov	r0, r3
 8001f58:	f006 fe72 	bl	8008c40 <Circle_Limitation>
 8001f5c:	4603      	mov	r3, r0
 8001f5e:	4628      	mov	r0, r5
 8001f60:	fa0f f883 	sxth.w	r8, r3
 8001f64:	141d      	asrs	r5, r3, #16
 8001f66:	9302      	str	r3, [sp, #8]
 8001f68:	f008 fb14 	bl	800a594 <SPD_GetInstElSpeedDpp>
 8001f6c:	4631      	mov	r1, r6
 8001f6e:	9802      	ldr	r0, [sp, #8]
 8001f70:	f7ff fcc8 	bl	8001904 <MCM_Rev_Park>
 8001f74:	4603      	mov	r3, r0
 8001f76:	4601      	mov	r1, r0
 8001f78:	6838      	ldr	r0, [r7, #0]
 8001f7a:	9305      	str	r3, [sp, #20]
 8001f7c:	f007 f9f8 	bl	8009370 <PWMC_SetPhaseVoltage>
 8001f80:	4601      	mov	r1, r0
 8001f82:	9803      	ldr	r0, [sp, #12]
 8001f84:	6020      	str	r0, [r4, #0]
 8001f86:	9804      	ldr	r0, [sp, #16]
 8001f88:	6060      	str	r0, [r4, #4]
 8001f8a:	9801      	ldr	r0, [sp, #4]
 8001f8c:	60e0      	str	r0, [r4, #12]
 8001f8e:	2901      	cmp	r1, #1
 8001f90:	9805      	ldr	r0, [sp, #20]
 8001f92:	f8a4 8016 	strh.w	r8, [r4, #22]
 8001f96:	8325      	strh	r5, [r4, #24]
 8001f98:	8426      	strh	r6, [r4, #32]
 8001f9a:	f8c4 001a 	str.w	r0, [r4, #26]
 8001f9e:	d003      	beq.n	8001fa8 <TSK_HighFrequencyTask+0xbc>
 8001fa0:	2000      	movs	r0, #0
 8001fa2:	b006      	add	sp, #24
 8001fa4:	e8bd 81f0 	ldmia.w	sp!, {r4, r5, r6, r7, r8, pc}
 8001fa8:	2200      	movs	r2, #0
 8001faa:	480a      	ldr	r0, [pc, #40]	; (8001fd4 <TSK_HighFrequencyTask+0xe8>)
 8001fac:	f008 fc06 	bl	800a7bc <STM_FaultProcessing>
 8001fb0:	2000      	movs	r0, #0
 8001fb2:	b006      	add	sp, #24
 8001fb4:	e8bd 81f0 	ldmia.w	sp!, {r4, r5, r6, r7, r8, pc}
 8001fb8:	200000f0 	.word	0x200000f0
 8001fbc:	20000bbc 	.word	0x20000bbc
 8001fc0:	20000bd4 	.word	0x20000bd4
 8001fc4:	20000c88 	.word	0x20000c88
 8001fc8:	20000bc8 	.word	0x20000bc8
 8001fcc:	20000c84 	.word	0x20000c84
 8001fd0:	20000c50 	.word	0x20000c50
 8001fd4:	20000c74 	.word	0x20000c74

08001fd8 <TSK_SafetyTask_PWMOFF>:
 8001fd8:	b5f8      	push	{r3, r4, r5, r6, r7, lr}
 8001fda:	4b23      	ldr	r3, [pc, #140]	; (8002068 <TSK_SafetyTask_PWMOFF+0x90>)
 8001fdc:	4f23      	ldr	r7, [pc, #140]	; (800206c <TSK_SafetyTask_PWMOFF+0x94>)
 8001fde:	4605      	mov	r5, r0
 8001fe0:	f853 0020 	ldr.w	r0, [r3, r0, lsl #2]
 8001fe4:	f007 f89c 	bl	8009120 <NTC_CalcAvTemp>
 8001fe8:	4604      	mov	r4, r0
 8001fea:	f857 0025 	ldr.w	r0, [r7, r5, lsl #2]
 8001fee:	f007 faff 	bl	80095f0 <PWMC_CheckOverCurrent>
 8001ff2:	f004 040e 	and.w	r4, r4, #14
 8001ff6:	4304      	orrs	r4, r0
 8001ff8:	b2a4      	uxth	r4, r4
 8001ffa:	b36d      	cbz	r5, 8002058 <TSK_SafetyTask_PWMOFF+0x80>
 8001ffc:	4e1c      	ldr	r6, [pc, #112]	; (8002070 <TSK_SafetyTask_PWMOFF+0x98>)
 8001ffe:	eb05 0345 	add.w	r3, r5, r5, lsl #1
 8002002:	eb06 0643 	add.w	r6, r6, r3, lsl #1
 8002006:	43e2      	mvns	r2, r4
 8002008:	b292      	uxth	r2, r2
 800200a:	4621      	mov	r1, r4
 800200c:	4630      	mov	r0, r6
 800200e:	f008 fbd5 	bl	800a7bc <STM_FaultProcessing>
 8002012:	4630      	mov	r0, r6
 8002014:	f008 fc60 	bl	800a8d8 <STM_GetState>
 8002018:	280a      	cmp	r0, #10
 800201a:	d008      	beq.n	800202e <TSK_SafetyTask_PWMOFF+0x56>
 800201c:	280b      	cmp	r0, #11
 800201e:	d105      	bne.n	800202c <TSK_SafetyTask_PWMOFF+0x54>
 8002020:	f857 0025 	ldr.w	r0, [r7, r5, lsl #2]
 8002024:	e8bd 40f8 	ldmia.w	sp!, {r3, r4, r5, r6, r7, lr}
 8002028:	f007 bab6 	b.w	8009598 <PWMC_SwitchOffPWM>
 800202c:	bdf8      	pop	{r3, r4, r5, r6, r7, pc}
 800202e:	4b11      	ldr	r3, [pc, #68]	; (8002074 <TSK_SafetyTask_PWMOFF+0x9c>)
 8002030:	f853 0025 	ldr.w	r0, [r3, r5, lsl #2]
 8002034:	b110      	cbz	r0, 800203c <TSK_SafetyTask_PWMOFF+0x64>
 8002036:	2100      	movs	r1, #0
 8002038:	f006 fe92 	bl	8008d60 <EAC_SetRestartState>
 800203c:	f857 0025 	ldr.w	r0, [r7, r5, lsl #2]
 8002040:	f007 faaa 	bl	8009598 <PWMC_SwitchOffPWM>
 8002044:	4628      	mov	r0, r5
 8002046:	f7ff fc7b 	bl	8001940 <FOC_Clear>
 800204a:	4b0b      	ldr	r3, [pc, #44]	; (8002078 <TSK_SafetyTask_PWMOFF+0xa0>)
 800204c:	f853 0025 	ldr.w	r0, [r3, r5, lsl #2]
 8002050:	e8bd 40f8 	ldmia.w	sp!, {r3, r4, r5, r6, r7, lr}
 8002054:	f007 b812 	b.w	800907c <MPM_Clear>
 8002058:	4b08      	ldr	r3, [pc, #32]	; (800207c <TSK_SafetyTask_PWMOFF+0xa4>)
 800205a:	6818      	ldr	r0, [r3, #0]
 800205c:	f008 fa54 	bl	800a508 <RVBS_CalcAvVbus>
 8002060:	f000 000e 	and.w	r0, r0, #14
 8002064:	4304      	orrs	r4, r0
 8002066:	e7c9      	b.n	8001ffc <TSK_SafetyTask_PWMOFF+0x24>
 8002068:	20000bb8 	.word	0x20000bb8
 800206c:	20000bbc 	.word	0x20000bbc
 8002070:	20000c74 	.word	0x20000c74
 8002074:	20000bc4 	.word	0x20000bc4
 8002078:	20000c80 	.word	0x20000c80
 800207c:	20000c54 	.word	0x20000c54

08002080 <TSK_SafetyTask>:
 8002080:	b508      	push	{r3, lr}
 8002082:	4b06      	ldr	r3, [pc, #24]	; (800209c <TSK_SafetyTask+0x1c>)
 8002084:	781b      	ldrb	r3, [r3, #0]
 8002086:	2b01      	cmp	r3, #1
 8002088:	d000      	beq.n	800208c <TSK_SafetyTask+0xc>
 800208a:	bd08      	pop	{r3, pc}
 800208c:	2000      	movs	r0, #0
 800208e:	f7ff ffa3 	bl	8001fd8 <TSK_SafetyTask_PWMOFF>
 8002092:	e8bd 4008 	ldmia.w	sp!, {r3, lr}
 8002096:	f000 bd6b 	b.w	8002b70 <RCM_ExecUserConv>
 800209a:	bf00      	nop
 800209c:	2000062c 	.word	0x2000062c

080020a0 <MC_RunMotorControlTasks>:
 80020a0:	b508      	push	{r3, lr}
 80020a2:	4b06      	ldr	r3, [pc, #24]	; (80020bc <MC_RunMotorControlTasks+0x1c>)
 80020a4:	781b      	ldrb	r3, [r3, #0]
 80020a6:	b903      	cbnz	r3, 80020aa <MC_RunMotorControlTasks+0xa>
 80020a8:	bd08      	pop	{r3, pc}
 80020aa:	f7ff fef1 	bl	8001e90 <MC_Scheduler>
 80020ae:	f7ff ffe7 	bl	8002080 <TSK_SafetyTask>
 80020b2:	e8bd 4008 	ldmia.w	sp!, {r3, lr}
 80020b6:	f001 ba9d 	b.w	80035f4 <UI_Scheduler>
 80020ba:	bf00      	nop
 80020bc:	2000062c 	.word	0x2000062c

080020c0 <TSK_HardwareFaultTask>:
 80020c0:	b508      	push	{r3, lr}
 80020c2:	4b05      	ldr	r3, [pc, #20]	; (80020d8 <TSK_HardwareFaultTask+0x18>)
 80020c4:	6818      	ldr	r0, [r3, #0]
 80020c6:	f007 fc5f 	bl	8009988 <R3_2_SwitchOffPWM>
 80020ca:	2200      	movs	r2, #0
 80020cc:	2180      	movs	r1, #128	; 0x80
 80020ce:	4803      	ldr	r0, [pc, #12]	; (80020dc <TSK_HardwareFaultTask+0x1c>)
 80020d0:	e8bd 4008 	ldmia.w	sp!, {r3, lr}
 80020d4:	f008 bb72 	b.w	800a7bc <STM_FaultProcessing>
 80020d8:	20000bbc 	.word	0x20000bbc
 80020dc:	20000c74 	.word	0x20000c74

080020e0 <mc_lock_pins>:
 80020e0:	b4f0      	push	{r4, r5, r6, r7}
 80020e2:	4a55      	ldr	r2, [pc, #340]	; (8002238 <mc_lock_pins+0x158>)
 80020e4:	4c55      	ldr	r4, [pc, #340]	; (800223c <mc_lock_pins+0x15c>)
 80020e6:	61d4      	str	r4, [r2, #28]
 80020e8:	2702      	movs	r7, #2
 80020ea:	b094      	sub	sp, #80	; 0x50
 80020ec:	61d7      	str	r7, [r2, #28]
 80020ee:	61d4      	str	r4, [r2, #28]
 80020f0:	69d3      	ldr	r3, [r2, #28]
 80020f2:	9313      	str	r3, [sp, #76]	; 0x4c
 80020f4:	4852      	ldr	r0, [pc, #328]	; (8002240 <mc_lock_pins+0x160>)
 80020f6:	9b13      	ldr	r3, [sp, #76]	; 0x4c
 80020f8:	61d0      	str	r0, [r2, #28]
 80020fa:	2604      	movs	r6, #4
 80020fc:	61d6      	str	r6, [r2, #28]
 80020fe:	61d0      	str	r0, [r2, #28]
 8002100:	69d3      	ldr	r3, [r2, #28]
 8002102:	9312      	str	r3, [sp, #72]	; 0x48
 8002104:	f44f 4180 	mov.w	r1, #16384	; 0x4000
 8002108:	f44f 33a0 	mov.w	r3, #81920	; 0x14000
 800210c:	9d12      	ldr	r5, [sp, #72]	; 0x48
 800210e:	61d3      	str	r3, [r2, #28]
 8002110:	61d1      	str	r1, [r2, #28]
 8002112:	61d3      	str	r3, [r2, #28]
 8002114:	69d3      	ldr	r3, [r2, #28]
 8002116:	9311      	str	r3, [sp, #68]	; 0x44
 8002118:	f04f 4390 	mov.w	r3, #1207959552	; 0x48000000
 800211c:	f04f 1101 	mov.w	r1, #65537	; 0x10001
 8002120:	2501      	movs	r5, #1
 8002122:	f8dd c044 	ldr.w	ip, [sp, #68]	; 0x44
 8002126:	61d9      	str	r1, [r3, #28]
 8002128:	61dd      	str	r5, [r3, #28]
 800212a:	61d9      	str	r1, [r3, #28]
 800212c:	f8d3 c01c 	ldr.w	ip, [r3, #28]
 8002130:	f8cd c040 	str.w	ip, [sp, #64]	; 0x40
 8002134:	f8dd c040 	ldr.w	ip, [sp, #64]	; 0x40
 8002138:	61d1      	str	r1, [r2, #28]
 800213a:	61d5      	str	r5, [r2, #28]
 800213c:	61d1      	str	r1, [r2, #28]
 800213e:	69d1      	ldr	r1, [r2, #28]
 8002140:	910f      	str	r1, [sp, #60]	; 0x3c
 8002142:	9d0f      	ldr	r5, [sp, #60]	; 0x3c
 8002144:	493f      	ldr	r1, [pc, #252]	; (8002244 <mc_lock_pins+0x164>)
 8002146:	61d9      	str	r1, [r3, #28]
 8002148:	2580      	movs	r5, #128	; 0x80
 800214a:	61dd      	str	r5, [r3, #28]
 800214c:	61d9      	str	r1, [r3, #28]
 800214e:	f8d3 c01c 	ldr.w	ip, [r3, #28]
 8002152:	f8cd c038 	str.w	ip, [sp, #56]	; 0x38
 8002156:	f8dd c038 	ldr.w	ip, [sp, #56]	; 0x38
 800215a:	61dc      	str	r4, [r3, #28]
 800215c:	61df      	str	r7, [r3, #28]
 800215e:	61dc      	str	r4, [r3, #28]
 8002160:	69dc      	ldr	r4, [r3, #28]
 8002162:	940d      	str	r4, [sp, #52]	; 0x34
 8002164:	9f0d      	ldr	r7, [sp, #52]	; 0x34
 8002166:	4c38      	ldr	r4, [pc, #224]	; (8002248 <mc_lock_pins+0x168>)
 8002168:	61dc      	str	r4, [r3, #28]
 800216a:	2708      	movs	r7, #8
 800216c:	61df      	str	r7, [r3, #28]
 800216e:	61dc      	str	r4, [r3, #28]
 8002170:	69dc      	ldr	r4, [r3, #28]
 8002172:	940c      	str	r4, [sp, #48]	; 0x30
 8002174:	9c0c      	ldr	r4, [sp, #48]	; 0x30
 8002176:	61d8      	str	r0, [r3, #28]
 8002178:	61de      	str	r6, [r3, #28]
 800217a:	61d8      	str	r0, [r3, #28]
 800217c:	69d8      	ldr	r0, [r3, #28]
 800217e:	900b      	str	r0, [sp, #44]	; 0x2c
 8002180:	9c0b      	ldr	r4, [sp, #44]	; 0x2c
 8002182:	4832      	ldr	r0, [pc, #200]	; (800224c <mc_lock_pins+0x16c>)
 8002184:	61d8      	str	r0, [r3, #28]
 8002186:	2440      	movs	r4, #64	; 0x40
 8002188:	61dc      	str	r4, [r3, #28]
 800218a:	61d8      	str	r0, [r3, #28]
 800218c:	69de      	ldr	r6, [r3, #28]
 800218e:	960a      	str	r6, [sp, #40]	; 0x28
 8002190:	9f0a      	ldr	r7, [sp, #40]	; 0x28
 8002192:	4e2f      	ldr	r6, [pc, #188]	; (8002250 <mc_lock_pins+0x170>)
 8002194:	61de      	str	r6, [r3, #28]
 8002196:	2720      	movs	r7, #32
 8002198:	61df      	str	r7, [r3, #28]
 800219a:	61de      	str	r6, [r3, #28]
 800219c:	69de      	ldr	r6, [r3, #28]
 800219e:	9609      	str	r6, [sp, #36]	; 0x24
 80021a0:	9e09      	ldr	r6, [sp, #36]	; 0x24
 80021a2:	61d0      	str	r0, [r2, #28]
 80021a4:	61d4      	str	r4, [r2, #28]
 80021a6:	61d0      	str	r0, [r2, #28]
 80021a8:	69d0      	ldr	r0, [r2, #28]
 80021aa:	9008      	str	r0, [sp, #32]
 80021ac:	9808      	ldr	r0, [sp, #32]
 80021ae:	61d1      	str	r1, [r2, #28]
 80021b0:	61d5      	str	r5, [r2, #28]
 80021b2:	61d1      	str	r1, [r2, #28]
 80021b4:	69d1      	ldr	r1, [r2, #28]
 80021b6:	9107      	str	r1, [sp, #28]
 80021b8:	9807      	ldr	r0, [sp, #28]
 80021ba:	4926      	ldr	r1, [pc, #152]	; (8002254 <mc_lock_pins+0x174>)
 80021bc:	61d9      	str	r1, [r3, #28]
 80021be:	f44f 7080 	mov.w	r0, #256	; 0x100
 80021c2:	61d8      	str	r0, [r3, #28]
 80021c4:	61d9      	str	r1, [r3, #28]
 80021c6:	69d9      	ldr	r1, [r3, #28]
 80021c8:	9106      	str	r1, [sp, #24]
 80021ca:	f44f 7000 	mov.w	r0, #512	; 0x200
 80021ce:	f44f 3181 	mov.w	r1, #66048	; 0x10200
 80021d2:	9c06      	ldr	r4, [sp, #24]
 80021d4:	61d9      	str	r1, [r3, #28]
 80021d6:	61d8      	str	r0, [r3, #28]
 80021d8:	61d9      	str	r1, [r3, #28]
 80021da:	69d9      	ldr	r1, [r3, #28]
 80021dc:	9105      	str	r1, [sp, #20]
 80021de:	f44f 6080 	mov.w	r0, #1024	; 0x400
 80021e2:	f44f 3182 	mov.w	r1, #66560	; 0x10400
 80021e6:	9c05      	ldr	r4, [sp, #20]
 80021e8:	61d9      	str	r1, [r3, #28]
 80021ea:	61d8      	str	r0, [r3, #28]
 80021ec:	61d9      	str	r1, [r3, #28]
 80021ee:	69d9      	ldr	r1, [r3, #28]
 80021f0:	9104      	str	r1, [sp, #16]
 80021f2:	f44f 5080 	mov.w	r0, #4096	; 0x1000
 80021f6:	f44f 3188 	mov.w	r1, #69632	; 0x11000
 80021fa:	9c04      	ldr	r4, [sp, #16]
 80021fc:	61d9      	str	r1, [r3, #28]
 80021fe:	61d8      	str	r0, [r3, #28]
 8002200:	61d9      	str	r1, [r3, #28]
 8002202:	69db      	ldr	r3, [r3, #28]
 8002204:	9303      	str	r3, [sp, #12]
 8002206:	f44f 4100 	mov.w	r1, #32768	; 0x8000
 800220a:	f44f 33c0 	mov.w	r3, #98304	; 0x18000
 800220e:	9803      	ldr	r0, [sp, #12]
 8002210:	61d3      	str	r3, [r2, #28]
 8002212:	61d1      	str	r1, [r2, #28]
 8002214:	61d3      	str	r3, [r2, #28]
 8002216:	69d2      	ldr	r2, [r2, #28]
 8002218:	4b0f      	ldr	r3, [pc, #60]	; (8002258 <mc_lock_pins+0x178>)
 800221a:	9202      	str	r2, [sp, #8]
 800221c:	f44f 5100 	mov.w	r1, #8192	; 0x2000
 8002220:	f44f 3290 	mov.w	r2, #73728	; 0x12000
 8002224:	9802      	ldr	r0, [sp, #8]
 8002226:	61da      	str	r2, [r3, #28]
 8002228:	61d9      	str	r1, [r3, #28]
 800222a:	61da      	str	r2, [r3, #28]
 800222c:	69db      	ldr	r3, [r3, #28]
 800222e:	9301      	str	r3, [sp, #4]
 8002230:	9b01      	ldr	r3, [sp, #4]
 8002232:	b014      	add	sp, #80	; 0x50
 8002234:	bcf0      	pop	{r4, r5, r6, r7}
 8002236:	4770      	bx	lr
 8002238:	48000400 	.word	0x48000400
 800223c:	00010002 	.word	0x00010002
 8002240:	00010004 	.word	0x00010004
 8002244:	00010080 	.word	0x00010080
 8002248:	00010008 	.word	0x00010008
 800224c:	00010040 	.word	0x00010040
 8002250:	00010020 	.word	0x00010020
 8002254:	00010100 	.word	0x00010100
 8002258:	48000800 	.word	0x48000800

0800225c <MCP_ReceivedFrame>:
 800225c:	e92d 43f0 	stmdb	sp!, {r4, r5, r6, r7, r8, r9, lr}
 8002260:	b08d      	sub	sp, #52	; 0x34
 8002262:	2700      	movs	r7, #0
 8002264:	4616      	mov	r6, r2
 8002266:	094a      	lsrs	r2, r1, #5
 8002268:	460c      	mov	r4, r1
 800226a:	4699      	mov	r9, r3
 800226c:	f88d 7009 	strb.w	r7, [sp, #9]
 8002270:	4605      	mov	r5, r0
 8002272:	d123      	bne.n	80022bc <MCP_ReceivedFrame+0x60>
 8002274:	2912      	cmp	r1, #18
 8002276:	d814      	bhi.n	80022a2 <MCP_ReceivedFrame+0x46>
 8002278:	e8df f011 	tbh	[pc, r1, lsl #1]
 800227c:	00580016 	.word	0x00580016
 8002280:	017c00ea 	.word	0x017c00ea
 8002284:	00130013 	.word	0x00130013
 8002288:	01b30186 	.word	0x01b30186
 800228c:	01fb01c8 	.word	0x01fb01c8
 8002290:	022e021d 	.word	0x022e021d
 8002294:	02620245 	.word	0x02620245
 8002298:	00130013 	.word	0x00130013
 800229c:	00130013 	.word	0x00130013
 80022a0:	0016      	.short	0x0016
 80022a2:	2301      	movs	r3, #1
 80022a4:	f88d 300e 	strb.w	r3, [sp, #14]
 80022a8:	e9d5 040c 	ldrd	r0, r4, [r5, #48]	; 0x30
 80022ac:	2301      	movs	r3, #1
 80022ae:	f10d 020e 	add.w	r2, sp, #14
 80022b2:	21ff      	movs	r1, #255	; 0xff
 80022b4:	47a0      	blx	r4
 80022b6:	b00d      	add	sp, #52	; 0x34
 80022b8:	e8bd 83f0 	ldmia.w	sp!, {r4, r5, r6, r7, r8, r9, pc}
 80022bc:	f102 38ff 	add.w	r8, r2, #4294967295
 80022c0:	4642      	mov	r2, r8
 80022c2:	4639      	mov	r1, r7
 80022c4:	f001 f9ea 	bl	800369c <UI_SetReg>
 80022c8:	b300      	cbz	r0, 800230c <MCP_ReceivedFrame+0xb0>
 80022ca:	f8d5 00c4 	ldr.w	r0, [r5, #196]	; 0xc4
 80022ce:	f004 041f 	and.w	r4, r4, #31
 80022d2:	b118      	cbz	r0, 80022dc <MCP_ReceivedFrame+0x80>
 80022d4:	4642      	mov	r2, r8
 80022d6:	4639      	mov	r1, r7
 80022d8:	f001 f9e0 	bl	800369c <UI_SetReg>
 80022dc:	2c12      	cmp	r4, #18
 80022de:	f200 82de 	bhi.w	800289e <MCP_ReceivedFrame+0x642>
 80022e2:	e8df f014 	tbh	[pc, r4, lsl #1]
 80022e6:	01c3      	.short	0x01c3
 80022e8:	00b50023 	.word	0x00b50023
 80022ec:	02dc0147 	.word	0x02dc0147
 80022f0:	015102dc 	.word	0x015102dc
 80022f4:	0193017e 	.word	0x0193017e
 80022f8:	01e801c6 	.word	0x01e801c6
 80022fc:	021001f9 	.word	0x021001f9
 8002300:	02dc022d 	.word	0x02dc022d
 8002304:	02dc02dc 	.word	0x02dc02dc
 8002308:	01c302dc 	.word	0x01c302dc
 800230c:	230b      	movs	r3, #11
 800230e:	f89d 0009 	ldrb.w	r0, [sp, #9]
 8002312:	f88d 300e 	strb.w	r3, [sp, #14]
 8002316:	2800      	cmp	r0, #0
 8002318:	d0c6      	beq.n	80022a8 <MCP_ReceivedFrame+0x4c>
 800231a:	2300      	movs	r3, #0
 800231c:	461a      	mov	r2, r3
 800231e:	e9d5 040c 	ldrd	r0, r4, [r5, #48]	; 0x30
 8002322:	21f0      	movs	r1, #240	; 0xf0
 8002324:	47a0      	blx	r4
 8002326:	b00d      	add	sp, #52	; 0x34
 8002328:	e8bd 83f0 	ldmia.w	sp!, {r4, r5, r6, r7, r8, r9, pc}
 800232c:	7831      	ldrb	r1, [r6, #0]
 800232e:	2305      	movs	r3, #5
 8002330:	f88d 300e 	strb.w	r3, [sp, #14]
 8002334:	2988      	cmp	r1, #136	; 0x88
 8002336:	f200 82b8 	bhi.w	80028aa <MCP_ReceivedFrame+0x64e>
 800233a:	e8df f011 	tbh	[pc, r1, lsl #1]
 800233e:	02a1      	.short	0x02a1
 8002340:	02b602b6 	.word	0x02b602b6
 8002344:	02b6029a 	.word	0x02b6029a
 8002348:	02900290 	.word	0x02900290
 800234c:	02900290 	.word	0x02900290
 8002350:	02900290 	.word	0x02900290
 8002354:	02900290 	.word	0x02900290
 8002358:	02900290 	.word	0x02900290
 800235c:	02800290 	.word	0x02800290
 8002360:	02b60280 	.word	0x02b60280
 8002364:	029002b6 	.word	0x029002b6
 8002368:	02900290 	.word	0x02900290
 800236c:	02900290 	.word	0x02900290
 8002370:	02b602b6 	.word	0x02b602b6
 8002374:	027602b6 	.word	0x027602b6
 8002378:	02b6026c 	.word	0x02b6026c
 800237c:	02b602b6 	.word	0x02b602b6
 8002380:	02b602b6 	.word	0x02b602b6
 8002384:	02b602b6 	.word	0x02b602b6
 8002388:	02b602b6 	.word	0x02b602b6
 800238c:	02b602b6 	.word	0x02b602b6
 8002390:	02b602b6 	.word	0x02b602b6
 8002394:	02b602b6 	.word	0x02b602b6
 8002398:	02b602b6 	.word	0x02b602b6
 800239c:	02b602b6 	.word	0x02b602b6
 80023a0:	02b602b6 	.word	0x02b602b6
 80023a4:	02b602b6 	.word	0x02b602b6
 80023a8:	02b602b6 	.word	0x02b602b6
 80023ac:	02b602b6 	.word	0x02b602b6
 80023b0:	02b602b6 	.word	0x02b602b6
 80023b4:	02b602b6 	.word	0x02b602b6
 80023b8:	02b602b6 	.word	0x02b602b6
 80023bc:	02b602b6 	.word	0x02b602b6
 80023c0:	02b60290 	.word	0x02b60290
 80023c4:	02b602b6 	.word	0x02b602b6
 80023c8:	028002b6 	.word	0x028002b6
 80023cc:	02800280 	.word	0x02800280
 80023d0:	02b602b6 	.word	0x02b602b6
 80023d4:	02b602b6 	.word	0x02b602b6
 80023d8:	02b602b6 	.word	0x02b602b6
 80023dc:	02b60290 	.word	0x02b60290
 80023e0:	02b602b6 	.word	0x02b602b6
 80023e4:	02900290 	.word	0x02900290
 80023e8:	02900290 	.word	0x02900290
 80023ec:	02900290 	.word	0x02900290
 80023f0:	02b60290 	.word	0x02b60290
 80023f4:	02b60280 	.word	0x02b60280
 80023f8:	02b602b6 	.word	0x02b602b6
 80023fc:	02b602b6 	.word	0x02b602b6
 8002400:	02b60290 	.word	0x02b60290
 8002404:	029002b6 	.word	0x029002b6
 8002408:	02b60290 	.word	0x02b60290
 800240c:	02b602b6 	.word	0x02b602b6
 8002410:	02b602b6 	.word	0x02b602b6
 8002414:	02b602b6 	.word	0x02b602b6
 8002418:	02b602b6 	.word	0x02b602b6
 800241c:	02b602b6 	.word	0x02b602b6
 8002420:	02b602b6 	.word	0x02b602b6
 8002424:	029a02b6 	.word	0x029a02b6
 8002428:	02800280 	.word	0x02800280
 800242c:	02800280 	.word	0x02800280
 8002430:	02b60280 	.word	0x02b60280
 8002434:	02b602b6 	.word	0x02b602b6
 8002438:	02800280 	.word	0x02800280
 800243c:	02b602b6 	.word	0x02b602b6
 8002440:	02b602b6 	.word	0x02b602b6
 8002444:	02b602b6 	.word	0x02b602b6
 8002448:	029002b6 	.word	0x029002b6
 800244c:	02900290 	.word	0x02900290
 8002450:	7831      	ldrb	r1, [r6, #0]
 8002452:	2303      	movs	r3, #3
 8002454:	f88d 300e 	strb.w	r3, [sp, #14]
 8002458:	2988      	cmp	r1, #136	; 0x88
 800245a:	f200 8107 	bhi.w	800266c <MCP_ReceivedFrame+0x410>
 800245e:	e8df f011 	tbh	[pc, r1, lsl #1]
 8002462:	0191      	.short	0x0191
 8002464:	0191017f 	.word	0x0191017f
 8002468:	017f0191 	.word	0x017f0191
 800246c:	01c801c8 	.word	0x01c801c8
 8002470:	01c801c8 	.word	0x01c801c8
 8002474:	01c801c8 	.word	0x01c801c8
 8002478:	01c801c8 	.word	0x01c801c8
 800247c:	01c801c8 	.word	0x01c801c8
 8002480:	01c801c8 	.word	0x01c801c8
 8002484:	01c801c8 	.word	0x01c801c8
 8002488:	01c801c8 	.word	0x01c801c8
 800248c:	01c801c8 	.word	0x01c801c8
 8002490:	01c801c8 	.word	0x01c801c8
 8002494:	01c801c8 	.word	0x01c801c8
 8002498:	01b701c8 	.word	0x01b701c8
 800249c:	017f01a3 	.word	0x017f01a3
 80024a0:	01c801c8 	.word	0x01c801c8
 80024a4:	019101c8 	.word	0x019101c8
 80024a8:	01050105 	.word	0x01050105
 80024ac:	01050105 	.word	0x01050105
 80024b0:	01050105 	.word	0x01050105
 80024b4:	01050105 	.word	0x01050105
 80024b8:	01050105 	.word	0x01050105
 80024bc:	01050105 	.word	0x01050105
 80024c0:	01050105 	.word	0x01050105
 80024c4:	01050105 	.word	0x01050105
 80024c8:	01050105 	.word	0x01050105
 80024cc:	01050105 	.word	0x01050105
 80024d0:	01050105 	.word	0x01050105
 80024d4:	01050105 	.word	0x01050105
 80024d8:	01050105 	.word	0x01050105
 80024dc:	01050105 	.word	0x01050105
 80024e0:	01050105 	.word	0x01050105
 80024e4:	010501c8 	.word	0x010501c8
 80024e8:	01050105 	.word	0x01050105
 80024ec:	017f0105 	.word	0x017f0105
 80024f0:	017f017f 	.word	0x017f017f
 80024f4:	01c801c8 	.word	0x01c801c8
 80024f8:	01c801c8 	.word	0x01c801c8
 80024fc:	017f0191 	.word	0x017f0191
 8002500:	01c801c8 	.word	0x01c801c8
 8002504:	01c801c8 	.word	0x01c801c8
 8002508:	01c801c8 	.word	0x01c801c8
 800250c:	01c801c8 	.word	0x01c801c8
 8002510:	01c801c8 	.word	0x01c801c8
 8002514:	019101c8 	.word	0x019101c8
 8002518:	0105017f 	.word	0x0105017f
 800251c:	01c801c8 	.word	0x01c801c8
 8002520:	01c801c8 	.word	0x01c801c8
 8002524:	010501c8 	.word	0x010501c8
 8002528:	01c80105 	.word	0x01c80105
 800252c:	019101c8 	.word	0x019101c8
 8002530:	017f0191 	.word	0x017f0191
 8002534:	017f017f 	.word	0x017f017f
 8002538:	017f017f 	.word	0x017f017f
 800253c:	01c80191 	.word	0x01c80191
 8002540:	017f01c8 	.word	0x017f01c8
 8002544:	01c80105 	.word	0x01c80105
 8002548:	019101c8 	.word	0x019101c8
 800254c:	017f017f 	.word	0x017f017f
 8002550:	017f017f 	.word	0x017f017f
 8002554:	017f017f 	.word	0x017f017f
 8002558:	017f017f 	.word	0x017f017f
 800255c:	017f017f 	.word	0x017f017f
 8002560:	0191017f 	.word	0x0191017f
 8002564:	01910105 	.word	0x01910105
 8002568:	017f017f 	.word	0x017f017f
 800256c:	01c8017f 	.word	0x01c8017f
 8002570:	01c801c8 	.word	0x01c801c8
 8002574:	2307      	movs	r3, #7
 8002576:	7831      	ldrb	r1, [r6, #0]
 8002578:	f88d 300e 	strb.w	r3, [sp, #14]
 800257c:	4628      	mov	r0, r5
 800257e:	f001 f953 	bl	8003828 <UI_ExecCmd>
 8002582:	f88d 0009 	strb.w	r0, [sp, #9]
 8002586:	e6c6      	b.n	8002316 <MCP_ReceivedFrame+0xba>
 8002588:	ac04      	add	r4, sp, #16
 800258a:	2100      	movs	r1, #0
 800258c:	4620      	mov	r0, r4
 800258e:	2220      	movs	r2, #32
 8002590:	f008 fba6 	bl	800ace0 <memset>
 8002594:	f8d5 60c0 	ldr.w	r6, [r5, #192]	; 0xc0
 8002598:	f10d 0012 	add.w	r0, sp, #18
 800259c:	1e71      	subs	r1, r6, #1
 800259e:	2300      	movs	r3, #0
 80025a0:	e005      	b.n	80025ae <MCP_ReceivedFrame+0x352>
 80025a2:	3301      	adds	r3, #1
 80025a4:	2b1d      	cmp	r3, #29
 80025a6:	f800 2f01 	strb.w	r2, [r0, #1]!
 80025aa:	f000 8182 	beq.w	80028b2 <MCP_ReceivedFrame+0x656>
 80025ae:	f811 2f01 	ldrb.w	r2, [r1, #1]!
 80025b2:	2a09      	cmp	r2, #9
 80025b4:	d1f5      	bne.n	80025a2 <MCP_ReceivedFrame+0x346>
 80025b6:	1d5a      	adds	r2, r3, #5
 80025b8:	1dd9      	adds	r1, r3, #7
 80025ba:	3309      	adds	r3, #9
 80025bc:	5cb2      	ldrb	r2, [r6, r2]
 80025be:	f88d 2010 	strb.w	r2, [sp, #16]
 80025c2:	5c72      	ldrb	r2, [r6, r1]
 80025c4:	f88d 2011 	strb.w	r2, [sp, #17]
 80025c8:	5cf3      	ldrb	r3, [r6, r3]
 80025ca:	f88d 3012 	strb.w	r3, [sp, #18]
 80025ce:	4622      	mov	r2, r4
 80025d0:	2320      	movs	r3, #32
 80025d2:	e9d5 040c 	ldrd	r0, r4, [r5, #48]	; 0x30
 80025d6:	21f0      	movs	r1, #240	; 0xf0
 80025d8:	47a0      	blx	r4
 80025da:	2301      	movs	r3, #1
 80025dc:	f88d 3009 	strb.w	r3, [sp, #9]
 80025e0:	e69b      	b.n	800231a <MCP_ReceivedFrame+0xbe>
 80025e2:	7877      	ldrb	r7, [r6, #1]
 80025e4:	7833      	ldrb	r3, [r6, #0]
 80025e6:	7970      	ldrb	r0, [r6, #5]
 80025e8:	78b4      	ldrb	r4, [r6, #2]
 80025ea:	7932      	ldrb	r2, [r6, #4]
 80025ec:	78f1      	ldrb	r1, [r6, #3]
 80025ee:	eb03 2307 	add.w	r3, r3, r7, lsl #8
 80025f2:	eb03 4304 	add.w	r3, r3, r4, lsl #16
 80025f6:	eb02 2200 	add.w	r2, r2, r0, lsl #8
 80025fa:	eb03 6101 	add.w	r1, r3, r1, lsl #24
 80025fe:	b292      	uxth	r2, r2
 8002600:	4628      	mov	r0, r5
 8002602:	f001 f94f 	bl	80038a4 <UI_ExecSpeedRamp>
 8002606:	f88d 0009 	strb.w	r0, [sp, #9]
 800260a:	e684      	b.n	8002316 <MCP_ReceivedFrame+0xba>
 800260c:	f10d 030e 	add.w	r3, sp, #14
 8002610:	7831      	ldrb	r1, [r6, #0]
 8002612:	9300      	str	r3, [sp, #0]
 8002614:	f10d 020a 	add.w	r2, sp, #10
 8002618:	ab03      	add	r3, sp, #12
 800261a:	4628      	mov	r0, r5
 800261c:	f001 f95e 	bl	80038dc <UI_GetRevupData>
 8002620:	f9bd 300c 	ldrsh.w	r3, [sp, #12]
 8002624:	f8bd 000a 	ldrh.w	r0, [sp, #10]
 8002628:	f9bd 100e 	ldrsh.w	r1, [sp, #14]
 800262c:	f88d 1014 	strb.w	r1, [sp, #20]
 8002630:	eb03 0343 	add.w	r3, r3, r3, lsl #1
 8002634:	005b      	lsls	r3, r3, #1
 8002636:	2200      	movs	r2, #0
 8002638:	121c      	asrs	r4, r3, #8
 800263a:	f363 0207 	bfi	r2, r3, #0, #8
 800263e:	f364 220f 	bfi	r2, r4, #8, #8
 8002642:	141c      	asrs	r4, r3, #16
 8002644:	f364 4217 	bfi	r2, r4, #16, #8
 8002648:	161b      	asrs	r3, r3, #24
 800264a:	f363 621f 	bfi	r2, r3, #24, #8
 800264e:	1209      	asrs	r1, r1, #8
 8002650:	0a03      	lsrs	r3, r0, #8
 8002652:	9204      	str	r2, [sp, #16]
 8002654:	f88d 1015 	strb.w	r1, [sp, #21]
 8002658:	f88d 0016 	strb.w	r0, [sp, #22]
 800265c:	f88d 3017 	strb.w	r3, [sp, #23]
 8002660:	e9d5 040c 	ldrd	r0, r4, [r5, #48]	; 0x30
 8002664:	2308      	movs	r3, #8
 8002666:	aa04      	add	r2, sp, #16
 8002668:	21f0      	movs	r1, #240	; 0xf0
 800266a:	47a0      	blx	r4
 800266c:	f89d 0009 	ldrb.w	r0, [sp, #9]
 8002670:	e651      	b.n	8002316 <MCP_ReceivedFrame+0xba>
 8002672:	78b1      	ldrb	r1, [r6, #2]
 8002674:	7873      	ldrb	r3, [r6, #1]
 8002676:	78f2      	ldrb	r2, [r6, #3]
 8002678:	7934      	ldrb	r4, [r6, #4]
 800267a:	7970      	ldrb	r0, [r6, #5]
 800267c:	7a37      	ldrb	r7, [r6, #8]
 800267e:	eb03 2301 	add.w	r3, r3, r1, lsl #8
 8002682:	eb03 4302 	add.w	r3, r3, r2, lsl #16
 8002686:	4a8d      	ldr	r2, [pc, #564]	; (80028bc <MCP_ReceivedFrame+0x660>)
 8002688:	79b1      	ldrb	r1, [r6, #6]
 800268a:	eb03 6304 	add.w	r3, r3, r4, lsl #24
 800268e:	fb82 4203 	smull	r4, r2, r2, r3
 8002692:	79f4      	ldrb	r4, [r6, #7]
 8002694:	eb00 2001 	add.w	r0, r0, r1, lsl #8
 8002698:	eba2 73e3 	sub.w	r3, r2, r3, asr #31
 800269c:	b200      	sxth	r0, r0
 800269e:	eb04 2207 	add.w	r2, r4, r7, lsl #8
 80026a2:	7831      	ldrb	r1, [r6, #0]
 80026a4:	9000      	str	r0, [sp, #0]
 80026a6:	b21b      	sxth	r3, r3
 80026a8:	b292      	uxth	r2, r2
 80026aa:	4628      	mov	r0, r5
 80026ac:	f001 f934 	bl	8003918 <UI_SetRevupData>
 80026b0:	f88d 0009 	strb.w	r0, [sp, #9]
 80026b4:	e62f      	b.n	8002316 <MCP_ReceivedFrame+0xba>
 80026b6:	78f0      	ldrb	r0, [r6, #3]
 80026b8:	7873      	ldrb	r3, [r6, #1]
 80026ba:	78b2      	ldrb	r2, [r6, #2]
 80026bc:	7831      	ldrb	r1, [r6, #0]
 80026be:	eb02 2200 	add.w	r2, r2, r0, lsl #8
 80026c2:	eb01 2103 	add.w	r1, r1, r3, lsl #8
 80026c6:	b212      	sxth	r2, r2
 80026c8:	b209      	sxth	r1, r1
 80026ca:	4628      	mov	r0, r5
 80026cc:	f001 f93e 	bl	800394c <UI_SetCurrentReferences>
 80026d0:	2301      	movs	r3, #1
 80026d2:	f88d 3009 	strb.w	r3, [sp, #9]
 80026d6:	e620      	b.n	800231a <MCP_ReceivedFrame+0xbe>
 80026d8:	4c79      	ldr	r4, [pc, #484]	; (80028c0 <MCP_ReceivedFrame+0x664>)
 80026da:	9604      	str	r6, [sp, #16]
 80026dc:	230c      	movs	r3, #12
 80026de:	4621      	mov	r1, r4
 80026e0:	a804      	add	r0, sp, #16
 80026e2:	f88d 9014 	strb.w	r9, [sp, #20]
 80026e6:	f88d 300e 	strb.w	r3, [sp, #14]
 80026ea:	f001 f93d 	bl	8003968 <UI_GetMPInfo>
 80026ee:	f88d 0009 	strb.w	r0, [sp, #9]
 80026f2:	2800      	cmp	r0, #0
 80026f4:	f43f add8 	beq.w	80022a8 <MCP_ReceivedFrame+0x4c>
 80026f8:	e9d5 060c 	ldrd	r0, r6, [r5, #48]	; 0x30
 80026fc:	7923      	ldrb	r3, [r4, #4]
 80026fe:	6822      	ldr	r2, [r4, #0]
 8002700:	21f0      	movs	r1, #240	; 0xf0
 8002702:	47b0      	blx	r6
 8002704:	e5d7      	b.n	80022b6 <MCP_ReceivedFrame+0x5a>
 8002706:	f8d5 20c0 	ldr.w	r2, [r5, #192]	; 0xc0
 800270a:	ac04      	add	r4, sp, #16
 800270c:	3a01      	subs	r2, #1
 800270e:	4623      	mov	r3, r4
 8002710:	ae0c      	add	r6, sp, #48	; 0x30
 8002712:	e004      	b.n	800271e <MCP_ReceivedFrame+0x4c2>
 8002714:	f803 1b01 	strb.w	r1, [r3], #1
 8002718:	429e      	cmp	r6, r3
 800271a:	f43f af58 	beq.w	80025ce <MCP_ReceivedFrame+0x372>
 800271e:	f812 1f01 	ldrb.w	r1, [r2, #1]!
 8002722:	1b18      	subs	r0, r3, r4
 8002724:	b2c0      	uxtb	r0, r0
 8002726:	2900      	cmp	r1, #0
 8002728:	d1f4      	bne.n	8002714 <MCP_ReceivedFrame+0x4b8>
 800272a:	281f      	cmp	r0, #31
 800272c:	f63f af4f 	bhi.w	80025ce <MCP_ReceivedFrame+0x372>
 8002730:	f1c0 021f 	rsb	r2, r0, #31
 8002734:	b2d2      	uxtb	r2, r2
 8002736:	3201      	adds	r2, #1
 8002738:	4420      	add	r0, r4
 800273a:	f008 fad1 	bl	800ace0 <memset>
 800273e:	e746      	b.n	80025ce <MCP_ReceivedFrame+0x372>
 8002740:	7970      	ldrb	r0, [r6, #5]
 8002742:	7932      	ldrb	r2, [r6, #4]
 8002744:	7873      	ldrb	r3, [r6, #1]
 8002746:	7831      	ldrb	r1, [r6, #0]
 8002748:	eb02 2200 	add.w	r2, r2, r0, lsl #8
 800274c:	eb01 2103 	add.w	r1, r1, r3, lsl #8
 8002750:	b292      	uxth	r2, r2
 8002752:	b209      	sxth	r1, r1
 8002754:	4628      	mov	r0, r5
 8002756:	f001 f8b7 	bl	80038c8 <UI_ExecTorqueRamp>
 800275a:	f88d 0009 	strb.w	r0, [sp, #9]
 800275e:	e5da      	b.n	8002316 <MCP_ReceivedFrame+0xba>
 8002760:	f10d 0209 	add.w	r2, sp, #9
 8002764:	4628      	mov	r0, r5
 8002766:	f001 f913 	bl	8003990 <UI_GetReg>
 800276a:	f89d 3009 	ldrb.w	r3, [sp, #9]
 800276e:	9004      	str	r0, [sp, #16]
 8002770:	2b00      	cmp	r3, #0
 8002772:	f43f ad99 	beq.w	80022a8 <MCP_ReceivedFrame+0x4c>
 8002776:	e9d5 040c 	ldrd	r0, r4, [r5, #48]	; 0x30
 800277a:	2304      	movs	r3, #4
 800277c:	aa04      	add	r2, sp, #16
 800277e:	21f0      	movs	r1, #240	; 0xf0
 8002780:	47a0      	blx	r4
 8002782:	e598      	b.n	80022b6 <MCP_ReceivedFrame+0x5a>
 8002784:	f10d 0209 	add.w	r2, sp, #9
 8002788:	4628      	mov	r0, r5
 800278a:	f001 f901 	bl	8003990 <UI_GetReg>
 800278e:	f89d 3009 	ldrb.w	r3, [sp, #9]
 8002792:	9004      	str	r0, [sp, #16]
 8002794:	2b00      	cmp	r3, #0
 8002796:	f43f ad87 	beq.w	80022a8 <MCP_ReceivedFrame+0x4c>
 800279a:	e9d5 040c 	ldrd	r0, r4, [r5, #48]	; 0x30
 800279e:	2301      	movs	r3, #1
 80027a0:	aa04      	add	r2, sp, #16
 80027a2:	21f0      	movs	r1, #240	; 0xf0
 80027a4:	47a0      	blx	r4
 80027a6:	e586      	b.n	80022b6 <MCP_ReceivedFrame+0x5a>
 80027a8:	f8d5 00c4 	ldr.w	r0, [r5, #196]	; 0xc4
 80027ac:	2800      	cmp	r0, #0
 80027ae:	f43f af5d 	beq.w	800266c <MCP_ReceivedFrame+0x410>
 80027b2:	2101      	movs	r1, #1
 80027b4:	f001 f8e6 	bl	8003984 <UI_GetDAC>
 80027b8:	aa0c      	add	r2, sp, #48	; 0x30
 80027ba:	2301      	movs	r3, #1
 80027bc:	f802 0d20 	strb.w	r0, [r2, #-32]!
 80027c0:	6b6c      	ldr	r4, [r5, #52]	; 0x34
 80027c2:	6b28      	ldr	r0, [r5, #48]	; 0x30
 80027c4:	21f0      	movs	r1, #240	; 0xf0
 80027c6:	47a0      	blx	r4
 80027c8:	2301      	movs	r3, #1
 80027ca:	f88d 3009 	strb.w	r3, [sp, #9]
 80027ce:	e5a4      	b.n	800231a <MCP_ReceivedFrame+0xbe>
 80027d0:	f8d5 00c4 	ldr.w	r0, [r5, #196]	; 0xc4
 80027d4:	2800      	cmp	r0, #0
 80027d6:	f43f af49 	beq.w	800266c <MCP_ReceivedFrame+0x410>
 80027da:	2100      	movs	r1, #0
 80027dc:	f001 f8d2 	bl	8003984 <UI_GetDAC>
 80027e0:	aa0c      	add	r2, sp, #48	; 0x30
 80027e2:	6b6c      	ldr	r4, [r5, #52]	; 0x34
 80027e4:	f802 0d20 	strb.w	r0, [r2, #-32]!
 80027e8:	2301      	movs	r3, #1
 80027ea:	6b28      	ldr	r0, [r5, #48]	; 0x30
 80027ec:	21f0      	movs	r1, #240	; 0xf0
 80027ee:	47a0      	blx	r4
 80027f0:	e561      	b.n	80022b6 <MCP_ReceivedFrame+0x5a>
 80027f2:	f10d 0209 	add.w	r2, sp, #9
 80027f6:	4628      	mov	r0, r5
 80027f8:	f001 f8ca 	bl	8003990 <UI_GetReg>
 80027fc:	f89d 3009 	ldrb.w	r3, [sp, #9]
 8002800:	9004      	str	r0, [sp, #16]
 8002802:	2b00      	cmp	r3, #0
 8002804:	f43f ad50 	beq.w	80022a8 <MCP_ReceivedFrame+0x4c>
 8002808:	e9d5 040c 	ldrd	r0, r4, [r5, #48]	; 0x30
 800280c:	2302      	movs	r3, #2
 800280e:	aa04      	add	r2, sp, #16
 8002810:	21f0      	movs	r1, #240	; 0xf0
 8002812:	47a0      	blx	r4
 8002814:	e54f      	b.n	80022b6 <MCP_ReceivedFrame+0x5a>
 8002816:	7872      	ldrb	r2, [r6, #1]
 8002818:	f8d5 00c4 	ldr.w	r0, [r5, #196]	; 0xc4
 800281c:	2101      	movs	r1, #1
 800281e:	f001 f8ad 	bl	800397c <UI_SetDAC>
 8002822:	2301      	movs	r3, #1
 8002824:	f88d 3009 	strb.w	r3, [sp, #9]
 8002828:	e577      	b.n	800231a <MCP_ReceivedFrame+0xbe>
 800282a:	7872      	ldrb	r2, [r6, #1]
 800282c:	f8d5 00c4 	ldr.w	r0, [r5, #196]	; 0xc4
 8002830:	2100      	movs	r1, #0
 8002832:	f001 f8a3 	bl	800397c <UI_SetDAC>
 8002836:	2301      	movs	r3, #1
 8002838:	f88d 3009 	strb.w	r3, [sp, #9]
 800283c:	e56d      	b.n	800231a <MCP_ReceivedFrame+0xbe>
 800283e:	78b4      	ldrb	r4, [r6, #2]
 8002840:	7873      	ldrb	r3, [r6, #1]
 8002842:	78f0      	ldrb	r0, [r6, #3]
 8002844:	7932      	ldrb	r2, [r6, #4]
 8002846:	eb03 2304 	add.w	r3, r3, r4, lsl #8
 800284a:	eb03 4300 	add.w	r3, r3, r0, lsl #16
 800284e:	eb03 6202 	add.w	r2, r3, r2, lsl #24
 8002852:	4628      	mov	r0, r5
 8002854:	f000 ff22 	bl	800369c <UI_SetReg>
 8002858:	f88d 0009 	strb.w	r0, [sp, #9]
 800285c:	e55b      	b.n	8002316 <MCP_ReceivedFrame+0xba>
 800285e:	78b2      	ldrb	r2, [r6, #2]
 8002860:	7873      	ldrb	r3, [r6, #1]
 8002862:	4628      	mov	r0, r5
 8002864:	eb03 2202 	add.w	r2, r3, r2, lsl #8
 8002868:	f000 ff18 	bl	800369c <UI_SetReg>
 800286c:	f88d 0009 	strb.w	r0, [sp, #9]
 8002870:	e551      	b.n	8002316 <MCP_ReceivedFrame+0xba>
 8002872:	7872      	ldrb	r2, [r6, #1]
 8002874:	4628      	mov	r0, r5
 8002876:	f000 ff11 	bl	800369c <UI_SetReg>
 800287a:	f88d 0009 	strb.w	r0, [sp, #9]
 800287e:	e54a      	b.n	8002316 <MCP_ReceivedFrame+0xba>
 8002880:	7874      	ldrb	r4, [r6, #1]
 8002882:	f8d5 00c4 	ldr.w	r0, [r5, #196]	; 0xc4
 8002886:	4622      	mov	r2, r4
 8002888:	2100      	movs	r1, #0
 800288a:	f000 ff07 	bl	800369c <UI_SetReg>
 800288e:	4622      	mov	r2, r4
 8002890:	2100      	movs	r1, #0
 8002892:	4628      	mov	r0, r5
 8002894:	f000 ff02 	bl	800369c <UI_SetReg>
 8002898:	f88d 0009 	strb.w	r0, [sp, #9]
 800289c:	e53b      	b.n	8002316 <MCP_ReceivedFrame+0xba>
 800289e:	2301      	movs	r3, #1
 80028a0:	f89d 0009 	ldrb.w	r0, [sp, #9]
 80028a4:	f88d 300e 	strb.w	r3, [sp, #14]
 80028a8:	e535      	b.n	8002316 <MCP_ReceivedFrame+0xba>
 80028aa:	2302      	movs	r3, #2
 80028ac:	f88d 300e 	strb.w	r3, [sp, #14]
 80028b0:	e6dc      	b.n	800266c <MCP_ReceivedFrame+0x410>
 80028b2:	2326      	movs	r3, #38	; 0x26
 80028b4:	2124      	movs	r1, #36	; 0x24
 80028b6:	2222      	movs	r2, #34	; 0x22
 80028b8:	e680      	b.n	80025bc <MCP_ReceivedFrame+0x360>
 80028ba:	bf00      	nop
 80028bc:	2aaaaaab 	.word	0x2aaaaaab
 80028c0:	20000634 	.word	0x20000634

080028c4 <MCP_WaitNextFrame>:
 80028c4:	b510      	push	{r4, lr}
 80028c6:	6bc3      	ldr	r3, [r0, #60]	; 0x3c
 80028c8:	4604      	mov	r4, r0
 80028ca:	6b00      	ldr	r0, [r0, #48]	; 0x30
 80028cc:	4798      	blx	r3
 80028ce:	2380      	movs	r3, #128	; 0x80
 80028d0:	f884 30c8 	strb.w	r3, [r4, #200]	; 0xc8
 80028d4:	6b20      	ldr	r0, [r4, #48]	; 0x30
 80028d6:	6ba3      	ldr	r3, [r4, #56]	; 0x38
 80028d8:	e8bd 4010 	ldmia.w	sp!, {r4, lr}
 80028dc:	4718      	bx	r3
 80028de:	bf00      	nop

080028e0 <MCP_Init>:
 80028e0:	b5f0      	push	{r4, r5, r6, r7, lr}
 80028e2:	b083      	sub	sp, #12
 80028e4:	4604      	mov	r4, r0
 80028e6:	461e      	mov	r6, r3
 80028e8:	9b09      	ldr	r3, [sp, #36]	; 0x24
 80028ea:	6301      	str	r1, [r0, #48]	; 0x30
 80028ec:	4f0b      	ldr	r7, [pc, #44]	; (800291c <MCP_Init+0x3c>)
 80028ee:	f8c4 30c4 	str.w	r3, [r4, #196]	; 0xc4
 80028f2:	9b0a      	ldr	r3, [sp, #40]	; 0x28
 80028f4:	f8c4 30c0 	str.w	r3, [r4, #192]	; 0xc0
 80028f8:	4608      	mov	r0, r1
 80028fa:	4615      	mov	r5, r2
 80028fc:	4621      	mov	r1, r4
 80028fe:	9700      	str	r7, [sp, #0]
 8002900:	4b07      	ldr	r3, [pc, #28]	; (8002920 <MCP_Init+0x40>)
 8002902:	9f08      	ldr	r7, [sp, #32]
 8002904:	4a07      	ldr	r2, [pc, #28]	; (8002924 <MCP_Init+0x44>)
 8002906:	f006 fb9b 	bl	8009040 <FCP_SetClient>
 800290a:	e9c4 560d 	strd	r5, r6, [r4, #52]	; 0x34
 800290e:	63e7      	str	r7, [r4, #60]	; 0x3c
 8002910:	4620      	mov	r0, r4
 8002912:	f7ff ffd7 	bl	80028c4 <MCP_WaitNextFrame>
 8002916:	b003      	add	sp, #12
 8002918:	bdf0      	pop	{r4, r5, r6, r7, pc}
 800291a:	bf00      	nop
 800291c:	08002929 	.word	0x08002929
 8002920:	0800225d 	.word	0x0800225d
 8002924:	08002931 	.word	0x08002931

08002928 <MCP_OnTimeOut>:
 8002928:	b508      	push	{r3, lr}
 800292a:	f7ff ffcb 	bl	80028c4 <MCP_WaitNextFrame>
 800292e:	bd08      	pop	{r3, pc}

08002930 <MCP_SentFrame>:
 8002930:	b508      	push	{r3, lr}
 8002932:	f7ff ffc7 	bl	80028c4 <MCP_WaitNextFrame>
 8002936:	bd08      	pop	{r3, pc}

08002938 <MX_MotorControl_Init>:
 8002938:	b530      	push	{r4, r5, lr}
 800293a:	b083      	sub	sp, #12
 800293c:	f004 f83e 	bl	80069bc <HAL_RCC_GetHCLKFreq>
 8002940:	4b0b      	ldr	r3, [pc, #44]	; (8002970 <MX_MotorControl_Init+0x38>)
 8002942:	4d0c      	ldr	r5, [pc, #48]	; (8002974 <MX_MotorControl_Init+0x3c>)
 8002944:	4c0c      	ldr	r4, [pc, #48]	; (8002978 <MX_MotorControl_Init+0x40>)
 8002946:	fba3 3000 	umull	r3, r0, r3, r0
 800294a:	09c0      	lsrs	r0, r0, #7
 800294c:	f002 f9fc 	bl	8004d48 <HAL_SYSTICK_Config>
 8002950:	4629      	mov	r1, r5
 8002952:	4620      	mov	r0, r4
 8002954:	f7ff f832 	bl	80019bc <MCboot>
 8002958:	f7ff fbc2 	bl	80020e0 <mc_lock_pins>
 800295c:	4b07      	ldr	r3, [pc, #28]	; (800297c <MX_MotorControl_Init+0x44>)
 800295e:	9300      	str	r3, [sp, #0]
 8002960:	4622      	mov	r2, r4
 8002962:	462b      	mov	r3, r5
 8002964:	2101      	movs	r1, #1
 8002966:	4806      	ldr	r0, [pc, #24]	; (8002980 <MX_MotorControl_Init+0x48>)
 8002968:	f000 fdd4 	bl	8003514 <UI_TaskInit>
 800296c:	b003      	add	sp, #12
 800296e:	bd30      	pop	{r4, r5, pc}
 8002970:	10624dd3 	.word	0x10624dd3
 8002974:	20000c90 	.word	0x20000c90
 8002978:	20000c8c 	.word	0x20000c8c
 800297c:	0800ae3c 	.word	0x0800ae3c
 8002980:	200005d8 	.word	0x200005d8

08002984 <RCM_RegisterRegConv>:
 8002984:	4a5c      	ldr	r2, [pc, #368]	; (8002af8 <RCM_RegisterRegConv+0x174>)
 8002986:	6811      	ldr	r1, [r2, #0]
 8002988:	b470      	push	{r4, r5, r6}
 800298a:	2900      	cmp	r1, #0
 800298c:	d076      	beq.n	8002a7c <RCM_RegisterRegConv+0xf8>
 800298e:	7904      	ldrb	r4, [r0, #4]
 8002990:	790b      	ldrb	r3, [r1, #4]
 8002992:	429c      	cmp	r4, r3
 8002994:	d01e      	beq.n	80029d4 <RCM_RegisterRegConv+0x50>
 8002996:	6853      	ldr	r3, [r2, #4]
 8002998:	2b00      	cmp	r3, #0
 800299a:	f000 8082 	beq.w	8002aa2 <RCM_RegisterRegConv+0x11e>
 800299e:	791d      	ldrb	r5, [r3, #4]
 80029a0:	42a5      	cmp	r5, r4
 80029a2:	f04f 01ff 	mov.w	r1, #255	; 0xff
 80029a6:	d070      	beq.n	8002a8a <RCM_RegisterRegConv+0x106>
 80029a8:	6895      	ldr	r5, [r2, #8]
 80029aa:	2d00      	cmp	r5, #0
 80029ac:	f000 8095 	beq.w	8002ada <RCM_RegisterRegConv+0x156>
 80029b0:	792b      	ldrb	r3, [r5, #4]
 80029b2:	42a3      	cmp	r3, r4
 80029b4:	d06f      	beq.n	8002a96 <RCM_RegisterRegConv+0x112>
 80029b6:	68d3      	ldr	r3, [r2, #12]
 80029b8:	2b00      	cmp	r3, #0
 80029ba:	f000 8089 	beq.w	8002ad0 <RCM_RegisterRegConv+0x14c>
 80029be:	791d      	ldrb	r5, [r3, #4]
 80029c0:	42a5      	cmp	r5, r4
 80029c2:	d078      	beq.n	8002ab6 <RCM_RegisterRegConv+0x132>
 80029c4:	2903      	cmp	r1, #3
 80029c6:	bf88      	it	hi
 80029c8:	21ff      	movhi	r1, #255	; 0xff
 80029ca:	f240 808b 	bls.w	8002ae4 <RCM_RegisterRegConv+0x160>
 80029ce:	4608      	mov	r0, r1
 80029d0:	bc70      	pop	{r4, r5, r6}
 80029d2:	4770      	bx	lr
 80029d4:	6809      	ldr	r1, [r1, #0]
 80029d6:	6803      	ldr	r3, [r0, #0]
 80029d8:	428b      	cmp	r3, r1
 80029da:	d1dc      	bne.n	8002996 <RCM_RegisterRegConv+0x12>
 80029dc:	2100      	movs	r1, #0
 80029de:	689c      	ldr	r4, [r3, #8]
 80029e0:	4d46      	ldr	r5, [pc, #280]	; (8002afc <RCM_RegisterRegConv+0x178>)
 80029e2:	f842 0021 	str.w	r0, [r2, r1, lsl #2]
 80029e6:	2200      	movs	r2, #0
 80029e8:	f845 2031 	str.w	r2, [r5, r1, lsl #3]
 80029ec:	07e5      	lsls	r5, r4, #31
 80029ee:	d422      	bmi.n	8002a36 <RCM_RegisterRegConv+0xb2>
 80029f0:	685a      	ldr	r2, [r3, #4]
 80029f2:	2404      	movs	r4, #4
 80029f4:	f022 0204 	bic.w	r2, r2, #4
 80029f8:	605a      	str	r2, [r3, #4]
 80029fa:	601c      	str	r4, [r3, #0]
 80029fc:	685a      	ldr	r2, [r3, #4]
 80029fe:	2420      	movs	r4, #32
 8002a00:	f022 0220 	bic.w	r2, r2, #32
 8002a04:	605a      	str	r2, [r3, #4]
 8002a06:	601c      	str	r4, [r3, #0]
 8002a08:	689a      	ldr	r2, [r3, #8]
 8002a0a:	f022 4240 	bic.w	r2, r2, #3221225472	; 0xc0000000
 8002a0e:	f022 023f 	bic.w	r2, r2, #63	; 0x3f
 8002a12:	f042 4200 	orr.w	r2, r2, #2147483648	; 0x80000000
 8002a16:	609a      	str	r2, [r3, #8]
 8002a18:	689a      	ldr	r2, [r3, #8]
 8002a1a:	2a00      	cmp	r2, #0
 8002a1c:	dbfc      	blt.n	8002a18 <RCM_RegisterRegConv+0x94>
 8002a1e:	681a      	ldr	r2, [r3, #0]
 8002a20:	07d4      	lsls	r4, r2, #31
 8002a22:	d408      	bmi.n	8002a36 <RCM_RegisterRegConv+0xb2>
 8002a24:	4c36      	ldr	r4, [pc, #216]	; (8002b00 <RCM_RegisterRegConv+0x17c>)
 8002a26:	689a      	ldr	r2, [r3, #8]
 8002a28:	4022      	ands	r2, r4
 8002a2a:	f042 0201 	orr.w	r2, r2, #1
 8002a2e:	609a      	str	r2, [r3, #8]
 8002a30:	681a      	ldr	r2, [r3, #0]
 8002a32:	07d2      	lsls	r2, r2, #31
 8002a34:	d5f7      	bpl.n	8002a26 <RCM_RegisterRegConv+0xa2>
 8002a36:	6b1a      	ldr	r2, [r3, #48]	; 0x30
 8002a38:	f022 020f 	bic.w	r2, r2, #15
 8002a3c:	631a      	str	r2, [r3, #48]	; 0x30
 8002a3e:	7904      	ldrb	r4, [r0, #4]
 8002a40:	2201      	movs	r2, #1
 8002a42:	2c09      	cmp	r4, #9
 8002a44:	ea4f 6684 	mov.w	r6, r4, lsl #26
 8002a48:	fa02 f204 	lsl.w	r2, r2, r4
 8002a4c:	eb04 0544 	add.w	r5, r4, r4, lsl #1
 8002a50:	d837      	bhi.n	8002ac2 <RCM_RegisterRegConv+0x13e>
 8002a52:	ea46 5505 	orr.w	r5, r6, r5, lsl #20
 8002a56:	432a      	orrs	r2, r5
 8002a58:	0dd4      	lsrs	r4, r2, #23
 8002a5a:	f004 0404 	and.w	r4, r4, #4
 8002a5e:	3314      	adds	r3, #20
 8002a60:	6885      	ldr	r5, [r0, #8]
 8002a62:	58e0      	ldr	r0, [r4, r3]
 8002a64:	f3c2 5204 	ubfx	r2, r2, #20, #5
 8002a68:	2607      	movs	r6, #7
 8002a6a:	4096      	lsls	r6, r2
 8002a6c:	4095      	lsls	r5, r2
 8002a6e:	ea20 0206 	bic.w	r2, r0, r6
 8002a72:	432a      	orrs	r2, r5
 8002a74:	50e2      	str	r2, [r4, r3]
 8002a76:	4608      	mov	r0, r1
 8002a78:	bc70      	pop	{r4, r5, r6}
 8002a7a:	4770      	bx	lr
 8002a7c:	6853      	ldr	r3, [r2, #4]
 8002a7e:	2b00      	cmp	r3, #0
 8002a80:	d032      	beq.n	8002ae8 <RCM_RegisterRegConv+0x164>
 8002a82:	7904      	ldrb	r4, [r0, #4]
 8002a84:	791d      	ldrb	r5, [r3, #4]
 8002a86:	42a5      	cmp	r5, r4
 8002a88:	d18e      	bne.n	80029a8 <RCM_RegisterRegConv+0x24>
 8002a8a:	681d      	ldr	r5, [r3, #0]
 8002a8c:	6803      	ldr	r3, [r0, #0]
 8002a8e:	42ab      	cmp	r3, r5
 8002a90:	d18a      	bne.n	80029a8 <RCM_RegisterRegConv+0x24>
 8002a92:	2101      	movs	r1, #1
 8002a94:	e7a3      	b.n	80029de <RCM_RegisterRegConv+0x5a>
 8002a96:	682d      	ldr	r5, [r5, #0]
 8002a98:	6803      	ldr	r3, [r0, #0]
 8002a9a:	429d      	cmp	r5, r3
 8002a9c:	d18b      	bne.n	80029b6 <RCM_RegisterRegConv+0x32>
 8002a9e:	2102      	movs	r1, #2
 8002aa0:	e79d      	b.n	80029de <RCM_RegisterRegConv+0x5a>
 8002aa2:	6895      	ldr	r5, [r2, #8]
 8002aa4:	2101      	movs	r1, #1
 8002aa6:	2d00      	cmp	r5, #0
 8002aa8:	d182      	bne.n	80029b0 <RCM_RegisterRegConv+0x2c>
 8002aaa:	68d3      	ldr	r3, [r2, #12]
 8002aac:	b1d3      	cbz	r3, 8002ae4 <RCM_RegisterRegConv+0x160>
 8002aae:	7904      	ldrb	r4, [r0, #4]
 8002ab0:	791d      	ldrb	r5, [r3, #4]
 8002ab2:	42a5      	cmp	r5, r4
 8002ab4:	d186      	bne.n	80029c4 <RCM_RegisterRegConv+0x40>
 8002ab6:	681c      	ldr	r4, [r3, #0]
 8002ab8:	6803      	ldr	r3, [r0, #0]
 8002aba:	429c      	cmp	r4, r3
 8002abc:	d182      	bne.n	80029c4 <RCM_RegisterRegConv+0x40>
 8002abe:	2103      	movs	r1, #3
 8002ac0:	e78d      	b.n	80029de <RCM_RegisterRegConv+0x5a>
 8002ac2:	f042 7200 	orr.w	r2, r2, #33554432	; 0x2000000
 8002ac6:	4332      	orrs	r2, r6
 8002ac8:	3d1e      	subs	r5, #30
 8002aca:	ea42 5205 	orr.w	r2, r2, r5, lsl #20
 8002ace:	e7c3      	b.n	8002a58 <RCM_RegisterRegConv+0xd4>
 8002ad0:	2904      	cmp	r1, #4
 8002ad2:	f67f af77 	bls.w	80029c4 <RCM_RegisterRegConv+0x40>
 8002ad6:	6803      	ldr	r3, [r0, #0]
 8002ad8:	e7f1      	b.n	8002abe <RCM_RegisterRegConv+0x13a>
 8002ada:	2904      	cmp	r1, #4
 8002adc:	bf8c      	ite	hi
 8002ade:	2102      	movhi	r1, #2
 8002ae0:	2100      	movls	r1, #0
 8002ae2:	e7e2      	b.n	8002aaa <RCM_RegisterRegConv+0x126>
 8002ae4:	6803      	ldr	r3, [r0, #0]
 8002ae6:	e77a      	b.n	80029de <RCM_RegisterRegConv+0x5a>
 8002ae8:	6895      	ldr	r5, [r2, #8]
 8002aea:	b115      	cbz	r5, 8002af2 <RCM_RegisterRegConv+0x16e>
 8002aec:	4619      	mov	r1, r3
 8002aee:	7904      	ldrb	r4, [r0, #4]
 8002af0:	e75e      	b.n	80029b0 <RCM_RegisterRegConv+0x2c>
 8002af2:	4629      	mov	r1, r5
 8002af4:	e7d9      	b.n	8002aaa <RCM_RegisterRegConv+0x126>
 8002af6:	bf00      	nop
 8002af8:	20000cbc 	.word	0x20000cbc
 8002afc:	20000c98 	.word	0x20000c98
 8002b00:	7fffffc0 	.word	0x7fffffc0

08002b04 <RCM_ExecRegularConv>:
 8002b04:	b410      	push	{r4}
 8002b06:	4b19      	ldr	r3, [pc, #100]	; (8002b6c <RCM_ExecRegularConv+0x68>)
 8002b08:	f853 3020 	ldr.w	r3, [r3, r0, lsl #2]
 8002b0c:	7919      	ldrb	r1, [r3, #4]
 8002b0e:	681a      	ldr	r2, [r3, #0]
 8002b10:	2909      	cmp	r1, #9
 8002b12:	f04f 0301 	mov.w	r3, #1
 8002b16:	ea4f 6481 	mov.w	r4, r1, lsl #26
 8002b1a:	fa03 f301 	lsl.w	r3, r3, r1
 8002b1e:	eb01 0041 	add.w	r0, r1, r1, lsl #1
 8002b22:	d81b      	bhi.n	8002b5c <RCM_ExecRegularConv+0x58>
 8002b24:	ea44 5000 	orr.w	r0, r4, r0, lsl #20
 8002b28:	4303      	orrs	r3, r0
 8002b2a:	6b11      	ldr	r1, [r2, #48]	; 0x30
 8002b2c:	0d1b      	lsrs	r3, r3, #20
 8002b2e:	f403 63f8 	and.w	r3, r3, #1984	; 0x7c0
 8002b32:	f421 61f8 	bic.w	r1, r1, #1984	; 0x7c0
 8002b36:	430b      	orrs	r3, r1
 8002b38:	6313      	str	r3, [r2, #48]	; 0x30
 8002b3a:	6c13      	ldr	r3, [r2, #64]	; 0x40
 8002b3c:	6893      	ldr	r3, [r2, #8]
 8002b3e:	f023 4300 	bic.w	r3, r3, #2147483648	; 0x80000000
 8002b42:	f023 033f 	bic.w	r3, r3, #63	; 0x3f
 8002b46:	f043 0304 	orr.w	r3, r3, #4
 8002b4a:	6093      	str	r3, [r2, #8]
 8002b4c:	6813      	ldr	r3, [r2, #0]
 8002b4e:	075b      	lsls	r3, r3, #29
 8002b50:	d5fc      	bpl.n	8002b4c <RCM_ExecRegularConv+0x48>
 8002b52:	6c10      	ldr	r0, [r2, #64]	; 0x40
 8002b54:	f85d 4b04 	ldr.w	r4, [sp], #4
 8002b58:	b280      	uxth	r0, r0
 8002b5a:	4770      	bx	lr
 8002b5c:	f043 7300 	orr.w	r3, r3, #33554432	; 0x2000000
 8002b60:	4323      	orrs	r3, r4
 8002b62:	381e      	subs	r0, #30
 8002b64:	ea43 5300 	orr.w	r3, r3, r0, lsl #20
 8002b68:	e7df      	b.n	8002b2a <RCM_ExecRegularConv+0x26>
 8002b6a:	bf00      	nop
 8002b6c:	20000cbc 	.word	0x20000cbc

08002b70 <RCM_ExecUserConv>:
 8002b70:	b470      	push	{r4, r5, r6}
 8002b72:	4c23      	ldr	r4, [pc, #140]	; (8002c00 <RCM_ExecUserConv+0x90>)
 8002b74:	7823      	ldrb	r3, [r4, #0]
 8002b76:	2b01      	cmp	r3, #1
 8002b78:	d001      	beq.n	8002b7e <RCM_ExecUserConv+0xe>
 8002b7a:	bc70      	pop	{r4, r5, r6}
 8002b7c:	4770      	bx	lr
 8002b7e:	4921      	ldr	r1, [pc, #132]	; (8002c04 <RCM_ExecUserConv+0x94>)
 8002b80:	4a21      	ldr	r2, [pc, #132]	; (8002c08 <RCM_ExecUserConv+0x98>)
 8002b82:	7808      	ldrb	r0, [r1, #0]
 8002b84:	f852 2020 	ldr.w	r2, [r2, r0, lsl #2]
 8002b88:	7911      	ldrb	r1, [r2, #4]
 8002b8a:	6812      	ldr	r2, [r2, #0]
 8002b8c:	2909      	cmp	r1, #9
 8002b8e:	fa03 f301 	lsl.w	r3, r3, r1
 8002b92:	ea4f 6681 	mov.w	r6, r1, lsl #26
 8002b96:	eb01 0541 	add.w	r5, r1, r1, lsl #1
 8002b9a:	d92c      	bls.n	8002bf6 <RCM_ExecUserConv+0x86>
 8002b9c:	f043 7300 	orr.w	r3, r3, #33554432	; 0x2000000
 8002ba0:	4333      	orrs	r3, r6
 8002ba2:	3d1e      	subs	r5, #30
 8002ba4:	ea43 5305 	orr.w	r3, r3, r5, lsl #20
 8002ba8:	6b11      	ldr	r1, [r2, #48]	; 0x30
 8002baa:	0d1b      	lsrs	r3, r3, #20
 8002bac:	f403 63f8 	and.w	r3, r3, #1984	; 0x7c0
 8002bb0:	f421 61f8 	bic.w	r1, r1, #1984	; 0x7c0
 8002bb4:	430b      	orrs	r3, r1
 8002bb6:	6313      	str	r3, [r2, #48]	; 0x30
 8002bb8:	6c13      	ldr	r3, [r2, #64]	; 0x40
 8002bba:	6893      	ldr	r3, [r2, #8]
 8002bbc:	f023 4300 	bic.w	r3, r3, #2147483648	; 0x80000000
 8002bc0:	f023 033f 	bic.w	r3, r3, #63	; 0x3f
 8002bc4:	f043 0304 	orr.w	r3, r3, #4
 8002bc8:	6093      	str	r3, [r2, #8]
 8002bca:	6813      	ldr	r3, [r2, #0]
 8002bcc:	075b      	lsls	r3, r3, #29
 8002bce:	d5fc      	bpl.n	8002bca <RCM_ExecUserConv+0x5a>
 8002bd0:	4b0e      	ldr	r3, [pc, #56]	; (8002c0c <RCM_ExecUserConv+0x9c>)
 8002bd2:	6c11      	ldr	r1, [r2, #64]	; 0x40
 8002bd4:	4e0e      	ldr	r6, [pc, #56]	; (8002c10 <RCM_ExecUserConv+0xa0>)
 8002bd6:	f853 5030 	ldr.w	r5, [r3, r0, lsl #3]
 8002bda:	b289      	uxth	r1, r1
 8002bdc:	2202      	movs	r2, #2
 8002bde:	8031      	strh	r1, [r6, #0]
 8002be0:	7022      	strb	r2, [r4, #0]
 8002be2:	2d00      	cmp	r5, #0
 8002be4:	d0c9      	beq.n	8002b7a <RCM_ExecUserConv+0xa>
 8002be6:	eb03 03c0 	add.w	r3, r3, r0, lsl #3
 8002bea:	2600      	movs	r6, #0
 8002bec:	685a      	ldr	r2, [r3, #4]
 8002bee:	7026      	strb	r6, [r4, #0]
 8002bf0:	462b      	mov	r3, r5
 8002bf2:	bc70      	pop	{r4, r5, r6}
 8002bf4:	4718      	bx	r3
 8002bf6:	ea46 5505 	orr.w	r5, r6, r5, lsl #20
 8002bfa:	432b      	orrs	r3, r5
 8002bfc:	e7d4      	b.n	8002ba8 <RCM_ExecUserConv+0x38>
 8002bfe:	bf00      	nop
 8002c00:	20000cb8 	.word	0x20000cb8
 8002c04:	20000c94 	.word	0x20000c94
 8002c08:	20000cbc 	.word	0x20000cbc
 8002c0c:	20000c98 	.word	0x20000c98
 8002c10:	20000ccc 	.word	0x20000ccc

08002c14 <HAL_MspInit>:
 8002c14:	4b0f      	ldr	r3, [pc, #60]	; (8002c54 <HAL_MspInit+0x40>)
 8002c16:	b500      	push	{lr}
 8002c18:	6e1a      	ldr	r2, [r3, #96]	; 0x60
 8002c1a:	f042 0201 	orr.w	r2, r2, #1
 8002c1e:	661a      	str	r2, [r3, #96]	; 0x60
 8002c20:	6e1a      	ldr	r2, [r3, #96]	; 0x60
 8002c22:	b083      	sub	sp, #12
 8002c24:	f002 0201 	and.w	r2, r2, #1
 8002c28:	9200      	str	r2, [sp, #0]
 8002c2a:	9a00      	ldr	r2, [sp, #0]
 8002c2c:	6d9a      	ldr	r2, [r3, #88]	; 0x58
 8002c2e:	f042 5280 	orr.w	r2, r2, #268435456	; 0x10000000
 8002c32:	659a      	str	r2, [r3, #88]	; 0x58
 8002c34:	6d9b      	ldr	r3, [r3, #88]	; 0x58
 8002c36:	f003 5380 	and.w	r3, r3, #268435456	; 0x10000000
 8002c3a:	9301      	str	r3, [sp, #4]
 8002c3c:	2004      	movs	r0, #4
 8002c3e:	9b01      	ldr	r3, [sp, #4]
 8002c40:	f002 f818 	bl	8004c74 <HAL_NVIC_SetPriorityGrouping>
 8002c44:	4a04      	ldr	r2, [pc, #16]	; (8002c58 <HAL_MspInit+0x44>)
 8002c46:	6893      	ldr	r3, [r2, #8]
 8002c48:	f423 4380 	bic.w	r3, r3, #16384	; 0x4000
 8002c4c:	6093      	str	r3, [r2, #8]
 8002c4e:	b003      	add	sp, #12
 8002c50:	f85d fb04 	ldr.w	pc, [sp], #4
 8002c54:	40021000 	.word	0x40021000
 8002c58:	40007000 	.word	0x40007000

08002c5c <HAL_ADC_MspInit>:
 8002c5c:	b510      	push	{r4, lr}
 8002c5e:	6802      	ldr	r2, [r0, #0]
 8002c60:	b08a      	sub	sp, #40	; 0x28
 8002c62:	2300      	movs	r3, #0
 8002c64:	f1b2 4fa0 	cmp.w	r2, #1342177280	; 0x50000000
 8002c68:	e9cd 3305 	strd	r3, r3, [sp, #20]
 8002c6c:	e9cd 3307 	strd	r3, r3, [sp, #28]
 8002c70:	9309      	str	r3, [sp, #36]	; 0x24
 8002c72:	d01f      	beq.n	8002cb4 <HAL_ADC_MspInit+0x58>
 8002c74:	4b31      	ldr	r3, [pc, #196]	; (8002d3c <HAL_ADC_MspInit+0xe0>)
 8002c76:	429a      	cmp	r2, r3
 8002c78:	d001      	beq.n	8002c7e <HAL_ADC_MspInit+0x22>
 8002c7a:	b00a      	add	sp, #40	; 0x28
 8002c7c:	bd10      	pop	{r4, pc}
 8002c7e:	4a30      	ldr	r2, [pc, #192]	; (8002d40 <HAL_ADC_MspInit+0xe4>)
 8002c80:	6813      	ldr	r3, [r2, #0]
 8002c82:	3301      	adds	r3, #1
 8002c84:	2b01      	cmp	r3, #1
 8002c86:	6013      	str	r3, [r2, #0]
 8002c88:	d04d      	beq.n	8002d26 <HAL_ADC_MspInit+0xca>
 8002c8a:	4b2e      	ldr	r3, [pc, #184]	; (8002d44 <HAL_ADC_MspInit+0xe8>)
 8002c8c:	6cda      	ldr	r2, [r3, #76]	; 0x4c
 8002c8e:	f042 0201 	orr.w	r2, r2, #1
 8002c92:	64da      	str	r2, [r3, #76]	; 0x4c
 8002c94:	6cdb      	ldr	r3, [r3, #76]	; 0x4c
 8002c96:	f003 0301 	and.w	r3, r3, #1
 8002c9a:	9304      	str	r3, [sp, #16]
 8002c9c:	2240      	movs	r2, #64	; 0x40
 8002c9e:	2303      	movs	r3, #3
 8002ca0:	a905      	add	r1, sp, #20
 8002ca2:	f04f 4090 	mov.w	r0, #1207959552	; 0x48000000
 8002ca6:	9c04      	ldr	r4, [sp, #16]
 8002ca8:	e9cd 2305 	strd	r2, r3, [sp, #20]
 8002cac:	f003 f808 	bl	8005cc0 <HAL_GPIO_Init>
 8002cb0:	b00a      	add	sp, #40	; 0x28
 8002cb2:	bd10      	pop	{r4, pc}
 8002cb4:	4a22      	ldr	r2, [pc, #136]	; (8002d40 <HAL_ADC_MspInit+0xe4>)
 8002cb6:	6813      	ldr	r3, [r2, #0]
 8002cb8:	3301      	adds	r3, #1
 8002cba:	2b01      	cmp	r3, #1
 8002cbc:	6013      	str	r3, [r2, #0]
 8002cbe:	d027      	beq.n	8002d10 <HAL_ADC_MspInit+0xb4>
 8002cc0:	4b20      	ldr	r3, [pc, #128]	; (8002d44 <HAL_ADC_MspInit+0xe8>)
 8002cc2:	6cda      	ldr	r2, [r3, #76]	; 0x4c
 8002cc4:	f042 0201 	orr.w	r2, r2, #1
 8002cc8:	64da      	str	r2, [r3, #76]	; 0x4c
 8002cca:	6cda      	ldr	r2, [r3, #76]	; 0x4c
 8002ccc:	f002 0201 	and.w	r2, r2, #1
 8002cd0:	9201      	str	r2, [sp, #4]
 8002cd2:	9a01      	ldr	r2, [sp, #4]
 8002cd4:	6cda      	ldr	r2, [r3, #76]	; 0x4c
 8002cd6:	f042 0202 	orr.w	r2, r2, #2
 8002cda:	64da      	str	r2, [r3, #76]	; 0x4c
 8002cdc:	6cdb      	ldr	r3, [r3, #76]	; 0x4c
 8002cde:	f003 0302 	and.w	r3, r3, #2
 8002ce2:	9302      	str	r3, [sp, #8]
 8002ce4:	2403      	movs	r4, #3
 8002ce6:	2305      	movs	r3, #5
 8002ce8:	a905      	add	r1, sp, #20
 8002cea:	f04f 4090 	mov.w	r0, #1207959552	; 0x48000000
 8002cee:	9a02      	ldr	r2, [sp, #8]
 8002cf0:	e9cd 3405 	strd	r3, r4, [sp, #20]
 8002cf4:	f002 ffe4 	bl	8005cc0 <HAL_GPIO_Init>
 8002cf8:	f244 0202 	movw	r2, #16386	; 0x4002
 8002cfc:	2300      	movs	r3, #0
 8002cfe:	a905      	add	r1, sp, #20
 8002d00:	4811      	ldr	r0, [pc, #68]	; (8002d48 <HAL_ADC_MspInit+0xec>)
 8002d02:	9307      	str	r3, [sp, #28]
 8002d04:	e9cd 2405 	strd	r2, r4, [sp, #20]
 8002d08:	f002 ffda 	bl	8005cc0 <HAL_GPIO_Init>
 8002d0c:	b00a      	add	sp, #40	; 0x28
 8002d0e:	bd10      	pop	{r4, pc}
 8002d10:	4b0c      	ldr	r3, [pc, #48]	; (8002d44 <HAL_ADC_MspInit+0xe8>)
 8002d12:	6cda      	ldr	r2, [r3, #76]	; 0x4c
 8002d14:	f442 5200 	orr.w	r2, r2, #8192	; 0x2000
 8002d18:	64da      	str	r2, [r3, #76]	; 0x4c
 8002d1a:	6cdb      	ldr	r3, [r3, #76]	; 0x4c
 8002d1c:	f403 5300 	and.w	r3, r3, #8192	; 0x2000
 8002d20:	9300      	str	r3, [sp, #0]
 8002d22:	9b00      	ldr	r3, [sp, #0]
 8002d24:	e7cc      	b.n	8002cc0 <HAL_ADC_MspInit+0x64>
 8002d26:	4b07      	ldr	r3, [pc, #28]	; (8002d44 <HAL_ADC_MspInit+0xe8>)
 8002d28:	6cda      	ldr	r2, [r3, #76]	; 0x4c
 8002d2a:	f442 5200 	orr.w	r2, r2, #8192	; 0x2000
 8002d2e:	64da      	str	r2, [r3, #76]	; 0x4c
 8002d30:	6cdb      	ldr	r3, [r3, #76]	; 0x4c
 8002d32:	f403 5300 	and.w	r3, r3, #8192	; 0x2000
 8002d36:	9303      	str	r3, [sp, #12]
 8002d38:	9b03      	ldr	r3, [sp, #12]
 8002d3a:	e7a6      	b.n	8002c8a <HAL_ADC_MspInit+0x2e>
 8002d3c:	50000100 	.word	0x50000100
 8002d40:	2000063c 	.word	0x2000063c
 8002d44:	40021000 	.word	0x40021000
 8002d48:	48000400 	.word	0x48000400

08002d4c <HAL_COMP_MspInit>:
 8002d4c:	b510      	push	{r4, lr}
 8002d4e:	6802      	ldr	r2, [r0, #0]
 8002d50:	492c      	ldr	r1, [pc, #176]	; (8002e04 <HAL_COMP_MspInit+0xb8>)
 8002d52:	b088      	sub	sp, #32
 8002d54:	2300      	movs	r3, #0
 8002d56:	428a      	cmp	r2, r1
 8002d58:	e9cd 3303 	strd	r3, r3, [sp, #12]
 8002d5c:	e9cd 3305 	strd	r3, r3, [sp, #20]
 8002d60:	9307      	str	r3, [sp, #28]
 8002d62:	d007      	beq.n	8002d74 <HAL_COMP_MspInit+0x28>
 8002d64:	4b28      	ldr	r3, [pc, #160]	; (8002e08 <HAL_COMP_MspInit+0xbc>)
 8002d66:	429a      	cmp	r2, r3
 8002d68:	d033      	beq.n	8002dd2 <HAL_COMP_MspInit+0x86>
 8002d6a:	4b28      	ldr	r3, [pc, #160]	; (8002e0c <HAL_COMP_MspInit+0xc0>)
 8002d6c:	429a      	cmp	r2, r3
 8002d6e:	d019      	beq.n	8002da4 <HAL_COMP_MspInit+0x58>
 8002d70:	b008      	add	sp, #32
 8002d72:	bd10      	pop	{r4, pc}
 8002d74:	f103 4380 	add.w	r3, r3, #1073741824	; 0x40000000
 8002d78:	f503 3304 	add.w	r3, r3, #135168	; 0x21000
 8002d7c:	a903      	add	r1, sp, #12
 8002d7e:	6cda      	ldr	r2, [r3, #76]	; 0x4c
 8002d80:	f042 0201 	orr.w	r2, r2, #1
 8002d84:	64da      	str	r2, [r3, #76]	; 0x4c
 8002d86:	6cdb      	ldr	r3, [r3, #76]	; 0x4c
 8002d88:	f003 0301 	and.w	r3, r3, #1
 8002d8c:	9300      	str	r3, [sp, #0]
 8002d8e:	2202      	movs	r2, #2
 8002d90:	2303      	movs	r3, #3
 8002d92:	f04f 4090 	mov.w	r0, #1207959552	; 0x48000000
 8002d96:	9c00      	ldr	r4, [sp, #0]
 8002d98:	e9cd 2303 	strd	r2, r3, [sp, #12]
 8002d9c:	f002 ff90 	bl	8005cc0 <HAL_GPIO_Init>
 8002da0:	b008      	add	sp, #32
 8002da2:	bd10      	pop	{r4, pc}
 8002da4:	f503 3386 	add.w	r3, r3, #68608	; 0x10c00
 8002da8:	f503 73fa 	add.w	r3, r3, #500	; 0x1f4
 8002dac:	6cda      	ldr	r2, [r3, #76]	; 0x4c
 8002dae:	4818      	ldr	r0, [pc, #96]	; (8002e10 <HAL_COMP_MspInit+0xc4>)
 8002db0:	f042 0202 	orr.w	r2, r2, #2
 8002db4:	64da      	str	r2, [r3, #76]	; 0x4c
 8002db6:	6cdb      	ldr	r3, [r3, #76]	; 0x4c
 8002db8:	f003 0302 	and.w	r3, r3, #2
 8002dbc:	9302      	str	r3, [sp, #8]
 8002dbe:	2201      	movs	r2, #1
 8002dc0:	2303      	movs	r3, #3
 8002dc2:	a903      	add	r1, sp, #12
 8002dc4:	9c02      	ldr	r4, [sp, #8]
 8002dc6:	e9cd 2303 	strd	r2, r3, [sp, #12]
 8002dca:	f002 ff79 	bl	8005cc0 <HAL_GPIO_Init>
 8002dce:	b008      	add	sp, #32
 8002dd0:	bd10      	pop	{r4, pc}
 8002dd2:	f503 3386 	add.w	r3, r3, #68608	; 0x10c00
 8002dd6:	f503 73fe 	add.w	r3, r3, #508	; 0x1fc
 8002dda:	6cda      	ldr	r2, [r3, #76]	; 0x4c
 8002ddc:	f042 0201 	orr.w	r2, r2, #1
 8002de0:	64da      	str	r2, [r3, #76]	; 0x4c
 8002de2:	6cdb      	ldr	r3, [r3, #76]	; 0x4c
 8002de4:	f003 0301 	and.w	r3, r3, #1
 8002de8:	9301      	str	r3, [sp, #4]
 8002dea:	2280      	movs	r2, #128	; 0x80
 8002dec:	2303      	movs	r3, #3
 8002dee:	a903      	add	r1, sp, #12
 8002df0:	f04f 4090 	mov.w	r0, #1207959552	; 0x48000000
 8002df4:	9c01      	ldr	r4, [sp, #4]
 8002df6:	e9cd 2303 	strd	r2, r3, [sp, #12]
 8002dfa:	f002 ff61 	bl	8005cc0 <HAL_GPIO_Init>
 8002dfe:	b008      	add	sp, #32
 8002e00:	bd10      	pop	{r4, pc}
 8002e02:	bf00      	nop
 8002e04:	40010200 	.word	0x40010200
 8002e08:	40010204 	.word	0x40010204
 8002e0c:	4001020c 	.word	0x4001020c
 8002e10:	48000400 	.word	0x48000400

08002e14 <HAL_CORDIC_MspInit>:
 8002e14:	6802      	ldr	r2, [r0, #0]
 8002e16:	4b0a      	ldr	r3, [pc, #40]	; (8002e40 <HAL_CORDIC_MspInit+0x2c>)
 8002e18:	429a      	cmp	r2, r3
 8002e1a:	d000      	beq.n	8002e1e <HAL_CORDIC_MspInit+0xa>
 8002e1c:	4770      	bx	lr
 8002e1e:	f8d3 2448 	ldr.w	r2, [r3, #1096]	; 0x448
 8002e22:	f042 0208 	orr.w	r2, r2, #8
 8002e26:	f8c3 2448 	str.w	r2, [r3, #1096]	; 0x448
 8002e2a:	f503 6380 	add.w	r3, r3, #1024	; 0x400
 8002e2e:	b082      	sub	sp, #8
 8002e30:	6c9b      	ldr	r3, [r3, #72]	; 0x48
 8002e32:	f003 0308 	and.w	r3, r3, #8
 8002e36:	9301      	str	r3, [sp, #4]
 8002e38:	9b01      	ldr	r3, [sp, #4]
 8002e3a:	b002      	add	sp, #8
 8002e3c:	4770      	bx	lr
 8002e3e:	bf00      	nop
 8002e40:	40020c00 	.word	0x40020c00

08002e44 <HAL_DAC_MspInit>:
 8002e44:	b510      	push	{r4, lr}
 8002e46:	6801      	ldr	r1, [r0, #0]
 8002e48:	4a16      	ldr	r2, [pc, #88]	; (8002ea4 <HAL_DAC_MspInit+0x60>)
 8002e4a:	b088      	sub	sp, #32
 8002e4c:	2300      	movs	r3, #0
 8002e4e:	4291      	cmp	r1, r2
 8002e50:	e9cd 3303 	strd	r3, r3, [sp, #12]
 8002e54:	e9cd 3305 	strd	r3, r3, [sp, #20]
 8002e58:	9307      	str	r3, [sp, #28]
 8002e5a:	d001      	beq.n	8002e60 <HAL_DAC_MspInit+0x1c>
 8002e5c:	b008      	add	sp, #32
 8002e5e:	bd10      	pop	{r4, pc}
 8002e60:	f103 4380 	add.w	r3, r3, #1073741824	; 0x40000000
 8002e64:	f503 3304 	add.w	r3, r3, #135168	; 0x21000
 8002e68:	a903      	add	r1, sp, #12
 8002e6a:	6cda      	ldr	r2, [r3, #76]	; 0x4c
 8002e6c:	f442 3280 	orr.w	r2, r2, #65536	; 0x10000
 8002e70:	64da      	str	r2, [r3, #76]	; 0x4c
 8002e72:	6cda      	ldr	r2, [r3, #76]	; 0x4c
 8002e74:	f402 3280 	and.w	r2, r2, #65536	; 0x10000
 8002e78:	9201      	str	r2, [sp, #4]
 8002e7a:	9a01      	ldr	r2, [sp, #4]
 8002e7c:	6cda      	ldr	r2, [r3, #76]	; 0x4c
 8002e7e:	f042 0201 	orr.w	r2, r2, #1
 8002e82:	64da      	str	r2, [r3, #76]	; 0x4c
 8002e84:	6cdb      	ldr	r3, [r3, #76]	; 0x4c
 8002e86:	f003 0301 	and.w	r3, r3, #1
 8002e8a:	9302      	str	r3, [sp, #8]
 8002e8c:	2210      	movs	r2, #16
 8002e8e:	2303      	movs	r3, #3
 8002e90:	f04f 4090 	mov.w	r0, #1207959552	; 0x48000000
 8002e94:	9c02      	ldr	r4, [sp, #8]
 8002e96:	e9cd 2303 	strd	r2, r3, [sp, #12]
 8002e9a:	f002 ff11 	bl	8005cc0 <HAL_GPIO_Init>
 8002e9e:	b008      	add	sp, #32
 8002ea0:	bd10      	pop	{r4, pc}
 8002ea2:	bf00      	nop
 8002ea4:	50000800 	.word	0x50000800

08002ea8 <HAL_FDCAN_MspInit>:
 8002ea8:	b570      	push	{r4, r5, r6, lr}
 8002eaa:	6802      	ldr	r2, [r0, #0]
 8002eac:	4b24      	ldr	r3, [pc, #144]	; (8002f40 <HAL_FDCAN_MspInit+0x98>)
 8002eae:	b088      	sub	sp, #32
 8002eb0:	2400      	movs	r4, #0
 8002eb2:	429a      	cmp	r2, r3
 8002eb4:	e9cd 4403 	strd	r4, r4, [sp, #12]
 8002eb8:	e9cd 4405 	strd	r4, r4, [sp, #20]
 8002ebc:	9407      	str	r4, [sp, #28]
 8002ebe:	d001      	beq.n	8002ec4 <HAL_FDCAN_MspInit+0x1c>
 8002ec0:	b008      	add	sp, #32
 8002ec2:	bd70      	pop	{r4, r5, r6, pc}
 8002ec4:	f503 33d6 	add.w	r3, r3, #109568	; 0x1ac00
 8002ec8:	2602      	movs	r6, #2
 8002eca:	6d9a      	ldr	r2, [r3, #88]	; 0x58
 8002ecc:	f042 7200 	orr.w	r2, r2, #33554432	; 0x2000000
 8002ed0:	659a      	str	r2, [r3, #88]	; 0x58
 8002ed2:	6d9a      	ldr	r2, [r3, #88]	; 0x58
 8002ed4:	f002 7200 	and.w	r2, r2, #33554432	; 0x2000000
 8002ed8:	9200      	str	r2, [sp, #0]
 8002eda:	9a00      	ldr	r2, [sp, #0]
 8002edc:	6cda      	ldr	r2, [r3, #76]	; 0x4c
 8002ede:	f042 0201 	orr.w	r2, r2, #1
 8002ee2:	64da      	str	r2, [r3, #76]	; 0x4c
 8002ee4:	6cda      	ldr	r2, [r3, #76]	; 0x4c
 8002ee6:	f002 0201 	and.w	r2, r2, #1
 8002eea:	9201      	str	r2, [sp, #4]
 8002eec:	9a01      	ldr	r2, [sp, #4]
 8002eee:	6cda      	ldr	r2, [r3, #76]	; 0x4c
 8002ef0:	f042 0202 	orr.w	r2, r2, #2
 8002ef4:	64da      	str	r2, [r3, #76]	; 0x4c
 8002ef6:	6cdb      	ldr	r3, [r3, #76]	; 0x4c
 8002ef8:	f003 0302 	and.w	r3, r3, #2
 8002efc:	9302      	str	r3, [sp, #8]
 8002efe:	2509      	movs	r5, #9
 8002f00:	f44f 6300 	mov.w	r3, #2048	; 0x800
 8002f04:	a903      	add	r1, sp, #12
 8002f06:	f04f 4090 	mov.w	r0, #1207959552	; 0x48000000
 8002f0a:	9a02      	ldr	r2, [sp, #8]
 8002f0c:	9507      	str	r5, [sp, #28]
 8002f0e:	e9cd 3603 	strd	r3, r6, [sp, #12]
 8002f12:	f002 fed5 	bl	8005cc0 <HAL_GPIO_Init>
 8002f16:	f44f 7300 	mov.w	r3, #512	; 0x200
 8002f1a:	a903      	add	r1, sp, #12
 8002f1c:	4809      	ldr	r0, [pc, #36]	; (8002f44 <HAL_FDCAN_MspInit+0x9c>)
 8002f1e:	9303      	str	r3, [sp, #12]
 8002f20:	9604      	str	r6, [sp, #16]
 8002f22:	9507      	str	r5, [sp, #28]
 8002f24:	e9cd 4405 	strd	r4, r4, [sp, #20]
 8002f28:	f002 feca 	bl	8005cc0 <HAL_GPIO_Init>
 8002f2c:	4622      	mov	r2, r4
 8002f2e:	2103      	movs	r1, #3
 8002f30:	2016      	movs	r0, #22
 8002f32:	f001 feb1 	bl	8004c98 <HAL_NVIC_SetPriority>
 8002f36:	2016      	movs	r0, #22
 8002f38:	f001 fee4 	bl	8004d04 <HAL_NVIC_EnableIRQ>
 8002f3c:	b008      	add	sp, #32
 8002f3e:	bd70      	pop	{r4, r5, r6, pc}
 8002f40:	40006400 	.word	0x40006400
 8002f44:	48000400 	.word	0x48000400

08002f48 <HAL_OPAMP_MspInit>:
 8002f48:	b510      	push	{r4, lr}
 8002f4a:	6802      	ldr	r2, [r0, #0]
 8002f4c:	492b      	ldr	r1, [pc, #172]	; (8002ffc <HAL_OPAMP_MspInit+0xb4>)
 8002f4e:	b088      	sub	sp, #32
 8002f50:	2300      	movs	r3, #0
 8002f52:	428a      	cmp	r2, r1
 8002f54:	e9cd 3303 	strd	r3, r3, [sp, #12]
 8002f58:	e9cd 3305 	strd	r3, r3, [sp, #20]
 8002f5c:	9307      	str	r3, [sp, #28]
 8002f5e:	d007      	beq.n	8002f70 <HAL_OPAMP_MspInit+0x28>
 8002f60:	4b27      	ldr	r3, [pc, #156]	; (8003000 <HAL_OPAMP_MspInit+0xb8>)
 8002f62:	429a      	cmp	r2, r3
 8002f64:	d032      	beq.n	8002fcc <HAL_OPAMP_MspInit+0x84>
 8002f66:	4b27      	ldr	r3, [pc, #156]	; (8003004 <HAL_OPAMP_MspInit+0xbc>)
 8002f68:	429a      	cmp	r2, r3
 8002f6a:	d019      	beq.n	8002fa0 <HAL_OPAMP_MspInit+0x58>
 8002f6c:	b008      	add	sp, #32
 8002f6e:	bd10      	pop	{r4, pc}
 8002f70:	f103 4380 	add.w	r3, r3, #1073741824	; 0x40000000
 8002f74:	f503 3304 	add.w	r3, r3, #135168	; 0x21000
 8002f78:	a903      	add	r1, sp, #12
 8002f7a:	6cda      	ldr	r2, [r3, #76]	; 0x4c
 8002f7c:	f042 0201 	orr.w	r2, r2, #1
 8002f80:	64da      	str	r2, [r3, #76]	; 0x4c
 8002f82:	6cdb      	ldr	r3, [r3, #76]	; 0x4c
 8002f84:	f003 0301 	and.w	r3, r3, #1
 8002f88:	9300      	str	r3, [sp, #0]
 8002f8a:	220e      	movs	r2, #14
 8002f8c:	2303      	movs	r3, #3
 8002f8e:	f04f 4090 	mov.w	r0, #1207959552	; 0x48000000
 8002f92:	9c00      	ldr	r4, [sp, #0]
 8002f94:	e9cd 2303 	strd	r2, r3, [sp, #12]
 8002f98:	f002 fe92 	bl	8005cc0 <HAL_GPIO_Init>
 8002f9c:	b008      	add	sp, #32
 8002f9e:	bd10      	pop	{r4, pc}
 8002fa0:	f503 3386 	add.w	r3, r3, #68608	; 0x10c00
 8002fa4:	33f8      	adds	r3, #248	; 0xf8
 8002fa6:	6cda      	ldr	r2, [r3, #76]	; 0x4c
 8002fa8:	4817      	ldr	r0, [pc, #92]	; (8003008 <HAL_OPAMP_MspInit+0xc0>)
 8002faa:	f042 0202 	orr.w	r2, r2, #2
 8002fae:	64da      	str	r2, [r3, #76]	; 0x4c
 8002fb0:	6cdb      	ldr	r3, [r3, #76]	; 0x4c
 8002fb2:	f003 0302 	and.w	r3, r3, #2
 8002fb6:	9302      	str	r3, [sp, #8]
 8002fb8:	2207      	movs	r2, #7
 8002fba:	2303      	movs	r3, #3
 8002fbc:	a903      	add	r1, sp, #12
 8002fbe:	9c02      	ldr	r4, [sp, #8]
 8002fc0:	e9cd 2303 	strd	r2, r3, [sp, #12]
 8002fc4:	f002 fe7c 	bl	8005cc0 <HAL_GPIO_Init>
 8002fc8:	b008      	add	sp, #32
 8002fca:	bd10      	pop	{r4, pc}
 8002fcc:	f503 3386 	add.w	r3, r3, #68608	; 0x10c00
 8002fd0:	33fc      	adds	r3, #252	; 0xfc
 8002fd2:	6cda      	ldr	r2, [r3, #76]	; 0x4c
 8002fd4:	f042 0201 	orr.w	r2, r2, #1
 8002fd8:	64da      	str	r2, [r3, #76]	; 0x4c
 8002fda:	6cdb      	ldr	r3, [r3, #76]	; 0x4c
 8002fdc:	f003 0301 	and.w	r3, r3, #1
 8002fe0:	9301      	str	r3, [sp, #4]
 8002fe2:	22e0      	movs	r2, #224	; 0xe0
 8002fe4:	2303      	movs	r3, #3
 8002fe6:	a903      	add	r1, sp, #12
 8002fe8:	f04f 4090 	mov.w	r0, #1207959552	; 0x48000000
 8002fec:	9c01      	ldr	r4, [sp, #4]
 8002fee:	e9cd 2303 	strd	r2, r3, [sp, #12]
 8002ff2:	f002 fe65 	bl	8005cc0 <HAL_GPIO_Init>
 8002ff6:	b008      	add	sp, #32
 8002ff8:	bd10      	pop	{r4, pc}
 8002ffa:	bf00      	nop
 8002ffc:	40010300 	.word	0x40010300
 8003000:	40010304 	.word	0x40010304
 8003004:	40010308 	.word	0x40010308
 8003008:	48000400 	.word	0x48000400

0800300c <HAL_TIM_Base_MspInit>:
 800300c:	b500      	push	{lr}
 800300e:	6803      	ldr	r3, [r0, #0]
 8003010:	4a1e      	ldr	r2, [pc, #120]	; (800308c <HAL_TIM_Base_MspInit+0x80>)
 8003012:	4293      	cmp	r3, r2
 8003014:	b085      	sub	sp, #20
 8003016:	d02a      	beq.n	800306e <HAL_TIM_Base_MspInit+0x62>
 8003018:	4a1d      	ldr	r2, [pc, #116]	; (8003090 <HAL_TIM_Base_MspInit+0x84>)
 800301a:	4293      	cmp	r3, r2
 800301c:	d005      	beq.n	800302a <HAL_TIM_Base_MspInit+0x1e>
 800301e:	4a1d      	ldr	r2, [pc, #116]	; (8003094 <HAL_TIM_Base_MspInit+0x88>)
 8003020:	4293      	cmp	r3, r2
 8003022:	d00f      	beq.n	8003044 <HAL_TIM_Base_MspInit+0x38>
 8003024:	b005      	add	sp, #20
 8003026:	f85d fb04 	ldr.w	pc, [sp], #4
 800302a:	4b1b      	ldr	r3, [pc, #108]	; (8003098 <HAL_TIM_Base_MspInit+0x8c>)
 800302c:	6d9a      	ldr	r2, [r3, #88]	; 0x58
 800302e:	f042 0202 	orr.w	r2, r2, #2
 8003032:	659a      	str	r2, [r3, #88]	; 0x58
 8003034:	6d9b      	ldr	r3, [r3, #88]	; 0x58
 8003036:	f003 0302 	and.w	r3, r3, #2
 800303a:	9302      	str	r3, [sp, #8]
 800303c:	9b02      	ldr	r3, [sp, #8]
 800303e:	b005      	add	sp, #20
 8003040:	f85d fb04 	ldr.w	pc, [sp], #4
 8003044:	4b14      	ldr	r3, [pc, #80]	; (8003098 <HAL_TIM_Base_MspInit+0x8c>)
 8003046:	6e1a      	ldr	r2, [r3, #96]	; 0x60
 8003048:	f442 2280 	orr.w	r2, r2, #262144	; 0x40000
 800304c:	661a      	str	r2, [r3, #96]	; 0x60
 800304e:	6e1b      	ldr	r3, [r3, #96]	; 0x60
 8003050:	f403 2380 	and.w	r3, r3, #262144	; 0x40000
 8003054:	9303      	str	r3, [sp, #12]
 8003056:	2200      	movs	r2, #0
 8003058:	9b03      	ldr	r3, [sp, #12]
 800305a:	4611      	mov	r1, r2
 800305c:	201a      	movs	r0, #26
 800305e:	f001 fe1b 	bl	8004c98 <HAL_NVIC_SetPriority>
 8003062:	201a      	movs	r0, #26
 8003064:	b005      	add	sp, #20
 8003066:	f85d eb04 	ldr.w	lr, [sp], #4
 800306a:	f001 be4b 	b.w	8004d04 <HAL_NVIC_EnableIRQ>
 800306e:	4b0a      	ldr	r3, [pc, #40]	; (8003098 <HAL_TIM_Base_MspInit+0x8c>)
 8003070:	6e1a      	ldr	r2, [r3, #96]	; 0x60
 8003072:	f442 6200 	orr.w	r2, r2, #2048	; 0x800
 8003076:	661a      	str	r2, [r3, #96]	; 0x60
 8003078:	6e1b      	ldr	r3, [r3, #96]	; 0x60
 800307a:	f403 6300 	and.w	r3, r3, #2048	; 0x800
 800307e:	2200      	movs	r2, #0
 8003080:	9301      	str	r3, [sp, #4]
 8003082:	4611      	mov	r1, r2
 8003084:	201a      	movs	r0, #26
 8003086:	9b01      	ldr	r3, [sp, #4]
 8003088:	e7e9      	b.n	800305e <HAL_TIM_Base_MspInit+0x52>
 800308a:	bf00      	nop
 800308c:	40012c00 	.word	0x40012c00
 8003090:	40000400 	.word	0x40000400
 8003094:	40014800 	.word	0x40014800
 8003098:	40021000 	.word	0x40021000

0800309c <HAL_TIM_Encoder_MspInit>:
 800309c:	b510      	push	{r4, lr}
 800309e:	6801      	ldr	r1, [r0, #0]
 80030a0:	4a16      	ldr	r2, [pc, #88]	; (80030fc <HAL_TIM_Encoder_MspInit+0x60>)
 80030a2:	b088      	sub	sp, #32
 80030a4:	2300      	movs	r3, #0
 80030a6:	4291      	cmp	r1, r2
 80030a8:	e9cd 3303 	strd	r3, r3, [sp, #12]
 80030ac:	e9cd 3305 	strd	r3, r3, [sp, #20]
 80030b0:	9307      	str	r3, [sp, #28]
 80030b2:	d001      	beq.n	80030b8 <HAL_TIM_Encoder_MspInit+0x1c>
 80030b4:	b008      	add	sp, #32
 80030b6:	bd10      	pop	{r4, pc}
 80030b8:	f103 4380 	add.w	r3, r3, #1073741824	; 0x40000000
 80030bc:	f503 3304 	add.w	r3, r3, #135168	; 0x21000
 80030c0:	480f      	ldr	r0, [pc, #60]	; (8003100 <HAL_TIM_Encoder_MspInit+0x64>)
 80030c2:	6d9a      	ldr	r2, [r3, #88]	; 0x58
 80030c4:	f042 0204 	orr.w	r2, r2, #4
 80030c8:	659a      	str	r2, [r3, #88]	; 0x58
 80030ca:	6d9a      	ldr	r2, [r3, #88]	; 0x58
 80030cc:	f002 0204 	and.w	r2, r2, #4
 80030d0:	9201      	str	r2, [sp, #4]
 80030d2:	9a01      	ldr	r2, [sp, #4]
 80030d4:	6cda      	ldr	r2, [r3, #76]	; 0x4c
 80030d6:	f042 0202 	orr.w	r2, r2, #2
 80030da:	64da      	str	r2, [r3, #76]	; 0x4c
 80030dc:	6cdb      	ldr	r3, [r3, #76]	; 0x4c
 80030de:	f003 0302 	and.w	r3, r3, #2
 80030e2:	9302      	str	r3, [sp, #8]
 80030e4:	22c0      	movs	r2, #192	; 0xc0
 80030e6:	2302      	movs	r3, #2
 80030e8:	a903      	add	r1, sp, #12
 80030ea:	9c02      	ldr	r4, [sp, #8]
 80030ec:	9307      	str	r3, [sp, #28]
 80030ee:	e9cd 2303 	strd	r2, r3, [sp, #12]
 80030f2:	f002 fde5 	bl	8005cc0 <HAL_GPIO_Init>
 80030f6:	b008      	add	sp, #32
 80030f8:	bd10      	pop	{r4, pc}
 80030fa:	bf00      	nop
 80030fc:	40000800 	.word	0x40000800
 8003100:	48000400 	.word	0x48000400

08003104 <HAL_TIM_MspPostInit>:
 8003104:	b530      	push	{r4, r5, lr}
 8003106:	6801      	ldr	r1, [r0, #0]
 8003108:	4a28      	ldr	r2, [pc, #160]	; (80031ac <HAL_TIM_MspPostInit+0xa8>)
 800310a:	b089      	sub	sp, #36	; 0x24
 800310c:	2300      	movs	r3, #0
 800310e:	4291      	cmp	r1, r2
 8003110:	e9cd 3303 	strd	r3, r3, [sp, #12]
 8003114:	e9cd 3305 	strd	r3, r3, [sp, #20]
 8003118:	9307      	str	r3, [sp, #28]
 800311a:	d001      	beq.n	8003120 <HAL_TIM_MspPostInit+0x1c>
 800311c:	b009      	add	sp, #36	; 0x24
 800311e:	bd30      	pop	{r4, r5, pc}
 8003120:	f103 4380 	add.w	r3, r3, #1073741824	; 0x40000000
 8003124:	f503 3304 	add.w	r3, r3, #135168	; 0x21000
 8003128:	2402      	movs	r4, #2
 800312a:	6cda      	ldr	r2, [r3, #76]	; 0x4c
 800312c:	4820      	ldr	r0, [pc, #128]	; (80031b0 <HAL_TIM_MspPostInit+0xac>)
 800312e:	f042 0204 	orr.w	r2, r2, #4
 8003132:	64da      	str	r2, [r3, #76]	; 0x4c
 8003134:	6cda      	ldr	r2, [r3, #76]	; 0x4c
 8003136:	f002 0204 	and.w	r2, r2, #4
 800313a:	9200      	str	r2, [sp, #0]
 800313c:	9a00      	ldr	r2, [sp, #0]
 800313e:	6cda      	ldr	r2, [r3, #76]	; 0x4c
 8003140:	f042 0202 	orr.w	r2, r2, #2
 8003144:	64da      	str	r2, [r3, #76]	; 0x4c
 8003146:	6cda      	ldr	r2, [r3, #76]	; 0x4c
 8003148:	f002 0202 	and.w	r2, r2, #2
 800314c:	9201      	str	r2, [sp, #4]
 800314e:	9a01      	ldr	r2, [sp, #4]
 8003150:	6cda      	ldr	r2, [r3, #76]	; 0x4c
 8003152:	f042 0201 	orr.w	r2, r2, #1
 8003156:	64da      	str	r2, [r3, #76]	; 0x4c
 8003158:	6cdb      	ldr	r3, [r3, #76]	; 0x4c
 800315a:	f003 0301 	and.w	r3, r3, #1
 800315e:	9302      	str	r3, [sp, #8]
 8003160:	2504      	movs	r5, #4
 8003162:	f44f 5300 	mov.w	r3, #8192	; 0x2000
 8003166:	a903      	add	r1, sp, #12
 8003168:	9a02      	ldr	r2, [sp, #8]
 800316a:	9507      	str	r5, [sp, #28]
 800316c:	e9cd 3403 	strd	r3, r4, [sp, #12]
 8003170:	e9cd 4405 	strd	r4, r4, [sp, #20]
 8003174:	f002 fda4 	bl	8005cc0 <HAL_GPIO_Init>
 8003178:	f44f 4300 	mov.w	r3, #32768	; 0x8000
 800317c:	a903      	add	r1, sp, #12
 800317e:	480d      	ldr	r0, [pc, #52]	; (80031b4 <HAL_TIM_MspPostInit+0xb0>)
 8003180:	9303      	str	r3, [sp, #12]
 8003182:	e9cd 4404 	strd	r4, r4, [sp, #16]
 8003186:	e9cd 4506 	strd	r4, r5, [sp, #24]
 800318a:	f002 fd99 	bl	8005cc0 <HAL_GPIO_Init>
 800318e:	f44f 52b8 	mov.w	r2, #5888	; 0x1700
 8003192:	2306      	movs	r3, #6
 8003194:	a903      	add	r1, sp, #12
 8003196:	f04f 4090 	mov.w	r0, #1207959552	; 0x48000000
 800319a:	e9cd 4404 	strd	r4, r4, [sp, #16]
 800319e:	9406      	str	r4, [sp, #24]
 80031a0:	9203      	str	r2, [sp, #12]
 80031a2:	9307      	str	r3, [sp, #28]
 80031a4:	f002 fd8c 	bl	8005cc0 <HAL_GPIO_Init>
 80031a8:	b009      	add	sp, #36	; 0x24
 80031aa:	bd30      	pop	{r4, r5, pc}
 80031ac:	40012c00 	.word	0x40012c00
 80031b0:	48000800 	.word	0x48000800
 80031b4:	48000400 	.word	0x48000400

080031b8 <HAL_UART_MspInit>:
 80031b8:	b570      	push	{r4, r5, r6, lr}
 80031ba:	6802      	ldr	r2, [r0, #0]
 80031bc:	4b2d      	ldr	r3, [pc, #180]	; (8003274 <HAL_UART_MspInit+0xbc>)
 80031be:	b088      	sub	sp, #32
 80031c0:	2400      	movs	r4, #0
 80031c2:	429a      	cmp	r2, r3
 80031c4:	e9cd 4403 	strd	r4, r4, [sp, #12]
 80031c8:	e9cd 4405 	strd	r4, r4, [sp, #20]
 80031cc:	9407      	str	r4, [sp, #28]
 80031ce:	d001      	beq.n	80031d4 <HAL_UART_MspInit+0x1c>
 80031d0:	b008      	add	sp, #32
 80031d2:	bd70      	pop	{r4, r5, r6, pc}
 80031d4:	f503 33e6 	add.w	r3, r3, #117760	; 0x1cc00
 80031d8:	4d27      	ldr	r5, [pc, #156]	; (8003278 <HAL_UART_MspInit+0xc0>)
 80031da:	6d9a      	ldr	r2, [r3, #88]	; 0x58
 80031dc:	f442 3200 	orr.w	r2, r2, #131072	; 0x20000
 80031e0:	659a      	str	r2, [r3, #88]	; 0x58
 80031e2:	6d9a      	ldr	r2, [r3, #88]	; 0x58
 80031e4:	f402 3200 	and.w	r2, r2, #131072	; 0x20000
 80031e8:	9201      	str	r2, [sp, #4]
 80031ea:	9a01      	ldr	r2, [sp, #4]
 80031ec:	6cda      	ldr	r2, [r3, #76]	; 0x4c
 80031ee:	f042 0202 	orr.w	r2, r2, #2
 80031f2:	64da      	str	r2, [r3, #76]	; 0x4c
 80031f4:	6cdb      	ldr	r3, [r3, #76]	; 0x4c
 80031f6:	f003 0302 	and.w	r3, r3, #2
 80031fa:	9302      	str	r3, [sp, #8]
 80031fc:	2318      	movs	r3, #24
 80031fe:	9303      	str	r3, [sp, #12]
 8003200:	2302      	movs	r3, #2
 8003202:	a903      	add	r1, sp, #12
 8003204:	9304      	str	r3, [sp, #16]
 8003206:	4606      	mov	r6, r0
 8003208:	2307      	movs	r3, #7
 800320a:	481c      	ldr	r0, [pc, #112]	; (800327c <HAL_UART_MspInit+0xc4>)
 800320c:	9a02      	ldr	r2, [sp, #8]
 800320e:	9307      	str	r3, [sp, #28]
 8003210:	f002 fd56 	bl	8005cc0 <HAL_GPIO_Init>
 8003214:	4b1a      	ldr	r3, [pc, #104]	; (8003280 <HAL_UART_MspInit+0xc8>)
 8003216:	602b      	str	r3, [r5, #0]
 8003218:	201b      	movs	r0, #27
 800321a:	2110      	movs	r1, #16
 800321c:	2280      	movs	r2, #128	; 0x80
 800321e:	2320      	movs	r3, #32
 8003220:	6068      	str	r0, [r5, #4]
 8003222:	4628      	mov	r0, r5
 8003224:	60ec      	str	r4, [r5, #12]
 8003226:	e9c5 4405 	strd	r4, r4, [r5, #20]
 800322a:	622c      	str	r4, [r5, #32]
 800322c:	60a9      	str	r1, [r5, #8]
 800322e:	612a      	str	r2, [r5, #16]
 8003230:	61eb      	str	r3, [r5, #28]
 8003232:	f001 fea7 	bl	8004f84 <HAL_DMA_Init>
 8003236:	b9b8      	cbnz	r0, 8003268 <HAL_UART_MspInit+0xb0>
 8003238:	4c12      	ldr	r4, [pc, #72]	; (8003284 <HAL_UART_MspInit+0xcc>)
 800323a:	4b13      	ldr	r3, [pc, #76]	; (8003288 <HAL_UART_MspInit+0xd0>)
 800323c:	6023      	str	r3, [r4, #0]
 800323e:	211a      	movs	r1, #26
 8003240:	2300      	movs	r3, #0
 8003242:	2280      	movs	r2, #128	; 0x80
 8003244:	6775      	str	r5, [r6, #116]	; 0x74
 8003246:	4620      	mov	r0, r4
 8003248:	62ae      	str	r6, [r5, #40]	; 0x28
 800324a:	6061      	str	r1, [r4, #4]
 800324c:	6122      	str	r2, [r4, #16]
 800324e:	e9c4 3302 	strd	r3, r3, [r4, #8]
 8003252:	e9c4 3305 	strd	r3, r3, [r4, #20]
 8003256:	e9c4 3307 	strd	r3, r3, [r4, #28]
 800325a:	f001 fe93 	bl	8004f84 <HAL_DMA_Init>
 800325e:	b930      	cbnz	r0, 800326e <HAL_UART_MspInit+0xb6>
 8003260:	67b4      	str	r4, [r6, #120]	; 0x78
 8003262:	62a6      	str	r6, [r4, #40]	; 0x28
 8003264:	b008      	add	sp, #32
 8003266:	bd70      	pop	{r4, r5, r6, pc}
 8003268:	f7fe f9c6 	bl	80015f8 <Error_Handler>
 800326c:	e7e4      	b.n	8003238 <HAL_UART_MspInit+0x80>
 800326e:	f7fe f9c3 	bl	80015f8 <Error_Handler>
 8003272:	e7f5      	b.n	8003260 <HAL_UART_MspInit+0xa8>
 8003274:	40004400 	.word	0x40004400
 8003278:	200009c8 	.word	0x200009c8
 800327c:	48000400 	.word	0x48000400
 8003280:	40020008 	.word	0x40020008
 8003284:	200006c0 	.word	0x200006c0
 8003288:	4002001c 	.word	0x4002001c

0800328c <HAL_UART_MspDeInit>:
 800328c:	4b0d      	ldr	r3, [pc, #52]	; (80032c4 <HAL_UART_MspDeInit+0x38>)
 800328e:	6802      	ldr	r2, [r0, #0]
 8003290:	429a      	cmp	r2, r3
 8003292:	d000      	beq.n	8003296 <HAL_UART_MspDeInit+0xa>
 8003294:	4770      	bx	lr
 8003296:	4a0c      	ldr	r2, [pc, #48]	; (80032c8 <HAL_UART_MspDeInit+0x3c>)
 8003298:	6d93      	ldr	r3, [r2, #88]	; 0x58
 800329a:	b510      	push	{r4, lr}
 800329c:	f423 3300 	bic.w	r3, r3, #131072	; 0x20000
 80032a0:	4604      	mov	r4, r0
 80032a2:	6593      	str	r3, [r2, #88]	; 0x58
 80032a4:	2118      	movs	r1, #24
 80032a6:	4809      	ldr	r0, [pc, #36]	; (80032cc <HAL_UART_MspDeInit+0x40>)
 80032a8:	f002 fdf0 	bl	8005e8c <HAL_GPIO_DeInit>
 80032ac:	6f60      	ldr	r0, [r4, #116]	; 0x74
 80032ae:	f001 ff01 	bl	80050b4 <HAL_DMA_DeInit>
 80032b2:	6fa0      	ldr	r0, [r4, #120]	; 0x78
 80032b4:	f001 fefe 	bl	80050b4 <HAL_DMA_DeInit>
 80032b8:	2026      	movs	r0, #38	; 0x26
 80032ba:	e8bd 4010 	ldmia.w	sp!, {r4, lr}
 80032be:	f001 bd2f 	b.w	8004d20 <HAL_NVIC_DisableIRQ>
 80032c2:	bf00      	nop
 80032c4:	40004400 	.word	0x40004400
 80032c8:	40021000 	.word	0x40021000
 80032cc:	48000400 	.word	0x48000400

080032d0 <DMA1_Channel1_IRQHandler>:
 80032d0:	4801      	ldr	r0, [pc, #4]	; (80032d8 <DMA1_Channel1_IRQHandler+0x8>)
 80032d2:	f001 bfff 	b.w	80052d4 <HAL_DMA_IRQHandler>
 80032d6:	bf00      	nop
 80032d8:	200009c8 	.word	0x200009c8

080032dc <DMA1_Channel2_IRQHandler>:
 80032dc:	4801      	ldr	r0, [pc, #4]	; (80032e4 <DMA1_Channel2_IRQHandler+0x8>)
 80032de:	f001 bff9 	b.w	80052d4 <HAL_DMA_IRQHandler>
 80032e2:	bf00      	nop
 80032e4:	200006c0 	.word	0x200006c0

080032e8 <FDCAN1_IT1_IRQHandler>:
 80032e8:	4801      	ldr	r0, [pc, #4]	; (80032f0 <FDCAN1_IT1_IRQHandler+0x8>)
 80032ea:	f002 ba8f 	b.w	800580c <HAL_FDCAN_IRQHandler>
 80032ee:	bf00      	nop
 80032f0:	20000a50 	.word	0x20000a50

080032f4 <TIM1_TRG_COM_TIM17_IRQHandler>:
 80032f4:	b508      	push	{r3, lr}
 80032f6:	480a      	ldr	r0, [pc, #40]	; (8003320 <TIM1_TRG_COM_TIM17_IRQHandler+0x2c>)
 80032f8:	f004 f9f8 	bl	80076ec <HAL_TIM_IRQHandler>
 80032fc:	4809      	ldr	r0, [pc, #36]	; (8003324 <TIM1_TRG_COM_TIM17_IRQHandler+0x30>)
 80032fe:	f004 f9f5 	bl	80076ec <HAL_TIM_IRQHandler>
 8003302:	4a09      	ldr	r2, [pc, #36]	; (8003328 <TIM1_TRG_COM_TIM17_IRQHandler+0x34>)
 8003304:	4909      	ldr	r1, [pc, #36]	; (800332c <TIM1_TRG_COM_TIM17_IRQHandler+0x38>)
 8003306:	6813      	ldr	r3, [r2, #0]
 8003308:	8849      	ldrh	r1, [r1, #2]
 800330a:	3301      	adds	r3, #1
 800330c:	428b      	cmp	r3, r1
 800330e:	6013      	str	r3, [r2, #0]
 8003310:	da00      	bge.n	8003314 <TIM1_TRG_COM_TIM17_IRQHandler+0x20>
 8003312:	bd08      	pop	{r3, pc}
 8003314:	2300      	movs	r3, #0
 8003316:	6013      	str	r3, [r2, #0]
 8003318:	e8bd 4008 	ldmia.w	sp!, {r3, lr}
 800331c:	f7fd ba0a 	b.w	8000734 <ESC_UART_TX_Feedback>
 8003320:	20000ab8 	.word	0x20000ab8
 8003324:	2000081c 	.word	0x2000081c
 8003328:	20000640 	.word	0x20000640
 800332c:	20000688 	.word	0x20000688

08003330 <HAL_UART_TxCpltCallback>:
 8003330:	f004 bcce 	b.w	8007cd0 <HAL_UART_DMAStop>

08003334 <HAL_FDCAN_RxFifo0Callback>:
 8003334:	4a02      	ldr	r2, [pc, #8]	; (8003340 <HAL_FDCAN_RxFifo0Callback+0xc>)
 8003336:	7813      	ldrb	r3, [r2, #0]
 8003338:	3301      	adds	r3, #1
 800333a:	7013      	strb	r3, [r2, #0]
 800333c:	4770      	bx	lr
 800333e:	bf00      	nop
 8003340:	2000065a 	.word	0x2000065a

08003344 <ADC1_2_IRQHandler>:
 8003344:	b508      	push	{r3, lr}
 8003346:	f04f 43a0 	mov.w	r3, #1342177280	; 0x50000000
 800334a:	2240      	movs	r2, #64	; 0x40
 800334c:	601a      	str	r2, [r3, #0]
 800334e:	f7fe fdcd 	bl	8001eec <TSK_HighFrequencyTask>
 8003352:	e8bd 4008 	ldmia.w	sp!, {r3, lr}
 8003356:	f000 b96d 	b.w	8003634 <UI_DACUpdate>
 800335a:	bf00      	nop

0800335c <TIM1_UP_TIM16_IRQHandler>:
 800335c:	4b03      	ldr	r3, [pc, #12]	; (800336c <TIM1_UP_TIM16_IRQHandler+0x10>)
 800335e:	4804      	ldr	r0, [pc, #16]	; (8003370 <TIM1_UP_TIM16_IRQHandler+0x14>)
 8003360:	f06f 0201 	mvn.w	r2, #1
 8003364:	611a      	str	r2, [r3, #16]
 8003366:	f006 bed7 	b.w	800a118 <R3_2_TIMx_UP_IRQHandler>
 800336a:	bf00      	nop
 800336c:	40012c00 	.word	0x40012c00
 8003370:	20000320 	.word	0x20000320

08003374 <TIM1_BRK_TIM15_IRQHandler>:
 8003374:	b508      	push	{r3, lr}
 8003376:	4b0c      	ldr	r3, [pc, #48]	; (80033a8 <TIM1_BRK_TIM15_IRQHandler+0x34>)
 8003378:	691a      	ldr	r2, [r3, #16]
 800337a:	0611      	lsls	r1, r2, #24
 800337c:	d40d      	bmi.n	800339a <TIM1_BRK_TIM15_IRQHandler+0x26>
 800337e:	4b0a      	ldr	r3, [pc, #40]	; (80033a8 <TIM1_BRK_TIM15_IRQHandler+0x34>)
 8003380:	691a      	ldr	r2, [r3, #16]
 8003382:	05d2      	lsls	r2, r2, #23
 8003384:	d505      	bpl.n	8003392 <TIM1_BRK_TIM15_IRQHandler+0x1e>
 8003386:	f46f 7280 	mvn.w	r2, #256	; 0x100
 800338a:	611a      	str	r2, [r3, #16]
 800338c:	4807      	ldr	r0, [pc, #28]	; (80033ac <TIM1_BRK_TIM15_IRQHandler+0x38>)
 800338e:	f006 ff0f 	bl	800a1b0 <R3_2_BRK2_IRQHandler>
 8003392:	e8bd 4008 	ldmia.w	sp!, {r3, lr}
 8003396:	f7fe bd7b 	b.w	8001e90 <MC_Scheduler>
 800339a:	f06f 0280 	mvn.w	r2, #128	; 0x80
 800339e:	611a      	str	r2, [r3, #16]
 80033a0:	4802      	ldr	r0, [pc, #8]	; (80033ac <TIM1_BRK_TIM15_IRQHandler+0x38>)
 80033a2:	f006 ff25 	bl	800a1f0 <R3_2_BRK_IRQHandler>
 80033a6:	e7ea      	b.n	800337e <TIM1_BRK_TIM15_IRQHandler+0xa>
 80033a8:	40012c00 	.word	0x40012c00
 80033ac:	20000320 	.word	0x20000320

080033b0 <TIM4_IRQHandler>:
 80033b0:	4806      	ldr	r0, [pc, #24]	; (80033cc <TIM4_IRQHandler+0x1c>)
 80033b2:	6a03      	ldr	r3, [r0, #32]
 80033b4:	68da      	ldr	r2, [r3, #12]
 80033b6:	07d1      	lsls	r1, r2, #31
 80033b8:	d502      	bpl.n	80033c0 <TIM4_IRQHandler+0x10>
 80033ba:	691a      	ldr	r2, [r3, #16]
 80033bc:	07d2      	lsls	r2, r2, #31
 80033be:	d400      	bmi.n	80033c2 <TIM4_IRQHandler+0x12>
 80033c0:	4770      	bx	lr
 80033c2:	f06f 0201 	mvn.w	r2, #1
 80033c6:	611a      	str	r2, [r3, #16]
 80033c8:	f005 be22 	b.w	8009010 <ENC_IRQHandler>
 80033cc:	200000f0 	.word	0x200000f0

080033d0 <USART2_IRQHandler>:
 80033d0:	4b24      	ldr	r3, [pc, #144]	; (8003464 <USART2_IRQHandler+0x94>)
 80033d2:	685b      	ldr	r3, [r3, #4]
 80033d4:	f5b3 3fe1 	cmp.w	r3, #115200	; 0x1c200
 80033d8:	d031      	beq.n	800343e <USART2_IRQHandler+0x6e>
 80033da:	b510      	push	{r4, lr}
 80033dc:	4c22      	ldr	r4, [pc, #136]	; (8003468 <USART2_IRQHandler+0x98>)
 80033de:	f8d4 3120 	ldr.w	r3, [r4, #288]	; 0x120
 80033e2:	69da      	ldr	r2, [r3, #28]
 80033e4:	0691      	lsls	r1, r2, #26
 80033e6:	d41a      	bmi.n	800341e <USART2_IRQHandler+0x4e>
 80033e8:	69da      	ldr	r2, [r3, #28]
 80033ea:	0612      	lsls	r2, r2, #24
 80033ec:	d40e      	bmi.n	800340c <USART2_IRQHandler+0x3c>
 80033ee:	69db      	ldr	r3, [r3, #28]
 80033f0:	071b      	lsls	r3, r3, #28
 80033f2:	d400      	bmi.n	80033f6 <USART2_IRQHandler+0x26>
 80033f4:	bd10      	pop	{r4, pc}
 80033f6:	481c      	ldr	r0, [pc, #112]	; (8003468 <USART2_IRQHandler+0x98>)
 80033f8:	f007 fbba 	bl	800ab70 <UFCP_OVR_IRQ_Handler>
 80033fc:	f8d4 3120 	ldr.w	r3, [r4, #288]	; 0x120
 8003400:	2208      	movs	r2, #8
 8003402:	621a      	str	r2, [r3, #32]
 8003404:	e8bd 4010 	ldmia.w	sp!, {r4, lr}
 8003408:	f000 b924 	b.w	8003654 <UI_SerialCommunicationTimeOutStop>
 800340c:	4816      	ldr	r0, [pc, #88]	; (8003468 <USART2_IRQHandler+0x98>)
 800340e:	f007 fa79 	bl	800a904 <UFCP_TX_IRQ_Handler>
 8003412:	f8d4 3120 	ldr.w	r3, [r4, #288]	; 0x120
 8003416:	69db      	ldr	r3, [r3, #28]
 8003418:	071b      	lsls	r3, r3, #28
 800341a:	d5eb      	bpl.n	80033f4 <USART2_IRQHandler+0x24>
 800341c:	e7eb      	b.n	80033f6 <USART2_IRQHandler+0x26>
 800341e:	6a59      	ldr	r1, [r3, #36]	; 0x24
 8003420:	4620      	mov	r0, r4
 8003422:	b2c9      	uxtb	r1, r1
 8003424:	f007 fb42 	bl	800aaac <UFCP_RX_IRQ_Handler>
 8003428:	8803      	ldrh	r3, [r0, #0]
 800342a:	2b01      	cmp	r3, #1
 800342c:	d012      	beq.n	8003454 <USART2_IRQHandler+0x84>
 800342e:	2b02      	cmp	r3, #2
 8003430:	d015      	beq.n	800345e <USART2_IRQHandler+0x8e>
 8003432:	f8d4 3120 	ldr.w	r3, [r4, #288]	; 0x120
 8003436:	69da      	ldr	r2, [r3, #28]
 8003438:	0612      	lsls	r2, r2, #24
 800343a:	d5d8      	bpl.n	80033ee <USART2_IRQHandler+0x1e>
 800343c:	e7e6      	b.n	800340c <USART2_IRQHandler+0x3c>
 800343e:	4a0b      	ldr	r2, [pc, #44]	; (800346c <USART2_IRQHandler+0x9c>)
 8003440:	7813      	ldrb	r3, [r2, #0]
 8003442:	f003 01f0 	and.w	r1, r3, #240	; 0xf0
 8003446:	29f0      	cmp	r1, #240	; 0xf0
 8003448:	bf14      	ite	ne
 800344a:	3310      	addne	r3, #16
 800344c:	f36f 1307 	bfceq	r3, #4, #4
 8003450:	7013      	strb	r3, [r2, #0]
 8003452:	4770      	bx	lr
 8003454:	f000 f904 	bl	8003660 <UI_SerialCommunicationTimeOutStart>
 8003458:	f8d4 3120 	ldr.w	r3, [r4, #288]	; 0x120
 800345c:	e7c4      	b.n	80033e8 <USART2_IRQHandler+0x18>
 800345e:	f000 f8f9 	bl	8003654 <UI_SerialCommunicationTimeOutStop>
 8003462:	e7e6      	b.n	8003432 <USART2_IRQHandler+0x62>
 8003464:	20000b1c 	.word	0x20000b1c
 8003468:	2000049c 	.word	0x2000049c
 800346c:	20000688 	.word	0x20000688

08003470 <HardFault_Handler>:
 8003470:	b570      	push	{r4, r5, r6, lr}
 8003472:	f7fe fe25 	bl	80020c0 <TSK_HardwareFaultTask>
 8003476:	4c1a      	ldr	r4, [pc, #104]	; (80034e0 <HardFault_Handler+0x70>)
 8003478:	2608      	movs	r6, #8
 800347a:	4625      	mov	r5, r4
 800347c:	f8d4 3120 	ldr.w	r3, [r4, #288]	; 0x120
 8003480:	69da      	ldr	r2, [r3, #28]
 8003482:	0712      	lsls	r2, r2, #28
 8003484:	d41d      	bmi.n	80034c2 <HardFault_Handler+0x52>
 8003486:	69da      	ldr	r2, [r3, #28]
 8003488:	0610      	lsls	r0, r2, #24
 800348a:	d40f      	bmi.n	80034ac <HardFault_Handler+0x3c>
 800348c:	69da      	ldr	r2, [r3, #28]
 800348e:	0692      	lsls	r2, r2, #26
 8003490:	d5f6      	bpl.n	8003480 <HardFault_Handler+0x10>
 8003492:	6a59      	ldr	r1, [r3, #36]	; 0x24
 8003494:	4628      	mov	r0, r5
 8003496:	b2c9      	uxtb	r1, r1
 8003498:	f007 fb08 	bl	800aaac <UFCP_RX_IRQ_Handler>
 800349c:	8803      	ldrh	r3, [r0, #0]
 800349e:	2b01      	cmp	r3, #1
 80034a0:	d01a      	beq.n	80034d8 <HardFault_Handler+0x68>
 80034a2:	2b02      	cmp	r3, #2
 80034a4:	d1ea      	bne.n	800347c <HardFault_Handler+0xc>
 80034a6:	f000 f8d5 	bl	8003654 <UI_SerialCommunicationTimeOutStop>
 80034aa:	e7e7      	b.n	800347c <HardFault_Handler+0xc>
 80034ac:	4628      	mov	r0, r5
 80034ae:	f007 fa29 	bl	800a904 <UFCP_TX_IRQ_Handler>
 80034b2:	f8d4 3120 	ldr.w	r3, [r4, #288]	; 0x120
 80034b6:	69da      	ldr	r2, [r3, #28]
 80034b8:	0691      	lsls	r1, r2, #26
 80034ba:	d4ea      	bmi.n	8003492 <HardFault_Handler+0x22>
 80034bc:	69da      	ldr	r2, [r3, #28]
 80034be:	0712      	lsls	r2, r2, #28
 80034c0:	d5e1      	bpl.n	8003486 <HardFault_Handler+0x16>
 80034c2:	4628      	mov	r0, r5
 80034c4:	f007 fb54 	bl	800ab70 <UFCP_OVR_IRQ_Handler>
 80034c8:	f8d4 3120 	ldr.w	r3, [r4, #288]	; 0x120
 80034cc:	621e      	str	r6, [r3, #32]
 80034ce:	f000 f8c1 	bl	8003654 <UI_SerialCommunicationTimeOutStop>
 80034d2:	f8d4 3120 	ldr.w	r3, [r4, #288]	; 0x120
 80034d6:	e7d6      	b.n	8003486 <HardFault_Handler+0x16>
 80034d8:	f000 f8c2 	bl	8003660 <UI_SerialCommunicationTimeOutStart>
 80034dc:	e7ce      	b.n	800347c <HardFault_Handler+0xc>
 80034de:	bf00      	nop
 80034e0:	2000049c 	.word	0x2000049c

080034e4 <SysTick_Handler>:
 80034e4:	b510      	push	{r4, lr}
 80034e6:	4c0a      	ldr	r4, [pc, #40]	; (8003510 <SysTick_Handler+0x2c>)
 80034e8:	7823      	ldrb	r3, [r4, #0]
 80034ea:	2b02      	cmp	r3, #2
 80034ec:	d006      	beq.n	80034fc <SysTick_Handler+0x18>
 80034ee:	3301      	adds	r3, #1
 80034f0:	b2db      	uxtb	r3, r3
 80034f2:	7023      	strb	r3, [r4, #0]
 80034f4:	e8bd 4010 	ldmia.w	sp!, {r4, lr}
 80034f8:	f7fe bdd2 	b.w	80020a0 <MC_RunMotorControlTasks>
 80034fc:	f000 fcaa 	bl	8003e54 <HAL_IncTick>
 8003500:	f001 fc3e 	bl	8004d80 <HAL_SYSTICK_IRQHandler>
 8003504:	2301      	movs	r3, #1
 8003506:	7023      	strb	r3, [r4, #0]
 8003508:	e8bd 4010 	ldmia.w	sp!, {r4, lr}
 800350c:	f7fe bdc8 	b.w	80020a0 <MC_RunMotorControlTasks>
 8003510:	200005dc 	.word	0x200005dc

08003514 <UI_TaskInit>:
 8003514:	e92d 4ff0 	stmdb	sp!, {r4, r5, r6, r7, r8, r9, sl, fp, lr}
 8003518:	b087      	sub	sp, #28
 800351a:	4d2d      	ldr	r5, [pc, #180]	; (80035d0 <UI_TaskInit+0xbc>)
 800351c:	9c10      	ldr	r4, [sp, #64]	; 0x40
 800351e:	9405      	str	r4, [sp, #20]
 8003520:	462c      	mov	r4, r5
 8003522:	4682      	mov	sl, r0
 8003524:	460f      	mov	r7, r1
 8003526:	4690      	mov	r8, r2
 8003528:	4699      	mov	r9, r3
 800352a:	cc0f      	ldmia	r4!, {r0, r1, r2, r3}
 800352c:	f8df e0b8 	ldr.w	lr, [pc, #184]	; 80035e8 <UI_TaskInit+0xd4>
 8003530:	4e28      	ldr	r6, [pc, #160]	; (80035d4 <UI_TaskInit+0xc0>)
 8003532:	f8df b0b8 	ldr.w	fp, [pc, #184]	; 80035ec <UI_TaskInit+0xd8>
 8003536:	f8c6 e000 	str.w	lr, [r6]
 800353a:	46f4      	mov	ip, lr
 800353c:	e8ac 000f 	stmia.w	ip!, {r0, r1, r2, r3}
 8003540:	cc0f      	ldmia	r4!, {r0, r1, r2, r3}
 8003542:	e8ac 000f 	stmia.w	ip!, {r0, r1, r2, r3}
 8003546:	e894 000f 	ldmia.w	r4, {r0, r1, r2, r3}
 800354a:	f8cd a000 	str.w	sl, [sp]
 800354e:	e88c 000f 	stmia.w	ip, {r0, r1, r2, r3}
 8003552:	464b      	mov	r3, r9
 8003554:	4670      	mov	r0, lr
 8003556:	4642      	mov	r2, r8
 8003558:	4639      	mov	r1, r7
 800355a:	f000 f887 	bl	800366c <UI_Init>
 800355e:	6830      	ldr	r0, [r6, #0]
 8003560:	f000 fa04 	bl	800396c <UI_DACInit>
 8003564:	6830      	ldr	r0, [r6, #0]
 8003566:	2231      	movs	r2, #49	; 0x31
 8003568:	2100      	movs	r1, #0
 800356a:	f000 fa07 	bl	800397c <UI_SetDAC>
 800356e:	6830      	ldr	r0, [r6, #0]
 8003570:	2224      	movs	r2, #36	; 0x24
 8003572:	2101      	movs	r1, #1
 8003574:	f000 fa02 	bl	800397c <UI_SetDAC>
 8003578:	46ae      	mov	lr, r5
 800357a:	e8be 000f 	ldmia.w	lr!, {r0, r1, r2, r3}
 800357e:	f8df c070 	ldr.w	ip, [pc, #112]	; 80035f0 <UI_TaskInit+0xdc>
 8003582:	4665      	mov	r5, ip
 8003584:	c50f      	stmia	r5!, {r0, r1, r2, r3}
 8003586:	e8be 000f 	ldmia.w	lr!, {r0, r1, r2, r3}
 800358a:	c50f      	stmia	r5!, {r0, r1, r2, r3}
 800358c:	e894 000f 	ldmia.w	r4, {r0, r1, r2, r3}
 8003590:	4c11      	ldr	r4, [pc, #68]	; (80035d8 <UI_TaskInit+0xc4>)
 8003592:	e885 000f 	stmia.w	r5, {r0, r1, r2, r3}
 8003596:	4658      	mov	r0, fp
 8003598:	f8c4 c000 	str.w	ip, [r4]
 800359c:	f007 f9b0 	bl	800a900 <UFCP_Init>
 80035a0:	6832      	ldr	r2, [r6, #0]
 80035a2:	9905      	ldr	r1, [sp, #20]
 80035a4:	4b0d      	ldr	r3, [pc, #52]	; (80035dc <UI_TaskInit+0xc8>)
 80035a6:	6820      	ldr	r0, [r4, #0]
 80035a8:	9300      	str	r3, [sp, #0]
 80035aa:	e9cd 2101 	strd	r2, r1, [sp, #4]
 80035ae:	4b0c      	ldr	r3, [pc, #48]	; (80035e0 <UI_TaskInit+0xcc>)
 80035b0:	4a0c      	ldr	r2, [pc, #48]	; (80035e4 <UI_TaskInit+0xd0>)
 80035b2:	4659      	mov	r1, fp
 80035b4:	f7ff f994 	bl	80028e0 <MCP_Init>
 80035b8:	6820      	ldr	r0, [r4, #0]
 80035ba:	f8cd a040 	str.w	sl, [sp, #64]	; 0x40
 80035be:	464b      	mov	r3, r9
 80035c0:	4642      	mov	r2, r8
 80035c2:	4639      	mov	r1, r7
 80035c4:	b007      	add	sp, #28
 80035c6:	e8bd 4ff0 	ldmia.w	sp!, {r4, r5, r6, r7, r8, r9, sl, fp, lr}
 80035ca:	f000 b84f 	b.w	800366c <UI_Init>
 80035ce:	bf00      	nop
 80035d0:	20000434 	.word	0x20000434
 80035d4:	20000648 	.word	0x20000648
 80035d8:	2000064c 	.word	0x2000064c
 80035dc:	0800ab8d 	.word	0x0800ab8d
 80035e0:	0800a965 	.word	0x0800a965
 80035e4:	0800a989 	.word	0x0800a989
 80035e8:	200000b4 	.word	0x200000b4
 80035ec:	2000049c 	.word	0x2000049c
 80035f0:	20000cd0 	.word	0x20000cd0

080035f4 <UI_Scheduler>:
 80035f4:	4a0c      	ldr	r2, [pc, #48]	; (8003628 <UI_Scheduler+0x34>)
 80035f6:	8813      	ldrh	r3, [r2, #0]
 80035f8:	b29b      	uxth	r3, r3
 80035fa:	b11b      	cbz	r3, 8003604 <UI_Scheduler+0x10>
 80035fc:	8813      	ldrh	r3, [r2, #0]
 80035fe:	3b01      	subs	r3, #1
 8003600:	b29b      	uxth	r3, r3
 8003602:	8013      	strh	r3, [r2, #0]
 8003604:	4a09      	ldr	r2, [pc, #36]	; (800362c <UI_Scheduler+0x38>)
 8003606:	8813      	ldrh	r3, [r2, #0]
 8003608:	2b01      	cmp	r3, #1
 800360a:	d903      	bls.n	8003614 <UI_Scheduler+0x20>
 800360c:	8813      	ldrh	r3, [r2, #0]
 800360e:	3b01      	subs	r3, #1
 8003610:	b29b      	uxth	r3, r3
 8003612:	8013      	strh	r3, [r2, #0]
 8003614:	4a06      	ldr	r2, [pc, #24]	; (8003630 <UI_Scheduler+0x3c>)
 8003616:	8813      	ldrh	r3, [r2, #0]
 8003618:	2b01      	cmp	r3, #1
 800361a:	d903      	bls.n	8003624 <UI_Scheduler+0x30>
 800361c:	8813      	ldrh	r3, [r2, #0]
 800361e:	3b01      	subs	r3, #1
 8003620:	b29b      	uxth	r3, r3
 8003622:	8013      	strh	r3, [r2, #0]
 8003624:	4770      	bx	lr
 8003626:	bf00      	nop
 8003628:	20000646 	.word	0x20000646
 800362c:	20000644 	.word	0x20000644
 8003630:	200005de 	.word	0x200005de

08003634 <UI_DACUpdate>:
 8003634:	b538      	push	{r3, r4, r5, lr}
 8003636:	4c06      	ldr	r4, [pc, #24]	; (8003650 <UI_DACUpdate+0x1c>)
 8003638:	4605      	mov	r5, r0
 800363a:	6820      	ldr	r0, [r4, #0]
 800363c:	f000 f82a 	bl	8003694 <UI_GetSelectedMC>
 8003640:	42a8      	cmp	r0, r5
 8003642:	d000      	beq.n	8003646 <UI_DACUpdate+0x12>
 8003644:	bd38      	pop	{r3, r4, r5, pc}
 8003646:	6820      	ldr	r0, [r4, #0]
 8003648:	e8bd 4038 	ldmia.w	sp!, {r3, r4, r5, lr}
 800364c:	f000 b992 	b.w	8003974 <UI_DACExec>
 8003650:	20000648 	.word	0x20000648

08003654 <UI_SerialCommunicationTimeOutStop>:
 8003654:	4b01      	ldr	r3, [pc, #4]	; (800365c <UI_SerialCommunicationTimeOutStop+0x8>)
 8003656:	2200      	movs	r2, #0
 8003658:	801a      	strh	r2, [r3, #0]
 800365a:	4770      	bx	lr
 800365c:	20000644 	.word	0x20000644

08003660 <UI_SerialCommunicationTimeOutStart>:
 8003660:	4b01      	ldr	r3, [pc, #4]	; (8003668 <UI_SerialCommunicationTimeOutStart+0x8>)
 8003662:	224f      	movs	r2, #79	; 0x4f
 8003664:	801a      	strh	r2, [r3, #0]
 8003666:	4770      	bx	lr
 8003668:	20000644 	.word	0x20000644

0800366c <UI_Init>:
 800366c:	b430      	push	{r4, r5}
 800366e:	9c02      	ldr	r4, [sp, #8]
 8003670:	6284      	str	r4, [r0, #40]	; 0x28
 8003672:	2500      	movs	r5, #0
 8003674:	f880 502c 	strb.w	r5, [r0, #44]	; 0x2c
 8003678:	7701      	strb	r1, [r0, #28]
 800367a:	e9c0 2308 	strd	r2, r3, [r0, #32]
 800367e:	bc30      	pop	{r4, r5}
 8003680:	4770      	bx	lr
 8003682:	bf00      	nop

08003684 <UI_SelectMC>:
 8003684:	7f03      	ldrb	r3, [r0, #28]
 8003686:	428b      	cmp	r3, r1
 8003688:	bf86      	itte	hi
 800368a:	f880 102c 	strbhi.w	r1, [r0, #44]	; 0x2c
 800368e:	2001      	movhi	r0, #1
 8003690:	2000      	movls	r0, #0
 8003692:	4770      	bx	lr

08003694 <UI_GetSelectedMC>:
 8003694:	f890 002c 	ldrb.w	r0, [r0, #44]	; 0x2c
 8003698:	4770      	bx	lr
 800369a:	bf00      	nop

0800369c <UI_SetReg>:
 800369c:	b530      	push	{r4, r5, lr}
 800369e:	e9d0 5408 	ldrd	r5, r4, [r0, #32]
 80036a2:	f890 302c 	ldrb.w	r3, [r0, #44]	; 0x2c
 80036a6:	b085      	sub	sp, #20
 80036a8:	f855 5023 	ldr.w	r5, [r5, r3, lsl #2]
 80036ac:	f854 3023 	ldr.w	r3, [r4, r3, lsl #2]
 80036b0:	295b      	cmp	r1, #91	; 0x5b
 80036b2:	f200 80a0 	bhi.w	80037f6 <UI_SetReg+0x15a>
 80036b6:	e8df f001 	tbb	[pc, r1]
 80036ba:	9e3b      	.short	0x9e3b
 80036bc:	469e3f9e 	.word	0x469e3f9e
 80036c0:	6658524c 	.word	0x6658524c
 80036c4:	8678726c 	.word	0x8678726c
 80036c8:	9e9e928c 	.word	0x9e9e928c
 80036cc:	9e9e9e9e 	.word	0x9e9e9e9e
 80036d0:	9e9e9e9e 	.word	0x9e9e9e9e
 80036d4:	9e9e9e9e 	.word	0x9e9e9e9e
 80036d8:	9e9e9e9e 	.word	0x9e9e9e9e
 80036dc:	9e9e9e9e 	.word	0x9e9e9e9e
 80036e0:	9e9e9e9e 	.word	0x9e9e9e9e
 80036e4:	9e9e9e9e 	.word	0x9e9e9e9e
 80036e8:	9e9e9e9e 	.word	0x9e9e9e9e
 80036ec:	9e9e9e9e 	.word	0x9e9e9e9e
 80036f0:	9e9e9e9e 	.word	0x9e9e9e9e
 80036f4:	9e9e9e9e 	.word	0x9e9e9e9e
 80036f8:	989e9e9e 	.word	0x989e9e9e
 80036fc:	9e9e9e9e 	.word	0x9e9e9e9e
 8003700:	9e9e9e9e 	.word	0x9e9e9e9e
 8003704:	9e9e9e9e 	.word	0x9e9e9e9e
 8003708:	9e9e9e9e 	.word	0x9e9e9e9e
 800370c:	9e9e9e9e 	.word	0x9e9e9e9e
 8003710:	9e9e9e9e 	.word	0x9e9e9e9e
 8003714:	2e9e      	.short	0x2e9e
 8003716:	4943      	ldr	r1, [pc, #268]	; (8003824 <UI_SetReg+0x188>)
 8003718:	fb81 3102 	smull	r3, r1, r1, r2
 800371c:	eba1 71e2 	sub.w	r1, r1, r2, asr #31
 8003720:	4628      	mov	r0, r5
 8003722:	b209      	sxth	r1, r1
 8003724:	2200      	movs	r2, #0
 8003726:	f7fd ff9f 	bl	8001668 <MCI_ExecSpeedRamp>
 800372a:	2001      	movs	r0, #1
 800372c:	b005      	add	sp, #20
 800372e:	bd30      	pop	{r4, r5, pc}
 8003730:	b2d1      	uxtb	r1, r2
 8003732:	f7ff ffa7 	bl	8003684 <UI_SelectMC>
 8003736:	e7f9      	b.n	800372c <UI_SetReg+0x90>
 8003738:	f012 04ff 	ands.w	r4, r2, #255	; 0xff
 800373c:	d05d      	beq.n	80037fa <UI_SetReg+0x15e>
 800373e:	2c01      	cmp	r4, #1
 8003740:	d065      	beq.n	800380e <UI_SetReg+0x172>
 8003742:	2001      	movs	r0, #1
 8003744:	e7f2      	b.n	800372c <UI_SetReg+0x90>
 8003746:	6818      	ldr	r0, [r3, #0]
 8003748:	b211      	sxth	r1, r2
 800374a:	f005 fd25 	bl	8009198 <PID_SetKP>
 800374e:	2001      	movs	r0, #1
 8003750:	e7ec      	b.n	800372c <UI_SetReg+0x90>
 8003752:	6818      	ldr	r0, [r3, #0]
 8003754:	b211      	sxth	r1, r2
 8003756:	f005 fd21 	bl	800919c <PID_SetKI>
 800375a:	2001      	movs	r0, #1
 800375c:	e7e6      	b.n	800372c <UI_SetReg+0x90>
 800375e:	6818      	ldr	r0, [r3, #0]
 8003760:	b211      	sxth	r1, r2
 8003762:	f005 fd2b 	bl	80091bc <PID_SetKD>
 8003766:	2001      	movs	r0, #1
 8003768:	e7e0      	b.n	800372c <UI_SetReg+0x90>
 800376a:	4628      	mov	r0, r5
 800376c:	9201      	str	r2, [sp, #4]
 800376e:	f7fe f823 	bl	80017b8 <MCI_GetIqdref>
 8003772:	9a01      	ldr	r2, [sp, #4]
 8003774:	9003      	str	r0, [sp, #12]
 8003776:	f8ad 200c 	strh.w	r2, [sp, #12]
 800377a:	4628      	mov	r0, r5
 800377c:	9903      	ldr	r1, [sp, #12]
 800377e:	f7fd ff87 	bl	8001690 <MCI_SetCurrentReferences>
 8003782:	2001      	movs	r0, #1
 8003784:	e7d2      	b.n	800372c <UI_SetReg+0x90>
 8003786:	6858      	ldr	r0, [r3, #4]
 8003788:	b211      	sxth	r1, r2
 800378a:	f005 fd05 	bl	8009198 <PID_SetKP>
 800378e:	2001      	movs	r0, #1
 8003790:	e7cc      	b.n	800372c <UI_SetReg+0x90>
 8003792:	6858      	ldr	r0, [r3, #4]
 8003794:	b211      	sxth	r1, r2
 8003796:	f005 fd01 	bl	800919c <PID_SetKI>
 800379a:	2001      	movs	r0, #1
 800379c:	e7c6      	b.n	800372c <UI_SetReg+0x90>
 800379e:	6858      	ldr	r0, [r3, #4]
 80037a0:	b211      	sxth	r1, r2
 80037a2:	f005 fd0b 	bl	80091bc <PID_SetKD>
 80037a6:	2001      	movs	r0, #1
 80037a8:	e7c0      	b.n	800372c <UI_SetReg+0x90>
 80037aa:	4628      	mov	r0, r5
 80037ac:	9201      	str	r2, [sp, #4]
 80037ae:	f7fe f803 	bl	80017b8 <MCI_GetIqdref>
 80037b2:	9a01      	ldr	r2, [sp, #4]
 80037b4:	9003      	str	r0, [sp, #12]
 80037b6:	f8ad 200e 	strh.w	r2, [sp, #14]
 80037ba:	4628      	mov	r0, r5
 80037bc:	9903      	ldr	r1, [sp, #12]
 80037be:	f7fd ff67 	bl	8001690 <MCI_SetCurrentReferences>
 80037c2:	2001      	movs	r0, #1
 80037c4:	e7b2      	b.n	800372c <UI_SetReg+0x90>
 80037c6:	6898      	ldr	r0, [r3, #8]
 80037c8:	b211      	sxth	r1, r2
 80037ca:	f005 fce5 	bl	8009198 <PID_SetKP>
 80037ce:	2001      	movs	r0, #1
 80037d0:	e7ac      	b.n	800372c <UI_SetReg+0x90>
 80037d2:	6898      	ldr	r0, [r3, #8]
 80037d4:	b211      	sxth	r1, r2
 80037d6:	f005 fce1 	bl	800919c <PID_SetKI>
 80037da:	2001      	movs	r0, #1
 80037dc:	e7a6      	b.n	800372c <UI_SetReg+0x90>
 80037de:	6898      	ldr	r0, [r3, #8]
 80037e0:	b211      	sxth	r1, r2
 80037e2:	f005 fceb 	bl	80091bc <PID_SetKD>
 80037e6:	2001      	movs	r0, #1
 80037e8:	e7a0      	b.n	800372c <UI_SetReg+0x90>
 80037ea:	4628      	mov	r0, r5
 80037ec:	b211      	sxth	r1, r2
 80037ee:	f7fe f803 	bl	80017f8 <MCI_SetIdref>
 80037f2:	2001      	movs	r0, #1
 80037f4:	e79a      	b.n	800372c <UI_SetReg+0x90>
 80037f6:	2000      	movs	r0, #0
 80037f8:	e798      	b.n	800372c <UI_SetReg+0x90>
 80037fa:	4628      	mov	r0, r5
 80037fc:	f7fd fff8 	bl	80017f0 <MCI_GetTeref>
 8003800:	4622      	mov	r2, r4
 8003802:	4601      	mov	r1, r0
 8003804:	4628      	mov	r0, r5
 8003806:	f7fd ff37 	bl	8001678 <MCI_ExecTorqueRamp>
 800380a:	2001      	movs	r0, #1
 800380c:	e78e      	b.n	800372c <UI_SetReg+0x90>
 800380e:	4628      	mov	r0, r5
 8003810:	f7fd ffb6 	bl	8001780 <MCI_GetMecSpeedRefUnit>
 8003814:	2200      	movs	r2, #0
 8003816:	4601      	mov	r1, r0
 8003818:	4628      	mov	r0, r5
 800381a:	f7fd ff25 	bl	8001668 <MCI_ExecSpeedRamp>
 800381e:	4620      	mov	r0, r4
 8003820:	e784      	b.n	800372c <UI_SetReg+0x90>
 8003822:	bf00      	nop
 8003824:	2aaaaaab 	.word	0x2aaaaaab

08003828 <UI_ExecCmd>:
 8003828:	b510      	push	{r4, lr}
 800382a:	6a03      	ldr	r3, [r0, #32]
 800382c:	f890 202c 	ldrb.w	r2, [r0, #44]	; 0x2c
 8003830:	3901      	subs	r1, #1
 8003832:	f853 4022 	ldr.w	r4, [r3, r2, lsl #2]
 8003836:	290d      	cmp	r1, #13
 8003838:	d82c      	bhi.n	8003894 <UI_ExecCmd+0x6c>
 800383a:	e8df f001 	tbb	[pc, r1]
 800383e:	1217      	.short	0x1217
 8003840:	0e0c0c07 	.word	0x0e0c0c07
 8003844:	2b21261c 	.word	0x2b21261c
 8003848:	122b2b2b 	.word	0x122b2b2b
 800384c:	4620      	mov	r0, r4
 800384e:	f7fd ff7d 	bl	800174c <MCI_GetSTMState>
 8003852:	2806      	cmp	r0, #6
 8003854:	d020      	beq.n	8003898 <UI_ExecCmd+0x70>
 8003856:	2001      	movs	r0, #1
 8003858:	bd10      	pop	{r4, pc}
 800385a:	4620      	mov	r0, r4
 800385c:	f7fd ff76 	bl	800174c <MCI_GetSTMState>
 8003860:	b120      	cbz	r0, 800386c <UI_ExecCmd+0x44>
 8003862:	4620      	mov	r0, r4
 8003864:	f7fd ff2c 	bl	80016c0 <MCI_StopMotor>
 8003868:	2001      	movs	r0, #1
 800386a:	bd10      	pop	{r4, pc}
 800386c:	4620      	mov	r0, r4
 800386e:	f7fd ff1d 	bl	80016ac <MCI_StartMotor>
 8003872:	2001      	movs	r0, #1
 8003874:	bd10      	pop	{r4, pc}
 8003876:	4620      	mov	r0, r4
 8003878:	f7fd ff26 	bl	80016c8 <MCI_FaultAcknowledged>
 800387c:	2001      	movs	r0, #1
 800387e:	bd10      	pop	{r4, pc}
 8003880:	4620      	mov	r0, r4
 8003882:	f7fd ffbd 	bl	8001800 <MCI_Clear_Iqdref>
 8003886:	2001      	movs	r0, #1
 8003888:	bd10      	pop	{r4, pc}
 800388a:	4620      	mov	r0, r4
 800388c:	f7fd ff20 	bl	80016d0 <MCI_EncoderAlign>
 8003890:	2001      	movs	r0, #1
 8003892:	bd10      	pop	{r4, pc}
 8003894:	2000      	movs	r0, #0
 8003896:	bd10      	pop	{r4, pc}
 8003898:	4620      	mov	r0, r4
 800389a:	f7fd ff65 	bl	8001768 <MCI_StopRamp>
 800389e:	2001      	movs	r0, #1
 80038a0:	bd10      	pop	{r4, pc}
 80038a2:	bf00      	nop

080038a4 <UI_ExecSpeedRamp>:
 80038a4:	b510      	push	{r4, lr}
 80038a6:	4b07      	ldr	r3, [pc, #28]	; (80038c4 <UI_ExecSpeedRamp+0x20>)
 80038a8:	f890 402c 	ldrb.w	r4, [r0, #44]	; 0x2c
 80038ac:	6a00      	ldr	r0, [r0, #32]
 80038ae:	fb83 c301 	smull	ip, r3, r3, r1
 80038b2:	eba3 71e1 	sub.w	r1, r3, r1, asr #31
 80038b6:	f850 0024 	ldr.w	r0, [r0, r4, lsl #2]
 80038ba:	b209      	sxth	r1, r1
 80038bc:	f7fd fed4 	bl	8001668 <MCI_ExecSpeedRamp>
 80038c0:	2001      	movs	r0, #1
 80038c2:	bd10      	pop	{r4, pc}
 80038c4:	2aaaaaab 	.word	0x2aaaaaab

080038c8 <UI_ExecTorqueRamp>:
 80038c8:	b510      	push	{r4, lr}
 80038ca:	6a03      	ldr	r3, [r0, #32]
 80038cc:	f890 402c 	ldrb.w	r4, [r0, #44]	; 0x2c
 80038d0:	f853 0024 	ldr.w	r0, [r3, r4, lsl #2]
 80038d4:	f7fd fed0 	bl	8001678 <MCI_ExecTorqueRamp>
 80038d8:	2001      	movs	r0, #1
 80038da:	bd10      	pop	{r4, pc}

080038dc <UI_GetRevupData>:
 80038dc:	b5f8      	push	{r3, r4, r5, r6, r7, lr}
 80038de:	f890 402c 	ldrb.w	r4, [r0, #44]	; 0x2c
 80038e2:	6a40      	ldr	r0, [r0, #36]	; 0x24
 80038e4:	f850 0024 	ldr.w	r0, [r0, r4, lsl #2]
 80038e8:	6944      	ldr	r4, [r0, #20]
 80038ea:	b194      	cbz	r4, 8003912 <UI_GetRevupData+0x36>
 80038ec:	4620      	mov	r0, r4
 80038ee:	461e      	mov	r6, r3
 80038f0:	4617      	mov	r7, r2
 80038f2:	460d      	mov	r5, r1
 80038f4:	f007 f9b6 	bl	800ac64 <RUC_GetPhaseDurationms>
 80038f8:	4629      	mov	r1, r5
 80038fa:	8038      	strh	r0, [r7, #0]
 80038fc:	4620      	mov	r0, r4
 80038fe:	f007 f9b7 	bl	800ac70 <RUC_GetPhaseFinalMecSpeedUnit>
 8003902:	4629      	mov	r1, r5
 8003904:	8030      	strh	r0, [r6, #0]
 8003906:	4620      	mov	r0, r4
 8003908:	f007 f9ba 	bl	800ac80 <RUC_GetPhaseFinalTorque>
 800390c:	9b06      	ldr	r3, [sp, #24]
 800390e:	2401      	movs	r4, #1
 8003910:	8018      	strh	r0, [r3, #0]
 8003912:	4620      	mov	r0, r4
 8003914:	bdf8      	pop	{r3, r4, r5, r6, r7, pc}
 8003916:	bf00      	nop

08003918 <UI_SetRevupData>:
 8003918:	b5f8      	push	{r3, r4, r5, r6, r7, lr}
 800391a:	461f      	mov	r7, r3
 800391c:	f890 402c 	ldrb.w	r4, [r0, #44]	; 0x2c
 8003920:	6a43      	ldr	r3, [r0, #36]	; 0x24
 8003922:	f9bd 6018 	ldrsh.w	r6, [sp, #24]
 8003926:	f853 3024 	ldr.w	r3, [r3, r4, lsl #2]
 800392a:	695c      	ldr	r4, [r3, #20]
 800392c:	460d      	mov	r5, r1
 800392e:	4620      	mov	r0, r4
 8003930:	f007 f986 	bl	800ac40 <RUC_SetPhaseDurationms>
 8003934:	463a      	mov	r2, r7
 8003936:	4629      	mov	r1, r5
 8003938:	4620      	mov	r0, r4
 800393a:	f007 f987 	bl	800ac4c <RUC_SetPhaseFinalMecSpeedUnit>
 800393e:	4620      	mov	r0, r4
 8003940:	4632      	mov	r2, r6
 8003942:	4629      	mov	r1, r5
 8003944:	f007 f988 	bl	800ac58 <RUC_SetPhaseFinalTorque>
 8003948:	2001      	movs	r0, #1
 800394a:	bdf8      	pop	{r3, r4, r5, r6, r7, pc}

0800394c <UI_SetCurrentReferences>:
 800394c:	b082      	sub	sp, #8
 800394e:	6a03      	ldr	r3, [r0, #32]
 8003950:	f8ad 1004 	strh.w	r1, [sp, #4]
 8003954:	f890 102c 	ldrb.w	r1, [r0, #44]	; 0x2c
 8003958:	f8ad 2006 	strh.w	r2, [sp, #6]
 800395c:	f853 0021 	ldr.w	r0, [r3, r1, lsl #2]
 8003960:	9901      	ldr	r1, [sp, #4]
 8003962:	b002      	add	sp, #8
 8003964:	f7fd be94 	b.w	8001690 <MCI_SetCurrentReferences>

08003968 <UI_GetMPInfo>:
 8003968:	2000      	movs	r0, #0
 800396a:	4770      	bx	lr

0800396c <UI_DACInit>:
 800396c:	6943      	ldr	r3, [r0, #20]
 800396e:	b103      	cbz	r3, 8003972 <UI_DACInit+0x6>
 8003970:	4718      	bx	r3
 8003972:	4770      	bx	lr

08003974 <UI_DACExec>:
 8003974:	6983      	ldr	r3, [r0, #24]
 8003976:	b103      	cbz	r3, 800397a <UI_DACExec+0x6>
 8003978:	4718      	bx	r3
 800397a:	4770      	bx	lr

0800397c <UI_SetDAC>:
 800397c:	6843      	ldr	r3, [r0, #4]
 800397e:	b103      	cbz	r3, 8003982 <UI_SetDAC+0x6>
 8003980:	4718      	bx	r3
 8003982:	4770      	bx	lr

08003984 <UI_GetDAC>:
 8003984:	6883      	ldr	r3, [r0, #8]
 8003986:	b103      	cbz	r3, 800398a <UI_GetDAC+0x6>
 8003988:	4718      	bx	r3
 800398a:	2089      	movs	r0, #137	; 0x89
 800398c:	4770      	bx	lr
 800398e:	bf00      	nop

08003990 <UI_GetReg>:
 8003990:	b570      	push	{r4, r5, r6, lr}
 8003992:	e9d0 4508 	ldrd	r4, r5, [r0, #32]
 8003996:	f890 302c 	ldrb.w	r3, [r0, #44]	; 0x2c
 800399a:	b08c      	sub	sp, #48	; 0x30
 800399c:	f855 5023 	ldr.w	r5, [r5, r3, lsl #2]
 80039a0:	f854 6023 	ldr.w	r6, [r4, r3, lsl #2]
 80039a4:	2a00      	cmp	r2, #0
 80039a6:	f000 8089 	beq.w	8003abc <UI_GetReg+0x12c>
 80039aa:	2401      	movs	r4, #1
 80039ac:	7014      	strb	r4, [r2, #0]
 80039ae:	2981      	cmp	r1, #129	; 0x81
 80039b0:	f200 81f3 	bhi.w	8003d9a <UI_GetReg+0x40a>
 80039b4:	e8df f011 	tbh	[pc, r1, lsl #1]
 80039b8:	01b301b9 	.word	0x01b301b9
 80039bc:	01ab01af 	.word	0x01ab01af
 80039c0:	012e0132 	.word	0x012e0132
 80039c4:	0126012a 	.word	0x0126012a
 80039c8:	01390105 	.word	0x01390105
 80039cc:	01e901ed 	.word	0x01e901ed
 80039d0:	011a00fa 	.word	0x011a00fa
 80039d4:	011e0122 	.word	0x011e0122
 80039d8:	01f101f1 	.word	0x01f101f1
 80039dc:	01f101f1 	.word	0x01f101f1
 80039e0:	01f101f1 	.word	0x01f101f1
 80039e4:	01f101f1 	.word	0x01f101f1
 80039e8:	01db01f1 	.word	0x01db01f1
 80039ec:	01d301d7 	.word	0x01d301d7
 80039f0:	01cb01cf 	.word	0x01cb01cf
 80039f4:	018401c4 	.word	0x018401c4
 80039f8:	01f1017f 	.word	0x01f1017f
 80039fc:	010a010f 	.word	0x010a010f
 8003a00:	01df01e4 	.word	0x01df01e4
 8003a04:	01840115 	.word	0x01840115
 8003a08:	0105017f 	.word	0x0105017f
 8003a0c:	019800fa 	.word	0x019800fa
 8003a10:	018e0193 	.word	0x018e0193
 8003a14:	01510189 	.word	0x01510189
 8003a18:	01f1013d 	.word	0x01f1013d
 8003a1c:	01f101f1 	.word	0x01f101f1
 8003a20:	01f101f1 	.word	0x01f101f1
 8003a24:	01f101f1 	.word	0x01f101f1
 8003a28:	01f101f1 	.word	0x01f101f1
 8003a2c:	01f101f1 	.word	0x01f101f1
 8003a30:	017901f1 	.word	0x017901f1
 8003a34:	016c0173 	.word	0x016c0173
 8003a38:	00fa0165 	.word	0x00fa0165
 8003a3c:	01f101f1 	.word	0x01f101f1
 8003a40:	01f101f1 	.word	0x01f101f1
 8003a44:	01f101f1 	.word	0x01f101f1
 8003a48:	01f101f1 	.word	0x01f101f1
 8003a4c:	01f101f1 	.word	0x01f101f1
 8003a50:	01f101f1 	.word	0x01f101f1
 8003a54:	01f101f1 	.word	0x01f101f1
 8003a58:	01f101f1 	.word	0x01f101f1
 8003a5c:	01f101f1 	.word	0x01f101f1
 8003a60:	01f101f1 	.word	0x01f101f1
 8003a64:	01f101f1 	.word	0x01f101f1
 8003a68:	01f101f1 	.word	0x01f101f1
 8003a6c:	019d01f1 	.word	0x019d01f1
 8003a70:	01f101f1 	.word	0x01f101f1
 8003a74:	01f101f1 	.word	0x01f101f1
 8003a78:	01f101f1 	.word	0x01f101f1
 8003a7c:	01f101f1 	.word	0x01f101f1
 8003a80:	01f101f1 	.word	0x01f101f1
 8003a84:	01f101f1 	.word	0x01f101f1
 8003a88:	01f101f1 	.word	0x01f101f1
 8003a8c:	01f101f1 	.word	0x01f101f1
 8003a90:	01f101f1 	.word	0x01f101f1
 8003a94:	01bc01c0 	.word	0x01bc01c0
 8003a98:	01f101a9 	.word	0x01f101a9
 8003a9c:	01020102 	.word	0x01020102
 8003aa0:	01f101f1 	.word	0x01f101f1
 8003aa4:	01f101f1 	.word	0x01f101f1
 8003aa8:	01f101f1 	.word	0x01f101f1
 8003aac:	01f101f1 	.word	0x01f101f1
 8003ab0:	01f101f1 	.word	0x01f101f1
 8003ab4:	01f101f1 	.word	0x01f101f1
 8003ab8:	010001f1 	.word	0x010001f1
 8003abc:	2973      	cmp	r1, #115	; 0x73
 8003abe:	d87b      	bhi.n	8003bb8 <UI_GetReg+0x228>
 8003ac0:	e8df f011 	tbh	[pc, r1, lsl #1]
 8003ac4:	012d0133 	.word	0x012d0133
 8003ac8:	01250129 	.word	0x01250129
 8003acc:	00a800ac 	.word	0x00a800ac
 8003ad0:	00a000a4 	.word	0x00a000a4
 8003ad4:	00b3007f 	.word	0x00b3007f
 8003ad8:	01630167 	.word	0x01630167
 8003adc:	00940074 	.word	0x00940074
 8003ae0:	0098009c 	.word	0x0098009c
 8003ae4:	007a007a 	.word	0x007a007a
 8003ae8:	007a007a 	.word	0x007a007a
 8003aec:	007a007a 	.word	0x007a007a
 8003af0:	007a007a 	.word	0x007a007a
 8003af4:	0155007a 	.word	0x0155007a
 8003af8:	014d0151 	.word	0x014d0151
 8003afc:	01450149 	.word	0x01450149
 8003b00:	00fe013e 	.word	0x00fe013e
 8003b04:	007a00f9 	.word	0x007a00f9
 8003b08:	00840089 	.word	0x00840089
 8003b0c:	0159015e 	.word	0x0159015e
 8003b10:	00fe008f 	.word	0x00fe008f
 8003b14:	007f00f9 	.word	0x007f00f9
 8003b18:	01120074 	.word	0x01120074
 8003b1c:	0108010d 	.word	0x0108010d
 8003b20:	00cb0103 	.word	0x00cb0103
 8003b24:	007a00b7 	.word	0x007a00b7
 8003b28:	007a007a 	.word	0x007a007a
 8003b2c:	007a007a 	.word	0x007a007a
 8003b30:	007a007a 	.word	0x007a007a
 8003b34:	007a007a 	.word	0x007a007a
 8003b38:	007a007a 	.word	0x007a007a
 8003b3c:	00f3007a 	.word	0x00f3007a
 8003b40:	00e600ed 	.word	0x00e600ed
 8003b44:	007400df 	.word	0x007400df
 8003b48:	007a007a 	.word	0x007a007a
 8003b4c:	007a007a 	.word	0x007a007a
 8003b50:	007a007a 	.word	0x007a007a
 8003b54:	007a007a 	.word	0x007a007a
 8003b58:	007a007a 	.word	0x007a007a
 8003b5c:	007a007a 	.word	0x007a007a
 8003b60:	007a007a 	.word	0x007a007a
 8003b64:	007a007a 	.word	0x007a007a
 8003b68:	007a007a 	.word	0x007a007a
 8003b6c:	007a007a 	.word	0x007a007a
 8003b70:	007a007a 	.word	0x007a007a
 8003b74:	007a007a 	.word	0x007a007a
 8003b78:	0117007a 	.word	0x0117007a
 8003b7c:	007a007a 	.word	0x007a007a
 8003b80:	007a007a 	.word	0x007a007a
 8003b84:	007a007a 	.word	0x007a007a
 8003b88:	007a007a 	.word	0x007a007a
 8003b8c:	007a007a 	.word	0x007a007a
 8003b90:	007a007a 	.word	0x007a007a
 8003b94:	007a007a 	.word	0x007a007a
 8003b98:	007a007a 	.word	0x007a007a
 8003b9c:	007a007a 	.word	0x007a007a
 8003ba0:	0136013a 	.word	0x0136013a
 8003ba4:	007a0123 	.word	0x007a0123
 8003ba8:	007c007c 	.word	0x007c007c
 8003bac:	4630      	mov	r0, r6
 8003bae:	f7fd fe03 	bl	80017b8 <MCI_GetIqdref>
 8003bb2:	1400      	asrs	r0, r0, #16
 8003bb4:	b00c      	add	sp, #48	; 0x30
 8003bb6:	bd70      	pop	{r4, r5, r6, pc}
 8003bb8:	2000      	movs	r0, #0
 8003bba:	e7fb      	b.n	8003bb4 <UI_GetReg+0x224>
 8003bbc:	f242 701f 	movw	r0, #10015	; 0x271f
 8003bc0:	e7f8      	b.n	8003bb4 <UI_GetReg+0x224>
 8003bc2:	4630      	mov	r0, r6
 8003bc4:	f7fd fdf8 	bl	80017b8 <MCI_GetIqdref>
 8003bc8:	b200      	sxth	r0, r0
 8003bca:	e7f3      	b.n	8003bb4 <UI_GetReg+0x224>
 8003bcc:	4630      	mov	r0, r6
 8003bce:	f7fd fddb 	bl	8001788 <MCI_GetIab>
 8003bd2:	b200      	sxth	r0, r0
 8003bd4:	e7ee      	b.n	8003bb4 <UI_GetReg+0x224>
 8003bd6:	6968      	ldr	r0, [r5, #20]
 8003bd8:	2800      	cmp	r0, #0
 8003bda:	d0ed      	beq.n	8003bb8 <UI_GetReg+0x228>
 8003bdc:	f007 f858 	bl	800ac90 <RUC_GetNumberOfPhases>
 8003be0:	e7e8      	b.n	8003bb4 <UI_GetReg+0x224>
 8003be2:	4630      	mov	r0, r6
 8003be4:	f7fd fdd8 	bl	8001798 <MCI_GetIalphabeta>
 8003be8:	1400      	asrs	r0, r0, #16
 8003bea:	e7e3      	b.n	8003bb4 <UI_GetReg+0x224>
 8003bec:	68a8      	ldr	r0, [r5, #8]
 8003bee:	f005 fad7 	bl	80091a0 <PID_GetKP>
 8003bf2:	e7df      	b.n	8003bb4 <UI_GetReg+0x224>
 8003bf4:	68a8      	ldr	r0, [r5, #8]
 8003bf6:	f005 fae3 	bl	80091c0 <PID_GetKD>
 8003bfa:	e7db      	b.n	8003bb4 <UI_GetReg+0x224>
 8003bfc:	68a8      	ldr	r0, [r5, #8]
 8003bfe:	f005 fad3 	bl	80091a8 <PID_GetKI>
 8003c02:	e7d7      	b.n	8003bb4 <UI_GetReg+0x224>
 8003c04:	6828      	ldr	r0, [r5, #0]
 8003c06:	f005 fadb 	bl	80091c0 <PID_GetKD>
 8003c0a:	e7d3      	b.n	8003bb4 <UI_GetReg+0x224>
 8003c0c:	6828      	ldr	r0, [r5, #0]
 8003c0e:	f005 facb 	bl	80091a8 <PID_GetKI>
 8003c12:	e7cf      	b.n	8003bb4 <UI_GetReg+0x224>
 8003c14:	6828      	ldr	r0, [r5, #0]
 8003c16:	f005 fac3 	bl	80091a0 <PID_GetKP>
 8003c1a:	e7cb      	b.n	8003bb4 <UI_GetReg+0x224>
 8003c1c:	4630      	mov	r0, r6
 8003c1e:	f7fd fdaf 	bl	8001780 <MCI_GetMecSpeedRefUnit>
 8003c22:	eb00 0040 	add.w	r0, r0, r0, lsl #1
 8003c26:	0040      	lsls	r0, r0, #1
 8003c28:	e7c4      	b.n	8003bb4 <UI_GetReg+0x224>
 8003c2a:	6868      	ldr	r0, [r5, #4]
 8003c2c:	f005 fab8 	bl	80091a0 <PID_GetKP>
 8003c30:	e7c0      	b.n	8003bb4 <UI_GetReg+0x224>
 8003c32:	6a82      	ldr	r2, [r0, #40]	; 0x28
 8003c34:	f852 3023 	ldr.w	r3, [r2, r3, lsl #2]
 8003c38:	0f1a      	lsrs	r2, r3, #28
 8003c3a:	3a01      	subs	r2, #1
 8003c3c:	f3c3 6303 	ubfx	r3, r3, #24, #4
 8003c40:	2a01      	cmp	r2, #1
 8003c42:	f103 33ff 	add.w	r3, r3, #4294967295
 8003c46:	f240 80ab 	bls.w	8003da0 <UI_GetReg+0x410>
 8003c4a:	2b01      	cmp	r3, #1
 8003c4c:	d8b4      	bhi.n	8003bb8 <UI_GetReg+0x228>
 8003c4e:	69e8      	ldr	r0, [r5, #28]
 8003c50:	2800      	cmp	r0, #0
 8003c52:	d0b1      	beq.n	8003bb8 <UI_GetReg+0x228>
 8003c54:	f006 fcd2 	bl	800a5fc <SPD_GetS16Speed>
 8003c58:	e7ac      	b.n	8003bb4 <UI_GetReg+0x224>
 8003c5a:	6a82      	ldr	r2, [r0, #40]	; 0x28
 8003c5c:	f852 3023 	ldr.w	r3, [r2, r3, lsl #2]
 8003c60:	0f1a      	lsrs	r2, r3, #28
 8003c62:	3a01      	subs	r2, #1
 8003c64:	f3c3 6303 	ubfx	r3, r3, #24, #4
 8003c68:	2a01      	cmp	r2, #1
 8003c6a:	f103 33ff 	add.w	r3, r3, #4294967295
 8003c6e:	f240 809c 	bls.w	8003daa <UI_GetReg+0x41a>
 8003c72:	2b01      	cmp	r3, #1
 8003c74:	d8a0      	bhi.n	8003bb8 <UI_GetReg+0x228>
 8003c76:	69e8      	ldr	r0, [r5, #28]
 8003c78:	2800      	cmp	r0, #0
 8003c7a:	d09d      	beq.n	8003bb8 <UI_GetReg+0x228>
 8003c7c:	f006 fc82 	bl	800a584 <SPD_GetElAngle>
 8003c80:	e798      	b.n	8003bb4 <UI_GetReg+0x224>
 8003c82:	6a68      	ldr	r0, [r5, #36]	; 0x24
 8003c84:	f006 fd7c 	bl	800a780 <STC_GetMinAppNegativeMecSpeedUnit>
 8003c88:	eb00 0040 	add.w	r0, r0, r0, lsl #1
 8003c8c:	0040      	lsls	r0, r0, #1
 8003c8e:	e791      	b.n	8003bb4 <UI_GetReg+0x224>
 8003c90:	6a68      	ldr	r0, [r5, #36]	; 0x24
 8003c92:	f006 fd73 	bl	800a77c <STC_GetMaxAppPositiveMecSpeedUnit>
 8003c96:	eb00 0040 	add.w	r0, r0, r0, lsl #1
 8003c9a:	0040      	lsls	r0, r0, #1
 8003c9c:	e78a      	b.n	8003bb4 <UI_GetReg+0x224>
 8003c9e:	6903      	ldr	r3, [r0, #16]
 8003ca0:	2b00      	cmp	r3, #0
 8003ca2:	d089      	beq.n	8003bb8 <UI_GetReg+0x228>
 8003ca4:	2101      	movs	r1, #1
 8003ca6:	4798      	blx	r3
 8003ca8:	e784      	b.n	8003bb4 <UI_GetReg+0x224>
 8003caa:	6903      	ldr	r3, [r0, #16]
 8003cac:	2b00      	cmp	r3, #0
 8003cae:	d083      	beq.n	8003bb8 <UI_GetReg+0x228>
 8003cb0:	2100      	movs	r1, #0
 8003cb2:	4798      	blx	r3
 8003cb4:	e77e      	b.n	8003bb4 <UI_GetReg+0x224>
 8003cb6:	4630      	mov	r0, r6
 8003cb8:	f7fd fd76 	bl	80017a8 <MCI_GetIqd>
 8003cbc:	1400      	asrs	r0, r0, #16
 8003cbe:	e779      	b.n	8003bb4 <UI_GetReg+0x224>
 8003cc0:	4630      	mov	r0, r6
 8003cc2:	f7fd fd71 	bl	80017a8 <MCI_GetIqd>
 8003cc6:	b200      	sxth	r0, r0
 8003cc8:	e774      	b.n	8003bb4 <UI_GetReg+0x224>
 8003cca:	4630      	mov	r0, r6
 8003ccc:	f7fd fd86 	bl	80017dc <MCI_GetValphabeta>
 8003cd0:	1400      	asrs	r0, r0, #16
 8003cd2:	e76f      	b.n	8003bb4 <UI_GetReg+0x224>
 8003cd4:	4630      	mov	r0, r6
 8003cd6:	f7fd fd81 	bl	80017dc <MCI_GetValphabeta>
 8003cda:	b200      	sxth	r0, r0
 8003cdc:	e76a      	b.n	8003bb4 <UI_GetReg+0x224>
 8003cde:	4630      	mov	r0, r6
 8003ce0:	f7fd fd72 	bl	80017c8 <MCI_GetVqd>
 8003ce4:	1400      	asrs	r0, r0, #16
 8003ce6:	e765      	b.n	8003bb4 <UI_GetReg+0x224>
 8003ce8:	4630      	mov	r0, r6
 8003cea:	f7fd fd6d 	bl	80017c8 <MCI_GetVqd>
 8003cee:	b200      	sxth	r0, r0
 8003cf0:	e760      	b.n	8003bb4 <UI_GetReg+0x224>
 8003cf2:	4630      	mov	r0, r6
 8003cf4:	f7fd fd2e 	bl	8001754 <MCI_GetControlMode>
 8003cf8:	2801      	cmp	r0, #1
 8003cfa:	4630      	mov	r0, r6
 8003cfc:	d05a      	beq.n	8003db4 <UI_GetReg+0x424>
 8003cfe:	f7fd fd3f 	bl	8001780 <MCI_GetMecSpeedRefUnit>
 8003d02:	eb00 0040 	add.w	r0, r0, r0, lsl #1
 8003d06:	0040      	lsls	r0, r0, #1
 8003d08:	e754      	b.n	8003bb4 <UI_GetReg+0x224>
 8003d0a:	482d      	ldr	r0, [pc, #180]	; (8003dc0 <UI_GetReg+0x430>)
 8003d0c:	e752      	b.n	8003bb4 <UI_GetReg+0x224>
 8003d0e:	4630      	mov	r0, r6
 8003d10:	f7fd fd20 	bl	8001754 <MCI_GetControlMode>
 8003d14:	e74e      	b.n	8003bb4 <UI_GetReg+0x224>
 8003d16:	6aa8      	ldr	r0, [r5, #40]	; 0x28
 8003d18:	f006 fdde 	bl	800a8d8 <STM_GetState>
 8003d1c:	e74a      	b.n	8003bb4 <UI_GetReg+0x224>
 8003d1e:	6aa8      	ldr	r0, [r5, #40]	; 0x28
 8003d20:	b00c      	add	sp, #48	; 0x30
 8003d22:	e8bd 4070 	ldmia.w	sp!, {r4, r5, r6, lr}
 8003d26:	f006 bde5 	b.w	800a8f4 <STM_GetFaultState>
 8003d2a:	f7ff fcb3 	bl	8003694 <UI_GetSelectedMC>
 8003d2e:	e741      	b.n	8003bb4 <UI_GetReg+0x224>
 8003d30:	6828      	ldr	r0, [r5, #0]
 8003d32:	f005 fa41 	bl	80091b8 <PID_GetKIDivisor>
 8003d36:	e73d      	b.n	8003bb4 <UI_GetReg+0x224>
 8003d38:	6828      	ldr	r0, [r5, #0]
 8003d3a:	f005 fa3b 	bl	80091b4 <PID_GetKPDivisor>
 8003d3e:	e739      	b.n	8003bb4 <UI_GetReg+0x224>
 8003d40:	4630      	mov	r0, r6
 8003d42:	f7fd fd15 	bl	8001770 <MCI_GetAvrgMecSpeedUnit>
 8003d46:	eb00 0040 	add.w	r0, r0, r0, lsl #1
 8003d4a:	0040      	lsls	r0, r0, #1
 8003d4c:	e732      	b.n	8003bb4 <UI_GetReg+0x224>
 8003d4e:	2101      	movs	r1, #1
 8003d50:	f7ff fe18 	bl	8003984 <UI_GetDAC>
 8003d54:	e72e      	b.n	8003bb4 <UI_GetReg+0x224>
 8003d56:	2100      	movs	r1, #0
 8003d58:	f7ff fe14 	bl	8003984 <UI_GetDAC>
 8003d5c:	e72a      	b.n	8003bb4 <UI_GetReg+0x224>
 8003d5e:	6be8      	ldr	r0, [r5, #60]	; 0x3c
 8003d60:	f005 f9b6 	bl	80090d0 <MPM_GetAvrgElMotorPowerW>
 8003d64:	e726      	b.n	8003bb4 <UI_GetReg+0x224>
 8003d66:	6ae8      	ldr	r0, [r5, #44]	; 0x2c
 8003d68:	f005 f9f8 	bl	800915c <NTC_GetAvTemp_C>
 8003d6c:	e722      	b.n	8003bb4 <UI_GetReg+0x224>
 8003d6e:	6b28      	ldr	r0, [r5, #48]	; 0x30
 8003d70:	f004 ff60 	bl	8008c34 <VBS_GetAvBusVoltage_V>
 8003d74:	e71e      	b.n	8003bb4 <UI_GetReg+0x224>
 8003d76:	4630      	mov	r0, r6
 8003d78:	f7fd fd0e 	bl	8001798 <MCI_GetIalphabeta>
 8003d7c:	b200      	sxth	r0, r0
 8003d7e:	e719      	b.n	8003bb4 <UI_GetReg+0x224>
 8003d80:	4630      	mov	r0, r6
 8003d82:	f7fd fd01 	bl	8001788 <MCI_GetIab>
 8003d86:	1400      	asrs	r0, r0, #16
 8003d88:	e714      	b.n	8003bb4 <UI_GetReg+0x224>
 8003d8a:	6868      	ldr	r0, [r5, #4]
 8003d8c:	f005 fa18 	bl	80091c0 <PID_GetKD>
 8003d90:	e710      	b.n	8003bb4 <UI_GetReg+0x224>
 8003d92:	6868      	ldr	r0, [r5, #4]
 8003d94:	f005 fa08 	bl	80091a8 <PID_GetKI>
 8003d98:	e70c      	b.n	8003bb4 <UI_GetReg+0x224>
 8003d9a:	2000      	movs	r0, #0
 8003d9c:	7010      	strb	r0, [r2, #0]
 8003d9e:	e709      	b.n	8003bb4 <UI_GetReg+0x224>
 8003da0:	2b01      	cmp	r3, #1
 8003da2:	69a8      	ldr	r0, [r5, #24]
 8003da4:	f63f af54 	bhi.w	8003c50 <UI_GetReg+0x2c0>
 8003da8:	e751      	b.n	8003c4e <UI_GetReg+0x2be>
 8003daa:	2b01      	cmp	r3, #1
 8003dac:	69a8      	ldr	r0, [r5, #24]
 8003dae:	f63f af63 	bhi.w	8003c78 <UI_GetReg+0x2e8>
 8003db2:	e760      	b.n	8003c76 <UI_GetReg+0x2e6>
 8003db4:	f7fd fcd0 	bl	8001758 <MCI_GetLastRampFinalSpeed>
 8003db8:	eb00 0040 	add.w	r0, r0, r0, lsl #1
 8003dbc:	0040      	lsls	r0, r0, #1
 8003dbe:	e6f9      	b.n	8003bb4 <UI_GetReg+0x224>
 8003dc0:	34a6847a 	.word	0x34a6847a

08003dc4 <SystemInit>:
 8003dc4:	4b05      	ldr	r3, [pc, #20]	; (8003ddc <SystemInit+0x18>)
 8003dc6:	f8d3 2088 	ldr.w	r2, [r3, #136]	; 0x88
 8003dca:	f04f 6100 	mov.w	r1, #134217728	; 0x8000000
 8003dce:	f442 0270 	orr.w	r2, r2, #15728640	; 0xf00000
 8003dd2:	f8c3 2088 	str.w	r2, [r3, #136]	; 0x88
 8003dd6:	6099      	str	r1, [r3, #8]
 8003dd8:	4770      	bx	lr
 8003dda:	bf00      	nop
 8003ddc:	e000ed00 	.word	0xe000ed00

08003de0 <HAL_InitTick>:
 8003de0:	b538      	push	{r3, r4, r5, lr}
 8003de2:	4b0f      	ldr	r3, [pc, #60]	; (8003e20 <HAL_InitTick+0x40>)
 8003de4:	681b      	ldr	r3, [r3, #0]
 8003de6:	b90b      	cbnz	r3, 8003dec <HAL_InitTick+0xc>
 8003de8:	2001      	movs	r0, #1
 8003dea:	bd38      	pop	{r3, r4, r5, pc}
 8003dec:	490d      	ldr	r1, [pc, #52]	; (8003e24 <HAL_InitTick+0x44>)
 8003dee:	f44f 727a 	mov.w	r2, #1000	; 0x3e8
 8003df2:	4605      	mov	r5, r0
 8003df4:	fbb2 f3f3 	udiv	r3, r2, r3
 8003df8:	6808      	ldr	r0, [r1, #0]
 8003dfa:	fbb0 f0f3 	udiv	r0, r0, r3
 8003dfe:	f000 ffa3 	bl	8004d48 <HAL_SYSTICK_Config>
 8003e02:	4604      	mov	r4, r0
 8003e04:	2800      	cmp	r0, #0
 8003e06:	d1ef      	bne.n	8003de8 <HAL_InitTick+0x8>
 8003e08:	2d0f      	cmp	r5, #15
 8003e0a:	d8ed      	bhi.n	8003de8 <HAL_InitTick+0x8>
 8003e0c:	4602      	mov	r2, r0
 8003e0e:	4629      	mov	r1, r5
 8003e10:	f04f 30ff 	mov.w	r0, #4294967295
 8003e14:	f000 ff40 	bl	8004c98 <HAL_NVIC_SetPriority>
 8003e18:	4b03      	ldr	r3, [pc, #12]	; (8003e28 <HAL_InitTick+0x48>)
 8003e1a:	4620      	mov	r0, r4
 8003e1c:	601d      	str	r5, [r3, #0]
 8003e1e:	bd38      	pop	{r3, r4, r5, pc}
 8003e20:	200005e4 	.word	0x200005e4
 8003e24:	200005e0 	.word	0x200005e0
 8003e28:	200005e8 	.word	0x200005e8

08003e2c <HAL_Init>:
 8003e2c:	b500      	push	{lr}
 8003e2e:	2003      	movs	r0, #3
 8003e30:	b083      	sub	sp, #12
 8003e32:	f000 ff1f 	bl	8004c74 <HAL_NVIC_SetPriorityGrouping>
 8003e36:	2004      	movs	r0, #4
 8003e38:	f7ff ffd2 	bl	8003de0 <HAL_InitTick>
 8003e3c:	b118      	cbz	r0, 8003e46 <HAL_Init+0x1a>
 8003e3e:	2001      	movs	r0, #1
 8003e40:	b003      	add	sp, #12
 8003e42:	f85d fb04 	ldr.w	pc, [sp], #4
 8003e46:	9001      	str	r0, [sp, #4]
 8003e48:	f7fe fee4 	bl	8002c14 <HAL_MspInit>
 8003e4c:	9801      	ldr	r0, [sp, #4]
 8003e4e:	b003      	add	sp, #12
 8003e50:	f85d fb04 	ldr.w	pc, [sp], #4

08003e54 <HAL_IncTick>:
 8003e54:	4a03      	ldr	r2, [pc, #12]	; (8003e64 <HAL_IncTick+0x10>)
 8003e56:	4904      	ldr	r1, [pc, #16]	; (8003e68 <HAL_IncTick+0x14>)
 8003e58:	6813      	ldr	r3, [r2, #0]
 8003e5a:	6809      	ldr	r1, [r1, #0]
 8003e5c:	440b      	add	r3, r1
 8003e5e:	6013      	str	r3, [r2, #0]
 8003e60:	4770      	bx	lr
 8003e62:	bf00      	nop
 8003e64:	20000d9c 	.word	0x20000d9c
 8003e68:	200005e4 	.word	0x200005e4

08003e6c <HAL_GetTick>:
 8003e6c:	4b01      	ldr	r3, [pc, #4]	; (8003e74 <HAL_GetTick+0x8>)
 8003e6e:	6818      	ldr	r0, [r3, #0]
 8003e70:	4770      	bx	lr
 8003e72:	bf00      	nop
 8003e74:	20000d9c 	.word	0x20000d9c

08003e78 <HAL_Delay>:
 8003e78:	b538      	push	{r3, r4, r5, lr}
 8003e7a:	4604      	mov	r4, r0
 8003e7c:	f7ff fff6 	bl	8003e6c <HAL_GetTick>
 8003e80:	1c63      	adds	r3, r4, #1
 8003e82:	4605      	mov	r5, r0
 8003e84:	d002      	beq.n	8003e8c <HAL_Delay+0x14>
 8003e86:	4b04      	ldr	r3, [pc, #16]	; (8003e98 <HAL_Delay+0x20>)
 8003e88:	681b      	ldr	r3, [r3, #0]
 8003e8a:	441c      	add	r4, r3
 8003e8c:	f7ff ffee 	bl	8003e6c <HAL_GetTick>
 8003e90:	1b40      	subs	r0, r0, r5
 8003e92:	42a0      	cmp	r0, r4
 8003e94:	d3fa      	bcc.n	8003e8c <HAL_Delay+0x14>
 8003e96:	bd38      	pop	{r3, r4, r5, pc}
 8003e98:	200005e4 	.word	0x200005e4

08003e9c <HAL_ADC_Init>:
 8003e9c:	b570      	push	{r4, r5, r6, lr}
 8003e9e:	b082      	sub	sp, #8
 8003ea0:	2300      	movs	r3, #0
 8003ea2:	9301      	str	r3, [sp, #4]
 8003ea4:	2800      	cmp	r0, #0
 8003ea6:	f000 80a1 	beq.w	8003fec <HAL_ADC_Init+0x150>
 8003eaa:	6dc5      	ldr	r5, [r0, #92]	; 0x5c
 8003eac:	4604      	mov	r4, r0
 8003eae:	2d00      	cmp	r5, #0
 8003eb0:	f000 8091 	beq.w	8003fd6 <HAL_ADC_Init+0x13a>
 8003eb4:	6822      	ldr	r2, [r4, #0]
 8003eb6:	6893      	ldr	r3, [r2, #8]
 8003eb8:	009d      	lsls	r5, r3, #2
 8003eba:	d505      	bpl.n	8003ec8 <HAL_ADC_Init+0x2c>
 8003ebc:	6893      	ldr	r3, [r2, #8]
 8003ebe:	f023 4320 	bic.w	r3, r3, #2684354560	; 0xa0000000
 8003ec2:	f023 033f 	bic.w	r3, r3, #63	; 0x3f
 8003ec6:	6093      	str	r3, [r2, #8]
 8003ec8:	6893      	ldr	r3, [r2, #8]
 8003eca:	00d8      	lsls	r0, r3, #3
 8003ecc:	d417      	bmi.n	8003efe <HAL_ADC_Init+0x62>
 8003ece:	4b75      	ldr	r3, [pc, #468]	; (80040a4 <HAL_ADC_Init+0x208>)
 8003ed0:	6891      	ldr	r1, [r2, #8]
 8003ed2:	681b      	ldr	r3, [r3, #0]
 8003ed4:	4874      	ldr	r0, [pc, #464]	; (80040a8 <HAL_ADC_Init+0x20c>)
 8003ed6:	099b      	lsrs	r3, r3, #6
 8003ed8:	f021 4110 	bic.w	r1, r1, #2415919104	; 0x90000000
 8003edc:	fba0 0303 	umull	r0, r3, r0, r3
 8003ee0:	f021 013f 	bic.w	r1, r1, #63	; 0x3f
 8003ee4:	099b      	lsrs	r3, r3, #6
 8003ee6:	f041 5180 	orr.w	r1, r1, #268435456	; 0x10000000
 8003eea:	6091      	str	r1, [r2, #8]
 8003eec:	9301      	str	r3, [sp, #4]
 8003eee:	9b01      	ldr	r3, [sp, #4]
 8003ef0:	b12b      	cbz	r3, 8003efe <HAL_ADC_Init+0x62>
 8003ef2:	9b01      	ldr	r3, [sp, #4]
 8003ef4:	3b01      	subs	r3, #1
 8003ef6:	9301      	str	r3, [sp, #4]
 8003ef8:	9b01      	ldr	r3, [sp, #4]
 8003efa:	2b00      	cmp	r3, #0
 8003efc:	d1f9      	bne.n	8003ef2 <HAL_ADC_Init+0x56>
 8003efe:	6893      	ldr	r3, [r2, #8]
 8003f00:	00d9      	lsls	r1, r3, #3
 8003f02:	d45a      	bmi.n	8003fba <HAL_ADC_Init+0x11e>
 8003f04:	6de3      	ldr	r3, [r4, #92]	; 0x5c
 8003f06:	f043 0310 	orr.w	r3, r3, #16
 8003f0a:	65e3      	str	r3, [r4, #92]	; 0x5c
 8003f0c:	6e23      	ldr	r3, [r4, #96]	; 0x60
 8003f0e:	f043 0301 	orr.w	r3, r3, #1
 8003f12:	6623      	str	r3, [r4, #96]	; 0x60
 8003f14:	6893      	ldr	r3, [r2, #8]
 8003f16:	f013 0f04 	tst.w	r3, #4
 8003f1a:	f04f 0001 	mov.w	r0, #1
 8003f1e:	6de3      	ldr	r3, [r4, #92]	; 0x5c
 8003f20:	d152      	bne.n	8003fc8 <HAL_ADC_Init+0x12c>
 8003f22:	06db      	lsls	r3, r3, #27
 8003f24:	d450      	bmi.n	8003fc8 <HAL_ADC_Init+0x12c>
 8003f26:	6de3      	ldr	r3, [r4, #92]	; 0x5c
 8003f28:	f423 7381 	bic.w	r3, r3, #258	; 0x102
 8003f2c:	f043 0302 	orr.w	r3, r3, #2
 8003f30:	65e3      	str	r3, [r4, #92]	; 0x5c
 8003f32:	6893      	ldr	r3, [r2, #8]
 8003f34:	07de      	lsls	r6, r3, #31
 8003f36:	d409      	bmi.n	8003f4c <HAL_ADC_Init+0xb0>
 8003f38:	f04f 43a0 	mov.w	r3, #1342177280	; 0x50000000
 8003f3c:	495b      	ldr	r1, [pc, #364]	; (80040ac <HAL_ADC_Init+0x210>)
 8003f3e:	689b      	ldr	r3, [r3, #8]
 8003f40:	6889      	ldr	r1, [r1, #8]
 8003f42:	07cd      	lsls	r5, r1, #31
 8003f44:	f003 0301 	and.w	r3, r3, #1
 8003f48:	f140 8083 	bpl.w	8004052 <HAL_ADC_Init+0x1b6>
 8003f4c:	e9d4 1502 	ldrd	r1, r5, [r4, #8]
 8003f50:	6be3      	ldr	r3, [r4, #60]	; 0x3c
 8003f52:	432b      	orrs	r3, r5
 8003f54:	430b      	orrs	r3, r1
 8003f56:	7f65      	ldrb	r5, [r4, #29]
 8003f58:	f894 1024 	ldrb.w	r1, [r4, #36]	; 0x24
 8003f5c:	ea43 3345 	orr.w	r3, r3, r5, lsl #13
 8003f60:	2901      	cmp	r1, #1
 8003f62:	ea43 4301 	orr.w	r3, r3, r1, lsl #16
 8003f66:	d103      	bne.n	8003f70 <HAL_ADC_Init+0xd4>
 8003f68:	6aa1      	ldr	r1, [r4, #40]	; 0x28
 8003f6a:	3901      	subs	r1, #1
 8003f6c:	ea43 4341 	orr.w	r3, r3, r1, lsl #17
 8003f70:	6ae1      	ldr	r1, [r4, #44]	; 0x2c
 8003f72:	b121      	cbz	r1, 8003f7e <HAL_ADC_Init+0xe2>
 8003f74:	6b25      	ldr	r5, [r4, #48]	; 0x30
 8003f76:	f401 7178 	and.w	r1, r1, #992	; 0x3e0
 8003f7a:	4329      	orrs	r1, r5
 8003f7c:	430b      	orrs	r3, r1
 8003f7e:	68d6      	ldr	r6, [r2, #12]
 8003f80:	494b      	ldr	r1, [pc, #300]	; (80040b0 <HAL_ADC_Init+0x214>)
 8003f82:	6b65      	ldr	r5, [r4, #52]	; 0x34
 8003f84:	4031      	ands	r1, r6
 8003f86:	430b      	orrs	r3, r1
 8003f88:	60d3      	str	r3, [r2, #12]
 8003f8a:	6913      	ldr	r3, [r2, #16]
 8003f8c:	f023 6340 	bic.w	r3, r3, #201326592	; 0xc000000
 8003f90:	432b      	orrs	r3, r5
 8003f92:	6113      	str	r3, [r2, #16]
 8003f94:	6893      	ldr	r3, [r2, #8]
 8003f96:	0759      	lsls	r1, r3, #29
 8003f98:	d52b      	bpl.n	8003ff2 <HAL_ADC_Init+0x156>
 8003f9a:	6893      	ldr	r3, [r2, #8]
 8003f9c:	6963      	ldr	r3, [r4, #20]
 8003f9e:	2b01      	cmp	r3, #1
 8003fa0:	d04f      	beq.n	8004042 <HAL_ADC_Init+0x1a6>
 8003fa2:	6b13      	ldr	r3, [r2, #48]	; 0x30
 8003fa4:	f023 030f 	bic.w	r3, r3, #15
 8003fa8:	6313      	str	r3, [r2, #48]	; 0x30
 8003faa:	6de3      	ldr	r3, [r4, #92]	; 0x5c
 8003fac:	f023 0303 	bic.w	r3, r3, #3
 8003fb0:	f043 0301 	orr.w	r3, r3, #1
 8003fb4:	65e3      	str	r3, [r4, #92]	; 0x5c
 8003fb6:	b002      	add	sp, #8
 8003fb8:	bd70      	pop	{r4, r5, r6, pc}
 8003fba:	6893      	ldr	r3, [r2, #8]
 8003fbc:	f013 0f04 	tst.w	r3, #4
 8003fc0:	f04f 0000 	mov.w	r0, #0
 8003fc4:	6de3      	ldr	r3, [r4, #92]	; 0x5c
 8003fc6:	d0ac      	beq.n	8003f22 <HAL_ADC_Init+0x86>
 8003fc8:	6de3      	ldr	r3, [r4, #92]	; 0x5c
 8003fca:	2001      	movs	r0, #1
 8003fcc:	f043 0310 	orr.w	r3, r3, #16
 8003fd0:	65e3      	str	r3, [r4, #92]	; 0x5c
 8003fd2:	b002      	add	sp, #8
 8003fd4:	bd70      	pop	{r4, r5, r6, pc}
 8003fd6:	f7fe fe41 	bl	8002c5c <HAL_ADC_MspInit>
 8003fda:	6822      	ldr	r2, [r4, #0]
 8003fdc:	6625      	str	r5, [r4, #96]	; 0x60
 8003fde:	6893      	ldr	r3, [r2, #8]
 8003fe0:	f884 5058 	strb.w	r5, [r4, #88]	; 0x58
 8003fe4:	009d      	lsls	r5, r3, #2
 8003fe6:	f57f af6f 	bpl.w	8003ec8 <HAL_ADC_Init+0x2c>
 8003fea:	e767      	b.n	8003ebc <HAL_ADC_Init+0x20>
 8003fec:	2001      	movs	r0, #1
 8003fee:	b002      	add	sp, #8
 8003ff0:	bd70      	pop	{r4, r5, r6, pc}
 8003ff2:	6893      	ldr	r3, [r2, #8]
 8003ff4:	071b      	lsls	r3, r3, #28
 8003ff6:	d4d1      	bmi.n	8003f9c <HAL_ADC_Init+0x100>
 8003ff8:	68d1      	ldr	r1, [r2, #12]
 8003ffa:	f894 3038 	ldrb.w	r3, [r4, #56]	; 0x38
 8003ffe:	7f26      	ldrb	r6, [r4, #28]
 8004000:	6925      	ldr	r5, [r4, #16]
 8004002:	f421 4180 	bic.w	r1, r1, #16384	; 0x4000
 8004006:	005b      	lsls	r3, r3, #1
 8004008:	f021 0102 	bic.w	r1, r1, #2
 800400c:	ea43 3386 	orr.w	r3, r3, r6, lsl #14
 8004010:	430b      	orrs	r3, r1
 8004012:	60d3      	str	r3, [r2, #12]
 8004014:	6913      	ldr	r3, [r2, #16]
 8004016:	b33d      	cbz	r5, 8004068 <HAL_ADC_Init+0x1cc>
 8004018:	f443 3380 	orr.w	r3, r3, #65536	; 0x10000
 800401c:	6113      	str	r3, [r2, #16]
 800401e:	f8d2 30c0 	ldr.w	r3, [r2, #192]	; 0xc0
 8004022:	f423 537f 	bic.w	r3, r3, #16320	; 0x3fc0
 8004026:	f023 033f 	bic.w	r3, r3, #63	; 0x3f
 800402a:	432b      	orrs	r3, r5
 800402c:	f8c2 30c0 	str.w	r3, [r2, #192]	; 0xc0
 8004030:	f894 3040 	ldrb.w	r3, [r4, #64]	; 0x40
 8004034:	2b01      	cmp	r3, #1
 8004036:	d023      	beq.n	8004080 <HAL_ADC_Init+0x1e4>
 8004038:	6913      	ldr	r3, [r2, #16]
 800403a:	f023 0301 	bic.w	r3, r3, #1
 800403e:	6113      	str	r3, [r2, #16]
 8004040:	e7ac      	b.n	8003f9c <HAL_ADC_Init+0x100>
 8004042:	6b11      	ldr	r1, [r2, #48]	; 0x30
 8004044:	6a23      	ldr	r3, [r4, #32]
 8004046:	f021 010f 	bic.w	r1, r1, #15
 800404a:	3b01      	subs	r3, #1
 800404c:	430b      	orrs	r3, r1
 800404e:	6313      	str	r3, [r2, #48]	; 0x30
 8004050:	e7ab      	b.n	8003faa <HAL_ADC_Init+0x10e>
 8004052:	2b00      	cmp	r3, #0
 8004054:	f47f af7a 	bne.w	8003f4c <HAL_ADC_Init+0xb0>
 8004058:	4916      	ldr	r1, [pc, #88]	; (80040b4 <HAL_ADC_Init+0x218>)
 800405a:	6865      	ldr	r5, [r4, #4]
 800405c:	688b      	ldr	r3, [r1, #8]
 800405e:	f423 137c 	bic.w	r3, r3, #4128768	; 0x3f0000
 8004062:	432b      	orrs	r3, r5
 8004064:	608b      	str	r3, [r1, #8]
 8004066:	e771      	b.n	8003f4c <HAL_ADC_Init+0xb0>
 8004068:	f423 3380 	bic.w	r3, r3, #65536	; 0x10000
 800406c:	6113      	str	r3, [r2, #16]
 800406e:	f8d2 30c0 	ldr.w	r3, [r2, #192]	; 0xc0
 8004072:	f423 537f 	bic.w	r3, r3, #16320	; 0x3fc0
 8004076:	f023 033f 	bic.w	r3, r3, #63	; 0x3f
 800407a:	f8c2 30c0 	str.w	r3, [r2, #192]	; 0xc0
 800407e:	e7d7      	b.n	8004030 <HAL_ADC_Init+0x194>
 8004080:	e9d4 3111 	ldrd	r3, r1, [r4, #68]	; 0x44
 8004084:	6ce6      	ldr	r6, [r4, #76]	; 0x4c
 8004086:	6d25      	ldr	r5, [r4, #80]	; 0x50
 8004088:	430b      	orrs	r3, r1
 800408a:	6911      	ldr	r1, [r2, #16]
 800408c:	f043 0301 	orr.w	r3, r3, #1
 8004090:	4333      	orrs	r3, r6
 8004092:	f421 61ff 	bic.w	r1, r1, #2040	; 0x7f8
 8004096:	432b      	orrs	r3, r5
 8004098:	f021 0104 	bic.w	r1, r1, #4
 800409c:	430b      	orrs	r3, r1
 800409e:	6113      	str	r3, [r2, #16]
 80040a0:	e77c      	b.n	8003f9c <HAL_ADC_Init+0x100>
 80040a2:	bf00      	nop
 80040a4:	200005e0 	.word	0x200005e0
 80040a8:	053e2d63 	.word	0x053e2d63
 80040ac:	50000100 	.word	0x50000100
 80040b0:	fff04007 	.word	0xfff04007
 80040b4:	50000300 	.word	0x50000300

080040b8 <HAL_ADC_ConfigChannel>:
 80040b8:	e92d 41f0 	stmdb	sp!, {r4, r5, r6, r7, r8, lr}
 80040bc:	4603      	mov	r3, r0
 80040be:	b082      	sub	sp, #8
 80040c0:	f893 2058 	ldrb.w	r2, [r3, #88]	; 0x58
 80040c4:	2000      	movs	r0, #0
 80040c6:	2a01      	cmp	r2, #1
 80040c8:	9001      	str	r0, [sp, #4]
 80040ca:	f000 8103 	beq.w	80042d4 <HAL_ADC_ConfigChannel+0x21c>
 80040ce:	681c      	ldr	r4, [r3, #0]
 80040d0:	68a2      	ldr	r2, [r4, #8]
 80040d2:	2001      	movs	r0, #1
 80040d4:	0756      	lsls	r6, r2, #29
 80040d6:	f883 0058 	strb.w	r0, [r3, #88]	; 0x58
 80040da:	d44f      	bmi.n	800417c <HAL_ADC_ConfigChannel+0xc4>
 80040dc:	e9d1 2000 	ldrd	r2, r0, [r1]
 80040e0:	0986      	lsrs	r6, r0, #6
 80040e2:	f104 0530 	add.w	r5, r4, #48	; 0x30
 80040e6:	f006 060c 	and.w	r6, r6, #12
 80040ea:	f000 001f 	and.w	r0, r0, #31
 80040ee:	5977      	ldr	r7, [r6, r5]
 80040f0:	f04f 0c1f 	mov.w	ip, #31
 80040f4:	fa0c fc00 	lsl.w	ip, ip, r0
 80040f8:	f3c2 6284 	ubfx	r2, r2, #26, #5
 80040fc:	ea27 070c 	bic.w	r7, r7, ip
 8004100:	4082      	lsls	r2, r0
 8004102:	433a      	orrs	r2, r7
 8004104:	5172      	str	r2, [r6, r5]
 8004106:	68a2      	ldr	r2, [r4, #8]
 8004108:	0755      	lsls	r5, r2, #29
 800410a:	d549      	bpl.n	80041a0 <HAL_ADC_ConfigChannel+0xe8>
 800410c:	68a2      	ldr	r2, [r4, #8]
 800410e:	680a      	ldr	r2, [r1, #0]
 8004110:	68a0      	ldr	r0, [r4, #8]
 8004112:	07c0      	lsls	r0, r0, #31
 8004114:	d413      	bmi.n	800413e <HAL_ADC_ConfigChannel+0x86>
 8004116:	68ce      	ldr	r6, [r1, #12]
 8004118:	48c1      	ldr	r0, [pc, #772]	; (8004420 <HAL_ADC_ConfigChannel+0x368>)
 800411a:	f8d4 50b0 	ldr.w	r5, [r4, #176]	; 0xb0
 800411e:	f8df c328 	ldr.w	ip, [pc, #808]	; 8004448 <HAL_ADC_ConfigChannel+0x390>
 8004122:	f006 0718 	and.w	r7, r6, #24
 8004126:	40f8      	lsrs	r0, r7
 8004128:	f3c2 0712 	ubfx	r7, r2, #0, #19
 800412c:	4010      	ands	r0, r2
 800412e:	ea25 0507 	bic.w	r5, r5, r7
 8004132:	4328      	orrs	r0, r5
 8004134:	4566      	cmp	r6, ip
 8004136:	f8c4 00b0 	str.w	r0, [r4, #176]	; 0xb0
 800413a:	f000 808b 	beq.w	8004254 <HAL_ADC_ConfigChannel+0x19c>
 800413e:	49b9      	ldr	r1, [pc, #740]	; (8004424 <HAL_ADC_ConfigChannel+0x36c>)
 8004140:	420a      	tst	r2, r1
 8004142:	d02b      	beq.n	800419c <HAL_ADC_ConfigChannel+0xe4>
 8004144:	4db8      	ldr	r5, [pc, #736]	; (8004428 <HAL_ADC_ConfigChannel+0x370>)
 8004146:	49b9      	ldr	r1, [pc, #740]	; (800442c <HAL_ADC_ConfigChannel+0x374>)
 8004148:	68a8      	ldr	r0, [r5, #8]
 800414a:	428a      	cmp	r2, r1
 800414c:	f000 76e0 	and.w	r6, r0, #29360128	; 0x1c00000
 8004150:	d01e      	beq.n	8004190 <HAL_ADC_ConfigChannel+0xd8>
 8004152:	49b7      	ldr	r1, [pc, #732]	; (8004430 <HAL_ADC_ConfigChannel+0x378>)
 8004154:	428a      	cmp	r2, r1
 8004156:	d01b      	beq.n	8004190 <HAL_ADC_ConfigChannel+0xd8>
 8004158:	49b6      	ldr	r1, [pc, #728]	; (8004434 <HAL_ADC_ConfigChannel+0x37c>)
 800415a:	428a      	cmp	r2, r1
 800415c:	f040 80be 	bne.w	80042dc <HAL_ADC_ConfigChannel+0x224>
 8004160:	f010 7080 	ands.w	r0, r0, #16777216	; 0x1000000
 8004164:	d11a      	bne.n	800419c <HAL_ADC_ConfigChannel+0xe4>
 8004166:	4ab4      	ldr	r2, [pc, #720]	; (8004438 <HAL_ADC_ConfigChannel+0x380>)
 8004168:	4294      	cmp	r4, r2
 800416a:	d017      	beq.n	800419c <HAL_ADC_ConfigChannel+0xe4>
 800416c:	68aa      	ldr	r2, [r5, #8]
 800416e:	f022 72e0 	bic.w	r2, r2, #29360128	; 0x1c00000
 8004172:	4316      	orrs	r6, r2
 8004174:	f046 7680 	orr.w	r6, r6, #16777216	; 0x1000000
 8004178:	60ae      	str	r6, [r5, #8]
 800417a:	e003      	b.n	8004184 <HAL_ADC_ConfigChannel+0xcc>
 800417c:	6dda      	ldr	r2, [r3, #92]	; 0x5c
 800417e:	f042 0220 	orr.w	r2, r2, #32
 8004182:	65da      	str	r2, [r3, #92]	; 0x5c
 8004184:	2200      	movs	r2, #0
 8004186:	f883 2058 	strb.w	r2, [r3, #88]	; 0x58
 800418a:	b002      	add	sp, #8
 800418c:	e8bd 81f0 	ldmia.w	sp!, {r4, r5, r6, r7, r8, pc}
 8004190:	0202      	lsls	r2, r0, #8
 8004192:	d403      	bmi.n	800419c <HAL_ADC_ConfigChannel+0xe4>
 8004194:	f1b4 4fa0 	cmp.w	r4, #1342177280	; 0x50000000
 8004198:	f000 80cb 	beq.w	8004332 <HAL_ADC_ConfigChannel+0x27a>
 800419c:	2000      	movs	r0, #0
 800419e:	e7f1      	b.n	8004184 <HAL_ADC_ConfigChannel+0xcc>
 80041a0:	68a5      	ldr	r5, [r4, #8]
 80041a2:	680a      	ldr	r2, [r1, #0]
 80041a4:	f015 0508 	ands.w	r5, r5, #8
 80041a8:	d1b2      	bne.n	8004110 <HAL_ADC_ConfigChannel+0x58>
 80041aa:	688e      	ldr	r6, [r1, #8]
 80041ac:	f3c2 5e04 	ubfx	lr, r2, #20, #5
 80041b0:	2007      	movs	r0, #7
 80041b2:	0dd2      	lsrs	r2, r2, #23
 80041b4:	fa00 f00e 	lsl.w	r0, r0, lr
 80041b8:	f1b6 4f00 	cmp.w	r6, #2147483648	; 0x80000000
 80041bc:	f002 0204 	and.w	r2, r2, #4
 80041c0:	ea6f 0000 	mvn.w	r0, r0
 80041c4:	f104 0c14 	add.w	ip, r4, #20
 80041c8:	f000 811a 	beq.w	8004400 <HAL_ADC_ConfigChannel+0x348>
 80041cc:	f852 700c 	ldr.w	r7, [r2, ip]
 80041d0:	fa06 f60e 	lsl.w	r6, r6, lr
 80041d4:	4038      	ands	r0, r7
 80041d6:	4306      	orrs	r6, r0
 80041d8:	f842 600c 	str.w	r6, [r2, ip]
 80041dc:	6962      	ldr	r2, [r4, #20]
 80041de:	f022 4200 	bic.w	r2, r2, #2147483648	; 0x80000000
 80041e2:	6162      	str	r2, [r4, #20]
 80041e4:	f8d1 c010 	ldr.w	ip, [r1, #16]
 80041e8:	68e7      	ldr	r7, [r4, #12]
 80041ea:	680a      	ldr	r2, [r1, #0]
 80041ec:	f1bc 0f04 	cmp.w	ip, #4
 80041f0:	f104 0060 	add.w	r0, r4, #96	; 0x60
 80041f4:	f000 80bb 	beq.w	800436e <HAL_ADC_ConfigChannel+0x2b6>
 80041f8:	694e      	ldr	r6, [r1, #20]
 80041fa:	f850 802c 	ldr.w	r8, [r0, ip, lsl #2]
 80041fe:	f8df e24c 	ldr.w	lr, [pc, #588]	; 800444c <HAL_ADC_ConfigChannel+0x394>
 8004202:	f3c7 07c1 	ubfx	r7, r7, #3, #2
 8004206:	007f      	lsls	r7, r7, #1
 8004208:	f002 42f8 	and.w	r2, r2, #2080374784	; 0x7c000000
 800420c:	f042 4200 	orr.w	r2, r2, #2147483648	; 0x80000000
 8004210:	40be      	lsls	r6, r7
 8004212:	4316      	orrs	r6, r2
 8004214:	ea08 0e0e 	and.w	lr, r8, lr
 8004218:	ea46 060e 	orr.w	r6, r6, lr
 800421c:	f840 602c 	str.w	r6, [r0, ip, lsl #2]
 8004220:	690f      	ldr	r7, [r1, #16]
 8004222:	698e      	ldr	r6, [r1, #24]
 8004224:	f850 2027 	ldr.w	r2, [r0, r7, lsl #2]
 8004228:	f891 c01c 	ldrb.w	ip, [r1, #28]
 800422c:	f022 7280 	bic.w	r2, r2, #16777216	; 0x1000000
 8004230:	4332      	orrs	r2, r6
 8004232:	f840 2027 	str.w	r2, [r0, r7, lsl #2]
 8004236:	690e      	ldr	r6, [r1, #16]
 8004238:	f850 2026 	ldr.w	r2, [r0, r6, lsl #2]
 800423c:	f1bc 0f01 	cmp.w	ip, #1
 8004240:	f022 7200 	bic.w	r2, r2, #33554432	; 0x2000000
 8004244:	bf08      	it	eq
 8004246:	f04f 7500 	moveq.w	r5, #33554432	; 0x2000000
 800424a:	4315      	orrs	r5, r2
 800424c:	f840 5026 	str.w	r5, [r0, r6, lsl #2]
 8004250:	680a      	ldr	r2, [r1, #0]
 8004252:	e75d      	b.n	8004110 <HAL_ADC_ConfigChannel+0x58>
 8004254:	2f00      	cmp	r7, #0
 8004256:	d055      	beq.n	8004304 <HAL_ADC_ConfigChannel+0x24c>
 8004258:	fa92 f0a2 	rbit	r0, r2
 800425c:	fab0 f080 	clz	r0, r0
 8004260:	3001      	adds	r0, #1
 8004262:	f000 001f 	and.w	r0, r0, #31
 8004266:	2809      	cmp	r0, #9
 8004268:	f200 80f2 	bhi.w	8004450 <HAL_ADC_ConfigChannel+0x398>
 800426c:	fa92 f6a2 	rbit	r6, r2
 8004270:	fab6 f686 	clz	r6, r6
 8004274:	fa92 f0a2 	rbit	r0, r2
 8004278:	fab0 f080 	clz	r0, r0
 800427c:	3001      	adds	r0, #1
 800427e:	3601      	adds	r6, #1
 8004280:	2501      	movs	r5, #1
 8004282:	f000 001f 	and.w	r0, r0, #31
 8004286:	06b6      	lsls	r6, r6, #26
 8004288:	fa05 f000 	lsl.w	r0, r5, r0
 800428c:	f006 46f8 	and.w	r6, r6, #2080374784	; 0x7c000000
 8004290:	4306      	orrs	r6, r0
 8004292:	fa92 f5a2 	rbit	r5, r2
 8004296:	fab5 f585 	clz	r5, r5
 800429a:	3501      	adds	r5, #1
 800429c:	f005 051f 	and.w	r5, r5, #31
 80042a0:	eb05 0045 	add.w	r0, r5, r5, lsl #1
 80042a4:	0500      	lsls	r0, r0, #20
 80042a6:	4330      	orrs	r0, r6
 80042a8:	ea4f 5cd0 	mov.w	ip, r0, lsr #23
 80042ac:	f00c 0c04 	and.w	ip, ip, #4
 80042b0:	f104 0714 	add.w	r7, r4, #20
 80042b4:	f3c0 5004 	ubfx	r0, r0, #20, #5
 80042b8:	f85c 5007 	ldr.w	r5, [ip, r7]
 80042bc:	688e      	ldr	r6, [r1, #8]
 80042be:	2207      	movs	r2, #7
 80042c0:	4082      	lsls	r2, r0
 80042c2:	ea25 0502 	bic.w	r5, r5, r2
 80042c6:	fa06 f000 	lsl.w	r0, r6, r0
 80042ca:	4328      	orrs	r0, r5
 80042cc:	f84c 0007 	str.w	r0, [ip, r7]
 80042d0:	680a      	ldr	r2, [r1, #0]
 80042d2:	e734      	b.n	800413e <HAL_ADC_ConfigChannel+0x86>
 80042d4:	2002      	movs	r0, #2
 80042d6:	b002      	add	sp, #8
 80042d8:	e8bd 81f0 	ldmia.w	sp!, {r4, r5, r6, r7, r8, pc}
 80042dc:	4957      	ldr	r1, [pc, #348]	; (800443c <HAL_ADC_ConfigChannel+0x384>)
 80042de:	428a      	cmp	r2, r1
 80042e0:	f47f af5c 	bne.w	800419c <HAL_ADC_ConfigChannel+0xe4>
 80042e4:	f410 0080 	ands.w	r0, r0, #4194304	; 0x400000
 80042e8:	f47f af58 	bne.w	800419c <HAL_ADC_ConfigChannel+0xe4>
 80042ec:	4a52      	ldr	r2, [pc, #328]	; (8004438 <HAL_ADC_ConfigChannel+0x380>)
 80042ee:	4294      	cmp	r4, r2
 80042f0:	f43f af54 	beq.w	800419c <HAL_ADC_ConfigChannel+0xe4>
 80042f4:	68aa      	ldr	r2, [r5, #8]
 80042f6:	f022 72e0 	bic.w	r2, r2, #29360128	; 0x1c00000
 80042fa:	4332      	orrs	r2, r6
 80042fc:	f442 0280 	orr.w	r2, r2, #4194304	; 0x400000
 8004300:	60aa      	str	r2, [r5, #8]
 8004302:	e73f      	b.n	8004184 <HAL_ADC_ConfigChannel+0xcc>
 8004304:	0e92      	lsrs	r2, r2, #26
 8004306:	3201      	adds	r2, #1
 8004308:	f002 051f 	and.w	r5, r2, #31
 800430c:	2601      	movs	r6, #1
 800430e:	0692      	lsls	r2, r2, #26
 8004310:	f002 42f8 	and.w	r2, r2, #2080374784	; 0x7c000000
 8004314:	40ae      	lsls	r6, r5
 8004316:	2d09      	cmp	r5, #9
 8004318:	ea46 0602 	orr.w	r6, r6, r2
 800431c:	eb05 0045 	add.w	r0, r5, r5, lsl #1
 8004320:	d9c0      	bls.n	80042a4 <HAL_ADC_ConfigChannel+0x1ec>
 8004322:	f1a0 021e 	sub.w	r2, r0, #30
 8004326:	0512      	lsls	r2, r2, #20
 8004328:	f042 7200 	orr.w	r2, r2, #33554432	; 0x2000000
 800432c:	ea42 0006 	orr.w	r0, r2, r6
 8004330:	e7ba      	b.n	80042a8 <HAL_ADC_ConfigChannel+0x1f0>
 8004332:	483d      	ldr	r0, [pc, #244]	; (8004428 <HAL_ADC_ConfigChannel+0x370>)
 8004334:	4a42      	ldr	r2, [pc, #264]	; (8004440 <HAL_ADC_ConfigChannel+0x388>)
 8004336:	6881      	ldr	r1, [r0, #8]
 8004338:	4c42      	ldr	r4, [pc, #264]	; (8004444 <HAL_ADC_ConfigChannel+0x38c>)
 800433a:	f021 71e0 	bic.w	r1, r1, #29360128	; 0x1c00000
 800433e:	430e      	orrs	r6, r1
 8004340:	f446 0600 	orr.w	r6, r6, #8388608	; 0x800000
 8004344:	6086      	str	r6, [r0, #8]
 8004346:	6812      	ldr	r2, [r2, #0]
 8004348:	0992      	lsrs	r2, r2, #6
 800434a:	fba4 1202 	umull	r1, r2, r4, r2
 800434e:	0992      	lsrs	r2, r2, #6
 8004350:	eb02 0242 	add.w	r2, r2, r2, lsl #1
 8004354:	0092      	lsls	r2, r2, #2
 8004356:	9201      	str	r2, [sp, #4]
 8004358:	9a01      	ldr	r2, [sp, #4]
 800435a:	2a00      	cmp	r2, #0
 800435c:	f43f af1e 	beq.w	800419c <HAL_ADC_ConfigChannel+0xe4>
 8004360:	9a01      	ldr	r2, [sp, #4]
 8004362:	3a01      	subs	r2, #1
 8004364:	9201      	str	r2, [sp, #4]
 8004366:	9a01      	ldr	r2, [sp, #4]
 8004368:	2a00      	cmp	r2, #0
 800436a:	d1f9      	bne.n	8004360 <HAL_ADC_ConfigChannel+0x2a8>
 800436c:	e716      	b.n	800419c <HAL_ADC_ConfigChannel+0xe4>
 800436e:	6e25      	ldr	r5, [r4, #96]	; 0x60
 8004370:	6e25      	ldr	r5, [r4, #96]	; 0x60
 8004372:	f3c2 0712 	ubfx	r7, r2, #0, #19
 8004376:	f3c5 6584 	ubfx	r5, r5, #26, #5
 800437a:	2f00      	cmp	r7, #0
 800437c:	d14a      	bne.n	8004414 <HAL_ADC_ConfigChannel+0x35c>
 800437e:	f3c2 6684 	ubfx	r6, r2, #26, #5
 8004382:	42b5      	cmp	r5, r6
 8004384:	d106      	bne.n	8004394 <HAL_ADC_ConfigChannel+0x2dc>
 8004386:	6e22      	ldr	r2, [r4, #96]	; 0x60
 8004388:	f022 4200 	bic.w	r2, r2, #2147483648	; 0x80000000
 800438c:	6622      	str	r2, [r4, #96]	; 0x60
 800438e:	680a      	ldr	r2, [r1, #0]
 8004390:	f3c2 0712 	ubfx	r7, r2, #0, #19
 8004394:	6845      	ldr	r5, [r0, #4]
 8004396:	6846      	ldr	r6, [r0, #4]
 8004398:	f3c6 6684 	ubfx	r6, r6, #26, #5
 800439c:	2f00      	cmp	r7, #0
 800439e:	d179      	bne.n	8004494 <HAL_ADC_ConfigChannel+0x3dc>
 80043a0:	f3c2 6584 	ubfx	r5, r2, #26, #5
 80043a4:	42ae      	cmp	r6, r5
 80043a6:	f040 8095 	bne.w	80044d4 <HAL_ADC_ConfigChannel+0x41c>
 80043aa:	6842      	ldr	r2, [r0, #4]
 80043ac:	f022 4200 	bic.w	r2, r2, #2147483648	; 0x80000000
 80043b0:	6042      	str	r2, [r0, #4]
 80043b2:	680a      	ldr	r2, [r1, #0]
 80043b4:	6885      	ldr	r5, [r0, #8]
 80043b6:	6886      	ldr	r6, [r0, #8]
 80043b8:	f3c2 0512 	ubfx	r5, r2, #0, #19
 80043bc:	f3c6 6684 	ubfx	r6, r6, #26, #5
 80043c0:	2d00      	cmp	r5, #0
 80043c2:	d171      	bne.n	80044a8 <HAL_ADC_ConfigChannel+0x3f0>
 80043c4:	f3c2 6584 	ubfx	r5, r2, #26, #5
 80043c8:	42ae      	cmp	r6, r5
 80043ca:	f100 070c 	add.w	r7, r0, #12
 80043ce:	d17c      	bne.n	80044ca <HAL_ADC_ConfigChannel+0x412>
 80043d0:	6882      	ldr	r2, [r0, #8]
 80043d2:	f022 4200 	bic.w	r2, r2, #2147483648	; 0x80000000
 80043d6:	6082      	str	r2, [r0, #8]
 80043d8:	680a      	ldr	r2, [r1, #0]
 80043da:	6838      	ldr	r0, [r7, #0]
 80043dc:	6838      	ldr	r0, [r7, #0]
 80043de:	f3c2 0512 	ubfx	r5, r2, #0, #19
 80043e2:	f3c0 6084 	ubfx	r0, r0, #26, #5
 80043e6:	2d00      	cmp	r5, #0
 80043e8:	d16a      	bne.n	80044c0 <HAL_ADC_ConfigChannel+0x408>
 80043ea:	f3c2 6584 	ubfx	r5, r2, #26, #5
 80043ee:	4285      	cmp	r5, r0
 80043f0:	f47f ae8e 	bne.w	8004110 <HAL_ADC_ConfigChannel+0x58>
 80043f4:	683a      	ldr	r2, [r7, #0]
 80043f6:	f022 4200 	bic.w	r2, r2, #2147483648	; 0x80000000
 80043fa:	603a      	str	r2, [r7, #0]
 80043fc:	680a      	ldr	r2, [r1, #0]
 80043fe:	e687      	b.n	8004110 <HAL_ADC_ConfigChannel+0x58>
 8004400:	f852 600c 	ldr.w	r6, [r2, ip]
 8004404:	4030      	ands	r0, r6
 8004406:	f842 000c 	str.w	r0, [r2, ip]
 800440a:	6962      	ldr	r2, [r4, #20]
 800440c:	f042 4200 	orr.w	r2, r2, #2147483648	; 0x80000000
 8004410:	6162      	str	r2, [r4, #20]
 8004412:	e6e7      	b.n	80041e4 <HAL_ADC_ConfigChannel+0x12c>
 8004414:	fa92 f6a2 	rbit	r6, r2
 8004418:	fab6 f686 	clz	r6, r6
 800441c:	e7b1      	b.n	8004382 <HAL_ADC_ConfigChannel+0x2ca>
 800441e:	bf00      	nop
 8004420:	0007ffff 	.word	0x0007ffff
 8004424:	80080000 	.word	0x80080000
 8004428:	50000300 	.word	0x50000300
 800442c:	c3210000 	.word	0xc3210000
 8004430:	90c00010 	.word	0x90c00010
 8004434:	c7520000 	.word	0xc7520000
 8004438:	50000100 	.word	0x50000100
 800443c:	cb840000 	.word	0xcb840000
 8004440:	200005e0 	.word	0x200005e0
 8004444:	053e2d63 	.word	0x053e2d63
 8004448:	407f0000 	.word	0x407f0000
 800444c:	03fff000 	.word	0x03fff000
 8004450:	fa92 f6a2 	rbit	r6, r2
 8004454:	fab6 f686 	clz	r6, r6
 8004458:	fa92 f0a2 	rbit	r0, r2
 800445c:	fab0 f080 	clz	r0, r0
 8004460:	3001      	adds	r0, #1
 8004462:	3601      	adds	r6, #1
 8004464:	2501      	movs	r5, #1
 8004466:	f000 001f 	and.w	r0, r0, #31
 800446a:	06b6      	lsls	r6, r6, #26
 800446c:	fa05 f000 	lsl.w	r0, r5, r0
 8004470:	f006 46f8 	and.w	r6, r6, #2080374784	; 0x7c000000
 8004474:	4306      	orrs	r6, r0
 8004476:	fa92 f5a2 	rbit	r5, r2
 800447a:	fab5 f585 	clz	r5, r5
 800447e:	3501      	adds	r5, #1
 8004480:	f005 051f 	and.w	r5, r5, #31
 8004484:	eb05 0545 	add.w	r5, r5, r5, lsl #1
 8004488:	f1a5 021e 	sub.w	r2, r5, #30
 800448c:	0512      	lsls	r2, r2, #20
 800448e:	f042 7200 	orr.w	r2, r2, #33554432	; 0x2000000
 8004492:	e74b      	b.n	800432c <HAL_ADC_ConfigChannel+0x274>
 8004494:	fa92 f5a2 	rbit	r5, r2
 8004498:	fab5 f585 	clz	r5, r5
 800449c:	42ae      	cmp	r6, r5
 800449e:	d084      	beq.n	80043aa <HAL_ADC_ConfigChannel+0x2f2>
 80044a0:	6885      	ldr	r5, [r0, #8]
 80044a2:	6886      	ldr	r6, [r0, #8]
 80044a4:	f3c6 6684 	ubfx	r6, r6, #26, #5
 80044a8:	fa92 f5a2 	rbit	r5, r2
 80044ac:	fab5 f585 	clz	r5, r5
 80044b0:	42b5      	cmp	r5, r6
 80044b2:	f100 070c 	add.w	r7, r0, #12
 80044b6:	d08b      	beq.n	80043d0 <HAL_ADC_ConfigChannel+0x318>
 80044b8:	68c5      	ldr	r5, [r0, #12]
 80044ba:	68c0      	ldr	r0, [r0, #12]
 80044bc:	f3c0 6084 	ubfx	r0, r0, #26, #5
 80044c0:	fa92 f5a2 	rbit	r5, r2
 80044c4:	fab5 f585 	clz	r5, r5
 80044c8:	e791      	b.n	80043ee <HAL_ADC_ConfigChannel+0x336>
 80044ca:	68c6      	ldr	r6, [r0, #12]
 80044cc:	68c0      	ldr	r0, [r0, #12]
 80044ce:	f3c0 6084 	ubfx	r0, r0, #26, #5
 80044d2:	e78c      	b.n	80043ee <HAL_ADC_ConfigChannel+0x336>
 80044d4:	6886      	ldr	r6, [r0, #8]
 80044d6:	6886      	ldr	r6, [r0, #8]
 80044d8:	f3c6 6684 	ubfx	r6, r6, #26, #5
 80044dc:	e774      	b.n	80043c8 <HAL_ADC_ConfigChannel+0x310>
 80044de:	bf00      	nop

080044e0 <HAL_ADCEx_InjectedConfigChannel>:
 80044e0:	e92d 43f0 	stmdb	sp!, {r4, r5, r6, r7, r8, r9, lr}
 80044e4:	f890 3058 	ldrb.w	r3, [r0, #88]	; 0x58
 80044e8:	b083      	sub	sp, #12
 80044ea:	2200      	movs	r2, #0
 80044ec:	2b01      	cmp	r3, #1
 80044ee:	9201      	str	r2, [sp, #4]
 80044f0:	f000 815f 	beq.w	80047b2 <HAL_ADCEx_InjectedConfigChannel+0x2d2>
 80044f4:	6943      	ldr	r3, [r0, #20]
 80044f6:	2201      	movs	r2, #1
 80044f8:	4604      	mov	r4, r0
 80044fa:	f880 2058 	strb.w	r2, [r0, #88]	; 0x58
 80044fe:	2b00      	cmp	r3, #0
 8004500:	d072      	beq.n	80045e8 <HAL_ADCEx_InjectedConfigChannel+0x108>
 8004502:	6a0b      	ldr	r3, [r1, #32]
 8004504:	4293      	cmp	r3, r2
 8004506:	d06f      	beq.n	80045e8 <HAL_ADCEx_InjectedConfigChannel+0x108>
 8004508:	6e82      	ldr	r2, [r0, #104]	; 0x68
 800450a:	2a00      	cmp	r2, #0
 800450c:	f040 812a 	bne.w	8004764 <HAL_ADCEx_InjectedConfigChannel+0x284>
 8004510:	6a88      	ldr	r0, [r1, #40]	; 0x28
 8004512:	1e5a      	subs	r2, r3, #1
 8004514:	2800      	cmp	r0, #0
 8004516:	f000 822c 	beq.w	8004972 <HAL_ADCEx_InjectedConfigChannel+0x492>
 800451a:	f000 007c 	and.w	r0, r0, #124	; 0x7c
 800451e:	6acb      	ldr	r3, [r1, #44]	; 0x2c
 8004520:	4310      	orrs	r0, r2
 8004522:	4318      	orrs	r0, r3
 8004524:	e9d1 3500 	ldrd	r3, r5, [r1]
 8004528:	66a2      	str	r2, [r4, #104]	; 0x68
 800452a:	f005 051f 	and.w	r5, r5, #31
 800452e:	f3c3 6284 	ubfx	r2, r3, #26, #5
 8004532:	40aa      	lsls	r2, r5
 8004534:	4310      	orrs	r0, r2
 8004536:	6822      	ldr	r2, [r4, #0]
 8004538:	6660      	str	r0, [r4, #100]	; 0x64
 800453a:	6890      	ldr	r0, [r2, #8]
 800453c:	0700      	lsls	r0, r0, #28
 800453e:	d410      	bmi.n	8004562 <HAL_ADCEx_InjectedConfigChannel+0x82>
 8004540:	f891 0026 	ldrb.w	r0, [r1, #38]	; 0x26
 8004544:	f891 5025 	ldrb.w	r5, [r1, #37]	; 0x25
 8004548:	0540      	lsls	r0, r0, #21
 800454a:	2d00      	cmp	r5, #0
 800454c:	f040 80ff 	bne.w	800474e <HAL_ADCEx_InjectedConfigChannel+0x26e>
 8004550:	68d5      	ldr	r5, [r2, #12]
 8004552:	f891 6024 	ldrb.w	r6, [r1, #36]	; 0x24
 8004556:	f425 1540 	bic.w	r5, r5, #3145728	; 0x300000
 800455a:	ea40 5006 	orr.w	r0, r0, r6, lsl #20
 800455e:	4328      	orrs	r0, r5
 8004560:	60d0      	str	r0, [r2, #12]
 8004562:	6890      	ldr	r0, [r2, #8]
 8004564:	f010 0004 	ands.w	r0, r0, #4
 8004568:	d057      	beq.n	800461a <HAL_ADCEx_InjectedConfigChannel+0x13a>
 800456a:	6890      	ldr	r0, [r2, #8]
 800456c:	2000      	movs	r0, #0
 800456e:	6895      	ldr	r5, [r2, #8]
 8004570:	07ef      	lsls	r7, r5, #31
 8004572:	d414      	bmi.n	800459e <HAL_ADCEx_InjectedConfigChannel+0xbe>
 8004574:	68cf      	ldr	r7, [r1, #12]
 8004576:	4dca      	ldr	r5, [pc, #808]	; (80048a0 <HAL_ADCEx_InjectedConfigChannel+0x3c0>)
 8004578:	f8d2 60b0 	ldr.w	r6, [r2, #176]	; 0xb0
 800457c:	f8df e34c 	ldr.w	lr, [pc, #844]	; 80048cc <HAL_ADCEx_InjectedConfigChannel+0x3ec>
 8004580:	f007 0c18 	and.w	ip, r7, #24
 8004584:	fa25 f50c 	lsr.w	r5, r5, ip
 8004588:	f3c3 0c12 	ubfx	ip, r3, #0, #19
 800458c:	401d      	ands	r5, r3
 800458e:	ea26 060c 	bic.w	r6, r6, ip
 8004592:	4335      	orrs	r5, r6
 8004594:	4577      	cmp	r7, lr
 8004596:	f8c2 50b0 	str.w	r5, [r2, #176]	; 0xb0
 800459a:	f000 810e 	beq.w	80047ba <HAL_ADCEx_InjectedConfigChannel+0x2da>
 800459e:	49c1      	ldr	r1, [pc, #772]	; (80048a4 <HAL_ADCEx_InjectedConfigChannel+0x3c4>)
 80045a0:	420b      	tst	r3, r1
 80045a2:	d01b      	beq.n	80045dc <HAL_ADCEx_InjectedConfigChannel+0xfc>
 80045a4:	4dc0      	ldr	r5, [pc, #768]	; (80048a8 <HAL_ADCEx_InjectedConfigChannel+0x3c8>)
 80045a6:	4ec1      	ldr	r6, [pc, #772]	; (80048ac <HAL_ADCEx_InjectedConfigChannel+0x3cc>)
 80045a8:	68a9      	ldr	r1, [r5, #8]
 80045aa:	42b3      	cmp	r3, r6
 80045ac:	f001 77e0 	and.w	r7, r1, #29360128	; 0x1c00000
 80045b0:	f000 80a7 	beq.w	8004702 <HAL_ADCEx_InjectedConfigChannel+0x222>
 80045b4:	4ebe      	ldr	r6, [pc, #760]	; (80048b0 <HAL_ADCEx_InjectedConfigChannel+0x3d0>)
 80045b6:	42b3      	cmp	r3, r6
 80045b8:	f000 80a3 	beq.w	8004702 <HAL_ADCEx_InjectedConfigChannel+0x222>
 80045bc:	4ebd      	ldr	r6, [pc, #756]	; (80048b4 <HAL_ADCEx_InjectedConfigChannel+0x3d4>)
 80045be:	42b3      	cmp	r3, r6
 80045c0:	f040 8152 	bne.w	8004868 <HAL_ADCEx_InjectedConfigChannel+0x388>
 80045c4:	01ce      	lsls	r6, r1, #7
 80045c6:	d409      	bmi.n	80045dc <HAL_ADCEx_InjectedConfigChannel+0xfc>
 80045c8:	4bbb      	ldr	r3, [pc, #748]	; (80048b8 <HAL_ADCEx_InjectedConfigChannel+0x3d8>)
 80045ca:	429a      	cmp	r2, r3
 80045cc:	d006      	beq.n	80045dc <HAL_ADCEx_InjectedConfigChannel+0xfc>
 80045ce:	68ab      	ldr	r3, [r5, #8]
 80045d0:	f023 73e0 	bic.w	r3, r3, #29360128	; 0x1c00000
 80045d4:	431f      	orrs	r7, r3
 80045d6:	f047 7780 	orr.w	r7, r7, #16777216	; 0x1000000
 80045da:	60af      	str	r7, [r5, #8]
 80045dc:	2300      	movs	r3, #0
 80045de:	f884 3058 	strb.w	r3, [r4, #88]	; 0x58
 80045e2:	b003      	add	sp, #12
 80045e4:	e8bd 83f0 	ldmia.w	sp!, {r4, r5, r6, r7, r8, r9, pc}
 80045e8:	e9d1 3000 	ldrd	r3, r0, [r1]
 80045ec:	2809      	cmp	r0, #9
 80045ee:	6822      	ldr	r2, [r4, #0]
 80045f0:	d1a3      	bne.n	800453a <HAL_ADCEx_InjectedConfigChannel+0x5a>
 80045f2:	6a88      	ldr	r0, [r1, #40]	; 0x28
 80045f4:	0c5d      	lsrs	r5, r3, #17
 80045f6:	f405 5578 	and.w	r5, r5, #15872	; 0x3e00
 80045fa:	b120      	cbz	r0, 8004606 <HAL_ADCEx_InjectedConfigChannel+0x126>
 80045fc:	6ace      	ldr	r6, [r1, #44]	; 0x2c
 80045fe:	f000 007c 	and.w	r0, r0, #124	; 0x7c
 8004602:	4330      	orrs	r0, r6
 8004604:	4305      	orrs	r5, r0
 8004606:	6cd0      	ldr	r0, [r2, #76]	; 0x4c
 8004608:	4eac      	ldr	r6, [pc, #688]	; (80048bc <HAL_ADCEx_InjectedConfigChannel+0x3dc>)
 800460a:	4030      	ands	r0, r6
 800460c:	4328      	orrs	r0, r5
 800460e:	64d0      	str	r0, [r2, #76]	; 0x4c
 8004610:	6890      	ldr	r0, [r2, #8]
 8004612:	6665      	str	r5, [r4, #100]	; 0x64
 8004614:	0700      	lsls	r0, r0, #28
 8004616:	d4a4      	bmi.n	8004562 <HAL_ADCEx_InjectedConfigChannel+0x82>
 8004618:	e792      	b.n	8004540 <HAL_ADCEx_InjectedConfigChannel+0x60>
 800461a:	6895      	ldr	r5, [r2, #8]
 800461c:	f015 0508 	ands.w	r5, r5, #8
 8004620:	d1a5      	bne.n	800456e <HAL_ADCEx_InjectedConfigChannel+0x8e>
 8004622:	6a8e      	ldr	r6, [r1, #40]	; 0x28
 8004624:	f891 0025 	ldrb.w	r0, [r1, #37]	; 0x25
 8004628:	2e00      	cmp	r6, #0
 800462a:	f040 80b5 	bne.w	8004798 <HAL_ADCEx_InjectedConfigChannel+0x2b8>
 800462e:	2801      	cmp	r0, #1
 8004630:	68d0      	ldr	r0, [r2, #12]
 8004632:	bf0c      	ite	eq
 8004634:	f040 7000 	orreq.w	r0, r0, #33554432	; 0x2000000
 8004638:	f020 7000 	bicne.w	r0, r0, #33554432	; 0x2000000
 800463c:	60d0      	str	r0, [r2, #12]
 800463e:	2000      	movs	r0, #0
 8004640:	f891 6030 	ldrb.w	r6, [r1, #48]	; 0x30
 8004644:	2e01      	cmp	r6, #1
 8004646:	f000 8145 	beq.w	80048d4 <HAL_ADCEx_InjectedConfigChannel+0x3f4>
 800464a:	6916      	ldr	r6, [r2, #16]
 800464c:	f026 0602 	bic.w	r6, r6, #2
 8004650:	6116      	str	r6, [r2, #16]
 8004652:	f3c3 5804 	ubfx	r8, r3, #20, #5
 8004656:	688f      	ldr	r7, [r1, #8]
 8004658:	0ddb      	lsrs	r3, r3, #23
 800465a:	2607      	movs	r6, #7
 800465c:	f003 0e04 	and.w	lr, r3, #4
 8004660:	f102 0c14 	add.w	ip, r2, #20
 8004664:	fa06 f608 	lsl.w	r6, r6, r8
 8004668:	f1b7 4f00 	cmp.w	r7, #2147483648	; 0x80000000
 800466c:	ea6f 0606 	mvn.w	r6, r6
 8004670:	f85e 300c 	ldr.w	r3, [lr, ip]
 8004674:	f000 810b 	beq.w	800488e <HAL_ADCEx_InjectedConfigChannel+0x3ae>
 8004678:	401e      	ands	r6, r3
 800467a:	fa07 f708 	lsl.w	r7, r7, r8
 800467e:	4337      	orrs	r7, r6
 8004680:	f84e 700c 	str.w	r7, [lr, ip]
 8004684:	6953      	ldr	r3, [r2, #20]
 8004686:	f023 4300 	bic.w	r3, r3, #2147483648	; 0x80000000
 800468a:	6153      	str	r3, [r2, #20]
 800468c:	f8d1 e010 	ldr.w	lr, [r1, #16]
 8004690:	68d7      	ldr	r7, [r2, #12]
 8004692:	680b      	ldr	r3, [r1, #0]
 8004694:	f1be 0f04 	cmp.w	lr, #4
 8004698:	f102 0660 	add.w	r6, r2, #96	; 0x60
 800469c:	f000 8126 	beq.w	80048ec <HAL_ADCEx_InjectedConfigChannel+0x40c>
 80046a0:	f3c7 0cc1 	ubfx	ip, r7, #3, #2
 80046a4:	694f      	ldr	r7, [r1, #20]
 80046a6:	f856 902e 	ldr.w	r9, [r6, lr, lsl #2]
 80046aa:	f8df 8224 	ldr.w	r8, [pc, #548]	; 80048d0 <HAL_ADCEx_InjectedConfigChannel+0x3f0>
 80046ae:	ea4f 0c4c 	mov.w	ip, ip, lsl #1
 80046b2:	f003 43f8 	and.w	r3, r3, #2080374784	; 0x7c000000
 80046b6:	f043 4300 	orr.w	r3, r3, #2147483648	; 0x80000000
 80046ba:	fa07 f70c 	lsl.w	r7, r7, ip
 80046be:	431f      	orrs	r7, r3
 80046c0:	ea09 0808 	and.w	r8, r9, r8
 80046c4:	ea47 0708 	orr.w	r7, r7, r8
 80046c8:	f846 702e 	str.w	r7, [r6, lr, lsl #2]
 80046cc:	f8d1 c010 	ldr.w	ip, [r1, #16]
 80046d0:	698f      	ldr	r7, [r1, #24]
 80046d2:	f856 302c 	ldr.w	r3, [r6, ip, lsl #2]
 80046d6:	f891 e01c 	ldrb.w	lr, [r1, #28]
 80046da:	f023 7380 	bic.w	r3, r3, #16777216	; 0x1000000
 80046de:	433b      	orrs	r3, r7
 80046e0:	f846 302c 	str.w	r3, [r6, ip, lsl #2]
 80046e4:	690f      	ldr	r7, [r1, #16]
 80046e6:	f856 3027 	ldr.w	r3, [r6, r7, lsl #2]
 80046ea:	f1be 0f01 	cmp.w	lr, #1
 80046ee:	f023 7300 	bic.w	r3, r3, #33554432	; 0x2000000
 80046f2:	bf08      	it	eq
 80046f4:	f04f 7500 	moveq.w	r5, #33554432	; 0x2000000
 80046f8:	431d      	orrs	r5, r3
 80046fa:	f846 5027 	str.w	r5, [r6, r7, lsl #2]
 80046fe:	680b      	ldr	r3, [r1, #0]
 8004700:	e735      	b.n	800456e <HAL_ADCEx_InjectedConfigChannel+0x8e>
 8004702:	020b      	lsls	r3, r1, #8
 8004704:	f53f af6a 	bmi.w	80045dc <HAL_ADCEx_InjectedConfigChannel+0xfc>
 8004708:	f1b2 4fa0 	cmp.w	r2, #1342177280	; 0x50000000
 800470c:	f47f af66 	bne.w	80045dc <HAL_ADCEx_InjectedConfigChannel+0xfc>
 8004710:	f8d2 3308 	ldr.w	r3, [r2, #776]	; 0x308
 8004714:	496a      	ldr	r1, [pc, #424]	; (80048c0 <HAL_ADCEx_InjectedConfigChannel+0x3e0>)
 8004716:	f023 73e0 	bic.w	r3, r3, #29360128	; 0x1c00000
 800471a:	431f      	orrs	r7, r3
 800471c:	f447 0700 	orr.w	r7, r7, #8388608	; 0x800000
 8004720:	f8c2 7308 	str.w	r7, [r2, #776]	; 0x308
 8004724:	680b      	ldr	r3, [r1, #0]
 8004726:	4a67      	ldr	r2, [pc, #412]	; (80048c4 <HAL_ADCEx_InjectedConfigChannel+0x3e4>)
 8004728:	099b      	lsrs	r3, r3, #6
 800472a:	fba2 2303 	umull	r2, r3, r2, r3
 800472e:	099b      	lsrs	r3, r3, #6
 8004730:	eb03 0343 	add.w	r3, r3, r3, lsl #1
 8004734:	009b      	lsls	r3, r3, #2
 8004736:	9301      	str	r3, [sp, #4]
 8004738:	9b01      	ldr	r3, [sp, #4]
 800473a:	2b00      	cmp	r3, #0
 800473c:	f43f af4e 	beq.w	80045dc <HAL_ADCEx_InjectedConfigChannel+0xfc>
 8004740:	9b01      	ldr	r3, [sp, #4]
 8004742:	3b01      	subs	r3, #1
 8004744:	9301      	str	r3, [sp, #4]
 8004746:	9b01      	ldr	r3, [sp, #4]
 8004748:	2b00      	cmp	r3, #0
 800474a:	d1f9      	bne.n	8004740 <HAL_ADCEx_InjectedConfigChannel+0x260>
 800474c:	e746      	b.n	80045dc <HAL_ADCEx_InjectedConfigChannel+0xfc>
 800474e:	68d5      	ldr	r5, [r2, #12]
 8004750:	f425 1540 	bic.w	r5, r5, #3145728	; 0x300000
 8004754:	4328      	orrs	r0, r5
 8004756:	60d0      	str	r0, [r2, #12]
 8004758:	6890      	ldr	r0, [r2, #8]
 800475a:	f010 0004 	ands.w	r0, r0, #4
 800475e:	f47f af04 	bne.w	800456a <HAL_ADCEx_InjectedConfigChannel+0x8a>
 8004762:	e75a      	b.n	800461a <HAL_ADCEx_InjectedConfigChannel+0x13a>
 8004764:	e9d1 3000 	ldrd	r3, r0, [r1]
 8004768:	6e66      	ldr	r6, [r4, #100]	; 0x64
 800476a:	f000 001f 	and.w	r0, r0, #31
 800476e:	f3c3 6584 	ubfx	r5, r3, #26, #5
 8004772:	4085      	lsls	r5, r0
 8004774:	4335      	orrs	r5, r6
 8004776:	1e50      	subs	r0, r2, #1
 8004778:	e9c4 5019 	strd	r5, r0, [r4, #100]	; 0x64
 800477c:	6822      	ldr	r2, [r4, #0]
 800477e:	2800      	cmp	r0, #0
 8004780:	f47f aedb 	bne.w	800453a <HAL_ADCEx_InjectedConfigChannel+0x5a>
 8004784:	6cd0      	ldr	r0, [r2, #76]	; 0x4c
 8004786:	4e4d      	ldr	r6, [pc, #308]	; (80048bc <HAL_ADCEx_InjectedConfigChannel+0x3dc>)
 8004788:	4030      	ands	r0, r6
 800478a:	4305      	orrs	r5, r0
 800478c:	64d5      	str	r5, [r2, #76]	; 0x4c
 800478e:	6890      	ldr	r0, [r2, #8]
 8004790:	0700      	lsls	r0, r0, #28
 8004792:	f53f aee6 	bmi.w	8004562 <HAL_ADCEx_InjectedConfigChannel+0x82>
 8004796:	e6d3      	b.n	8004540 <HAL_ADCEx_InjectedConfigChannel+0x60>
 8004798:	6ace      	ldr	r6, [r1, #44]	; 0x2c
 800479a:	2e00      	cmp	r6, #0
 800479c:	f43f af47 	beq.w	800462e <HAL_ADCEx_InjectedConfigChannel+0x14e>
 80047a0:	2801      	cmp	r0, #1
 80047a2:	f000 8108 	beq.w	80049b6 <HAL_ADCEx_InjectedConfigChannel+0x4d6>
 80047a6:	68d0      	ldr	r0, [r2, #12]
 80047a8:	f020 7000 	bic.w	r0, r0, #33554432	; 0x2000000
 80047ac:	60d0      	str	r0, [r2, #12]
 80047ae:	4628      	mov	r0, r5
 80047b0:	e746      	b.n	8004640 <HAL_ADCEx_InjectedConfigChannel+0x160>
 80047b2:	2002      	movs	r0, #2
 80047b4:	b003      	add	sp, #12
 80047b6:	e8bd 83f0 	ldmia.w	sp!, {r4, r5, r6, r7, r8, r9, pc}
 80047ba:	f1bc 0f00 	cmp.w	ip, #0
 80047be:	d12b      	bne.n	8004818 <HAL_ADCEx_InjectedConfigChannel+0x338>
 80047c0:	0e9b      	lsrs	r3, r3, #26
 80047c2:	3301      	adds	r3, #1
 80047c4:	f003 061f 	and.w	r6, r3, #31
 80047c8:	069d      	lsls	r5, r3, #26
 80047ca:	2301      	movs	r3, #1
 80047cc:	40b3      	lsls	r3, r6
 80047ce:	f005 45f8 	and.w	r5, r5, #2080374784	; 0x7c000000
 80047d2:	2e09      	cmp	r6, #9
 80047d4:	ea45 0503 	orr.w	r5, r5, r3
 80047d8:	eb06 0346 	add.w	r3, r6, r6, lsl #1
 80047dc:	d942      	bls.n	8004864 <HAL_ADCEx_InjectedConfigChannel+0x384>
 80047de:	3b1e      	subs	r3, #30
 80047e0:	051b      	lsls	r3, r3, #20
 80047e2:	f043 7300 	orr.w	r3, r3, #33554432	; 0x2000000
 80047e6:	432b      	orrs	r3, r5
 80047e8:	ea4f 5cd3 	mov.w	ip, r3, lsr #23
 80047ec:	f00c 0c04 	and.w	ip, ip, #4
 80047f0:	f102 0714 	add.w	r7, r2, #20
 80047f4:	f3c3 5304 	ubfx	r3, r3, #20, #5
 80047f8:	f85c 6007 	ldr.w	r6, [ip, r7]
 80047fc:	688d      	ldr	r5, [r1, #8]
 80047fe:	f04f 0e07 	mov.w	lr, #7
 8004802:	fa0e fe03 	lsl.w	lr, lr, r3
 8004806:	ea26 060e 	bic.w	r6, r6, lr
 800480a:	fa05 f303 	lsl.w	r3, r5, r3
 800480e:	4333      	orrs	r3, r6
 8004810:	f84c 3007 	str.w	r3, [ip, r7]
 8004814:	680b      	ldr	r3, [r1, #0]
 8004816:	e6c2      	b.n	800459e <HAL_ADCEx_InjectedConfigChannel+0xbe>
 8004818:	fa93 f5a3 	rbit	r5, r3
 800481c:	fab5 f585 	clz	r5, r5
 8004820:	3501      	adds	r5, #1
 8004822:	f005 051f 	and.w	r5, r5, #31
 8004826:	2d09      	cmp	r5, #9
 8004828:	f200 80a8 	bhi.w	800497c <HAL_ADCEx_InjectedConfigChannel+0x49c>
 800482c:	fa93 f5a3 	rbit	r5, r3
 8004830:	fab5 f585 	clz	r5, r5
 8004834:	fa93 f6a3 	rbit	r6, r3
 8004838:	fab6 f686 	clz	r6, r6
 800483c:	3601      	adds	r6, #1
 800483e:	3501      	adds	r5, #1
 8004840:	2701      	movs	r7, #1
 8004842:	f006 061f 	and.w	r6, r6, #31
 8004846:	06ad      	lsls	r5, r5, #26
 8004848:	fa07 f606 	lsl.w	r6, r7, r6
 800484c:	f005 45f8 	and.w	r5, r5, #2080374784	; 0x7c000000
 8004850:	4335      	orrs	r5, r6
 8004852:	fa93 f3a3 	rbit	r3, r3
 8004856:	fab3 f383 	clz	r3, r3
 800485a:	443b      	add	r3, r7
 800485c:	f003 031f 	and.w	r3, r3, #31
 8004860:	eb03 0343 	add.w	r3, r3, r3, lsl #1
 8004864:	051b      	lsls	r3, r3, #20
 8004866:	e7be      	b.n	80047e6 <HAL_ADCEx_InjectedConfigChannel+0x306>
 8004868:	4e17      	ldr	r6, [pc, #92]	; (80048c8 <HAL_ADCEx_InjectedConfigChannel+0x3e8>)
 800486a:	42b3      	cmp	r3, r6
 800486c:	f47f aeb6 	bne.w	80045dc <HAL_ADCEx_InjectedConfigChannel+0xfc>
 8004870:	0249      	lsls	r1, r1, #9
 8004872:	f53f aeb3 	bmi.w	80045dc <HAL_ADCEx_InjectedConfigChannel+0xfc>
 8004876:	4b10      	ldr	r3, [pc, #64]	; (80048b8 <HAL_ADCEx_InjectedConfigChannel+0x3d8>)
 8004878:	429a      	cmp	r2, r3
 800487a:	f43f aeaf 	beq.w	80045dc <HAL_ADCEx_InjectedConfigChannel+0xfc>
 800487e:	68ab      	ldr	r3, [r5, #8]
 8004880:	f023 73e0 	bic.w	r3, r3, #29360128	; 0x1c00000
 8004884:	431f      	orrs	r7, r3
 8004886:	f447 0780 	orr.w	r7, r7, #4194304	; 0x400000
 800488a:	60af      	str	r7, [r5, #8]
 800488c:	e6a6      	b.n	80045dc <HAL_ADCEx_InjectedConfigChannel+0xfc>
 800488e:	401e      	ands	r6, r3
 8004890:	f84e 600c 	str.w	r6, [lr, ip]
 8004894:	6953      	ldr	r3, [r2, #20]
 8004896:	f043 4300 	orr.w	r3, r3, #2147483648	; 0x80000000
 800489a:	6153      	str	r3, [r2, #20]
 800489c:	e6f6      	b.n	800468c <HAL_ADCEx_InjectedConfigChannel+0x1ac>
 800489e:	bf00      	nop
 80048a0:	0007ffff 	.word	0x0007ffff
 80048a4:	80080000 	.word	0x80080000
 80048a8:	50000300 	.word	0x50000300
 80048ac:	c3210000 	.word	0xc3210000
 80048b0:	90c00010 	.word	0x90c00010
 80048b4:	c7520000 	.word	0xc7520000
 80048b8:	50000100 	.word	0x50000100
 80048bc:	04104000 	.word	0x04104000
 80048c0:	200005e0 	.word	0x200005e0
 80048c4:	053e2d63 	.word	0x053e2d63
 80048c8:	cb840000 	.word	0xcb840000
 80048cc:	407f0000 	.word	0x407f0000
 80048d0:	03fff000 	.word	0x03fff000
 80048d4:	6b8f      	ldr	r7, [r1, #56]	; 0x38
 80048d6:	6b4e      	ldr	r6, [r1, #52]	; 0x34
 80048d8:	f8d2 c010 	ldr.w	ip, [r2, #16]
 80048dc:	433e      	orrs	r6, r7
 80048de:	f046 0602 	orr.w	r6, r6, #2
 80048e2:	f42c 77ff 	bic.w	r7, ip, #510	; 0x1fe
 80048e6:	433e      	orrs	r6, r7
 80048e8:	6116      	str	r6, [r2, #16]
 80048ea:	e6b2      	b.n	8004652 <HAL_ADCEx_InjectedConfigChannel+0x172>
 80048ec:	6e15      	ldr	r5, [r2, #96]	; 0x60
 80048ee:	6e15      	ldr	r5, [r2, #96]	; 0x60
 80048f0:	f3c3 0c12 	ubfx	ip, r3, #0, #19
 80048f4:	f3c5 6584 	ubfx	r5, r5, #26, #5
 80048f8:	f1bc 0f00 	cmp.w	ip, #0
 80048fc:	d03b      	beq.n	8004976 <HAL_ADCEx_InjectedConfigChannel+0x496>
 80048fe:	fa93 f7a3 	rbit	r7, r3
 8004902:	fab7 f787 	clz	r7, r7
 8004906:	42bd      	cmp	r5, r7
 8004908:	d106      	bne.n	8004918 <HAL_ADCEx_InjectedConfigChannel+0x438>
 800490a:	6e13      	ldr	r3, [r2, #96]	; 0x60
 800490c:	f023 4300 	bic.w	r3, r3, #2147483648	; 0x80000000
 8004910:	6613      	str	r3, [r2, #96]	; 0x60
 8004912:	680b      	ldr	r3, [r1, #0]
 8004914:	f3c3 0c12 	ubfx	ip, r3, #0, #19
 8004918:	6875      	ldr	r5, [r6, #4]
 800491a:	6877      	ldr	r7, [r6, #4]
 800491c:	f3c7 6784 	ubfx	r7, r7, #26, #5
 8004920:	f1bc 0f00 	cmp.w	ip, #0
 8004924:	d14c      	bne.n	80049c0 <HAL_ADCEx_InjectedConfigChannel+0x4e0>
 8004926:	f3c3 6584 	ubfx	r5, r3, #26, #5
 800492a:	42af      	cmp	r7, r5
 800492c:	d172      	bne.n	8004a14 <HAL_ADCEx_InjectedConfigChannel+0x534>
 800492e:	6873      	ldr	r3, [r6, #4]
 8004930:	f023 4300 	bic.w	r3, r3, #2147483648	; 0x80000000
 8004934:	6073      	str	r3, [r6, #4]
 8004936:	680b      	ldr	r3, [r1, #0]
 8004938:	68b5      	ldr	r5, [r6, #8]
 800493a:	68b7      	ldr	r7, [r6, #8]
 800493c:	f3c3 0512 	ubfx	r5, r3, #0, #19
 8004940:	f3c7 6784 	ubfx	r7, r7, #26, #5
 8004944:	2d00      	cmp	r5, #0
 8004946:	d145      	bne.n	80049d4 <HAL_ADCEx_InjectedConfigChannel+0x4f4>
 8004948:	f3c3 6584 	ubfx	r5, r3, #26, #5
 800494c:	42af      	cmp	r7, r5
 800494e:	f106 0c0c 	add.w	ip, r6, #12
 8004952:	d047      	beq.n	80049e4 <HAL_ADCEx_InjectedConfigChannel+0x504>
 8004954:	68f7      	ldr	r7, [r6, #12]
 8004956:	68f6      	ldr	r6, [r6, #12]
 8004958:	f3c6 6684 	ubfx	r6, r6, #26, #5
 800495c:	42b5      	cmp	r5, r6
 800495e:	f47f ae06 	bne.w	800456e <HAL_ADCEx_InjectedConfigChannel+0x8e>
 8004962:	f8dc 3000 	ldr.w	r3, [ip]
 8004966:	f023 4300 	bic.w	r3, r3, #2147483648	; 0x80000000
 800496a:	f8cc 3000 	str.w	r3, [ip]
 800496e:	680b      	ldr	r3, [r1, #0]
 8004970:	e5fd      	b.n	800456e <HAL_ADCEx_InjectedConfigChannel+0x8e>
 8004972:	4610      	mov	r0, r2
 8004974:	e5d6      	b.n	8004524 <HAL_ADCEx_InjectedConfigChannel+0x44>
 8004976:	f3c3 6784 	ubfx	r7, r3, #26, #5
 800497a:	e7c4      	b.n	8004906 <HAL_ADCEx_InjectedConfigChannel+0x426>
 800497c:	fa93 f5a3 	rbit	r5, r3
 8004980:	fab5 f585 	clz	r5, r5
 8004984:	fa93 f6a3 	rbit	r6, r3
 8004988:	fab6 f686 	clz	r6, r6
 800498c:	3601      	adds	r6, #1
 800498e:	3501      	adds	r5, #1
 8004990:	2701      	movs	r7, #1
 8004992:	f006 061f 	and.w	r6, r6, #31
 8004996:	06ad      	lsls	r5, r5, #26
 8004998:	fa07 f606 	lsl.w	r6, r7, r6
 800499c:	f005 45f8 	and.w	r5, r5, #2080374784	; 0x7c000000
 80049a0:	4335      	orrs	r5, r6
 80049a2:	fa93 f3a3 	rbit	r3, r3
 80049a6:	fab3 f383 	clz	r3, r3
 80049aa:	443b      	add	r3, r7
 80049ac:	f003 031f 	and.w	r3, r3, #31
 80049b0:	eb03 0343 	add.w	r3, r3, r3, lsl #1
 80049b4:	e713      	b.n	80047de <HAL_ADCEx_InjectedConfigChannel+0x2fe>
 80049b6:	6de6      	ldr	r6, [r4, #92]	; 0x5c
 80049b8:	f046 0620 	orr.w	r6, r6, #32
 80049bc:	65e6      	str	r6, [r4, #92]	; 0x5c
 80049be:	e63f      	b.n	8004640 <HAL_ADCEx_InjectedConfigChannel+0x160>
 80049c0:	fa93 f5a3 	rbit	r5, r3
 80049c4:	fab5 f585 	clz	r5, r5
 80049c8:	42af      	cmp	r7, r5
 80049ca:	d0b0      	beq.n	800492e <HAL_ADCEx_InjectedConfigChannel+0x44e>
 80049cc:	68b5      	ldr	r5, [r6, #8]
 80049ce:	68b7      	ldr	r7, [r6, #8]
 80049d0:	f3c7 6784 	ubfx	r7, r7, #26, #5
 80049d4:	fa93 f5a3 	rbit	r5, r3
 80049d8:	fab5 f585 	clz	r5, r5
 80049dc:	42bd      	cmp	r5, r7
 80049de:	f106 0c0c 	add.w	ip, r6, #12
 80049e2:	d112      	bne.n	8004a0a <HAL_ADCEx_InjectedConfigChannel+0x52a>
 80049e4:	68b3      	ldr	r3, [r6, #8]
 80049e6:	f023 4300 	bic.w	r3, r3, #2147483648	; 0x80000000
 80049ea:	60b3      	str	r3, [r6, #8]
 80049ec:	680b      	ldr	r3, [r1, #0]
 80049ee:	f8dc 5000 	ldr.w	r5, [ip]
 80049f2:	f8dc 6000 	ldr.w	r6, [ip]
 80049f6:	f3c3 0512 	ubfx	r5, r3, #0, #19
 80049fa:	f3c6 6684 	ubfx	r6, r6, #26, #5
 80049fe:	b175      	cbz	r5, 8004a1e <HAL_ADCEx_InjectedConfigChannel+0x53e>
 8004a00:	fa93 f5a3 	rbit	r5, r3
 8004a04:	fab5 f585 	clz	r5, r5
 8004a08:	e7a8      	b.n	800495c <HAL_ADCEx_InjectedConfigChannel+0x47c>
 8004a0a:	68f5      	ldr	r5, [r6, #12]
 8004a0c:	68f6      	ldr	r6, [r6, #12]
 8004a0e:	f3c6 6684 	ubfx	r6, r6, #26, #5
 8004a12:	e7f5      	b.n	8004a00 <HAL_ADCEx_InjectedConfigChannel+0x520>
 8004a14:	68b7      	ldr	r7, [r6, #8]
 8004a16:	68b7      	ldr	r7, [r6, #8]
 8004a18:	f3c7 6784 	ubfx	r7, r7, #26, #5
 8004a1c:	e796      	b.n	800494c <HAL_ADCEx_InjectedConfigChannel+0x46c>
 8004a1e:	f3c3 6584 	ubfx	r5, r3, #26, #5
 8004a22:	e79b      	b.n	800495c <HAL_ADCEx_InjectedConfigChannel+0x47c>

08004a24 <HAL_ADCEx_MultiModeConfigChannel>:
 8004a24:	f890 2058 	ldrb.w	r2, [r0, #88]	; 0x58
 8004a28:	2a01      	cmp	r2, #1
 8004a2a:	d047      	beq.n	8004abc <HAL_ADCEx_MultiModeConfigChannel+0x98>
 8004a2c:	b5f0      	push	{r4, r5, r6, r7, lr}
 8004a2e:	6804      	ldr	r4, [r0, #0]
 8004a30:	680e      	ldr	r6, [r1, #0]
 8004a32:	4603      	mov	r3, r0
 8004a34:	f1b4 4fa0 	cmp.w	r4, #1342177280	; 0x50000000
 8004a38:	f04f 0001 	mov.w	r0, #1
 8004a3c:	f883 0058 	strb.w	r0, [r3, #88]	; 0x58
 8004a40:	d007      	beq.n	8004a52 <HAL_ADCEx_MultiModeConfigChannel+0x2e>
 8004a42:	6dda      	ldr	r2, [r3, #92]	; 0x5c
 8004a44:	2100      	movs	r1, #0
 8004a46:	f042 0220 	orr.w	r2, r2, #32
 8004a4a:	65da      	str	r2, [r3, #92]	; 0x5c
 8004a4c:	f883 1058 	strb.w	r1, [r3, #88]	; 0x58
 8004a50:	bdf0      	pop	{r4, r5, r6, r7, pc}
 8004a52:	4d27      	ldr	r5, [pc, #156]	; (8004af0 <HAL_ADCEx_MultiModeConfigChannel+0xcc>)
 8004a54:	68aa      	ldr	r2, [r5, #8]
 8004a56:	0752      	lsls	r2, r2, #29
 8004a58:	d509      	bpl.n	8004a6e <HAL_ADCEx_MultiModeConfigChannel+0x4a>
 8004a5a:	68a2      	ldr	r2, [r4, #8]
 8004a5c:	6dda      	ldr	r2, [r3, #92]	; 0x5c
 8004a5e:	f042 0220 	orr.w	r2, r2, #32
 8004a62:	65da      	str	r2, [r3, #92]	; 0x5c
 8004a64:	2001      	movs	r0, #1
 8004a66:	2200      	movs	r2, #0
 8004a68:	f883 2058 	strb.w	r2, [r3, #88]	; 0x58
 8004a6c:	bdf0      	pop	{r4, r5, r6, r7, pc}
 8004a6e:	68a0      	ldr	r0, [r4, #8]
 8004a70:	f010 0004 	ands.w	r0, r0, #4
 8004a74:	d1f2      	bne.n	8004a5c <HAL_ADCEx_MultiModeConfigChannel+0x38>
 8004a76:	b31e      	cbz	r6, 8004ac0 <HAL_ADCEx_MultiModeConfigChannel+0x9c>
 8004a78:	f8df e078 	ldr.w	lr, [pc, #120]	; 8004af4 <HAL_ADCEx_MultiModeConfigChannel+0xd0>
 8004a7c:	684f      	ldr	r7, [r1, #4]
 8004a7e:	f8de 2008 	ldr.w	r2, [lr, #8]
 8004a82:	f893 c038 	ldrb.w	ip, [r3, #56]	; 0x38
 8004a86:	f422 4260 	bic.w	r2, r2, #57344	; 0xe000
 8004a8a:	433a      	orrs	r2, r7
 8004a8c:	ea42 324c 	orr.w	r2, r2, ip, lsl #13
 8004a90:	f8ce 2008 	str.w	r2, [lr, #8]
 8004a94:	68a2      	ldr	r2, [r4, #8]
 8004a96:	07d4      	lsls	r4, r2, #31
 8004a98:	d427      	bmi.n	8004aea <HAL_ADCEx_MultiModeConfigChannel+0xc6>
 8004a9a:	68a8      	ldr	r0, [r5, #8]
 8004a9c:	f010 0001 	ands.w	r0, r0, #1
 8004aa0:	d121      	bne.n	8004ae6 <HAL_ADCEx_MultiModeConfigChannel+0xc2>
 8004aa2:	f8de 2008 	ldr.w	r2, [lr, #8]
 8004aa6:	688c      	ldr	r4, [r1, #8]
 8004aa8:	f422 6171 	bic.w	r1, r2, #3856	; 0xf10
 8004aac:	f021 010f 	bic.w	r1, r1, #15
 8004ab0:	ea46 0204 	orr.w	r2, r6, r4
 8004ab4:	430a      	orrs	r2, r1
 8004ab6:	f8ce 2008 	str.w	r2, [lr, #8]
 8004aba:	e7d4      	b.n	8004a66 <HAL_ADCEx_MultiModeConfigChannel+0x42>
 8004abc:	2002      	movs	r0, #2
 8004abe:	4770      	bx	lr
 8004ac0:	4a0c      	ldr	r2, [pc, #48]	; (8004af4 <HAL_ADCEx_MultiModeConfigChannel+0xd0>)
 8004ac2:	6891      	ldr	r1, [r2, #8]
 8004ac4:	f421 4160 	bic.w	r1, r1, #57344	; 0xe000
 8004ac8:	6091      	str	r1, [r2, #8]
 8004aca:	68a0      	ldr	r0, [r4, #8]
 8004acc:	68a9      	ldr	r1, [r5, #8]
 8004ace:	07c9      	lsls	r1, r1, #31
 8004ad0:	f000 0001 	and.w	r0, r0, #1
 8004ad4:	d407      	bmi.n	8004ae6 <HAL_ADCEx_MultiModeConfigChannel+0xc2>
 8004ad6:	b930      	cbnz	r0, 8004ae6 <HAL_ADCEx_MultiModeConfigChannel+0xc2>
 8004ad8:	6891      	ldr	r1, [r2, #8]
 8004ada:	f421 6171 	bic.w	r1, r1, #3856	; 0xf10
 8004ade:	f021 010f 	bic.w	r1, r1, #15
 8004ae2:	6091      	str	r1, [r2, #8]
 8004ae4:	e7bf      	b.n	8004a66 <HAL_ADCEx_MultiModeConfigChannel+0x42>
 8004ae6:	2000      	movs	r0, #0
 8004ae8:	e7bd      	b.n	8004a66 <HAL_ADCEx_MultiModeConfigChannel+0x42>
 8004aea:	68aa      	ldr	r2, [r5, #8]
 8004aec:	e7bb      	b.n	8004a66 <HAL_ADCEx_MultiModeConfigChannel+0x42>
 8004aee:	bf00      	nop
 8004af0:	50000100 	.word	0x50000100
 8004af4:	50000300 	.word	0x50000300

08004af8 <HAL_COMP_Init>:
 8004af8:	b5f0      	push	{r4, r5, r6, r7, lr}
 8004afa:	b083      	sub	sp, #12
 8004afc:	2300      	movs	r3, #0
 8004afe:	9301      	str	r3, [sp, #4]
 8004b00:	2800      	cmp	r0, #0
 8004b02:	d054      	beq.n	8004bae <HAL_COMP_Init+0xb6>
 8004b04:	6802      	ldr	r2, [r0, #0]
 8004b06:	6813      	ldr	r3, [r2, #0]
 8004b08:	2b00      	cmp	r3, #0
 8004b0a:	4604      	mov	r4, r0
 8004b0c:	db4f      	blt.n	8004bae <HAL_COMP_Init+0xb6>
 8004b0e:	7f43      	ldrb	r3, [r0, #29]
 8004b10:	f003 01ff 	and.w	r1, r3, #255	; 0xff
 8004b14:	2b00      	cmp	r3, #0
 8004b16:	d07e      	beq.n	8004c16 <HAL_COMP_Init+0x11e>
 8004b18:	e9d4 6301 	ldrd	r6, r3, [r4, #4]
 8004b1c:	e9d4 5003 	ldrd	r5, r0, [r4, #12]
 8004b20:	6961      	ldr	r1, [r4, #20]
 8004b22:	6817      	ldr	r7, [r2, #0]
 8004b24:	4333      	orrs	r3, r6
 8004b26:	430b      	orrs	r3, r1
 8004b28:	6816      	ldr	r6, [r2, #0]
 8004b2a:	4940      	ldr	r1, [pc, #256]	; (8004c2c <HAL_COMP_Init+0x134>)
 8004b2c:	432b      	orrs	r3, r5
 8004b2e:	4303      	orrs	r3, r0
 8004b30:	4031      	ands	r1, r6
 8004b32:	430b      	orrs	r3, r1
 8004b34:	6013      	str	r3, [r2, #0]
 8004b36:	6813      	ldr	r3, [r2, #0]
 8004b38:	0218      	lsls	r0, r3, #8
 8004b3a:	d501      	bpl.n	8004b40 <HAL_COMP_Init+0x48>
 8004b3c:	023b      	lsls	r3, r7, #8
 8004b3e:	d54e      	bpl.n	8004bde <HAL_COMP_Init+0xe6>
 8004b40:	4b3b      	ldr	r3, [pc, #236]	; (8004c30 <HAL_COMP_Init+0x138>)
 8004b42:	429a      	cmp	r2, r3
 8004b44:	d062      	beq.n	8004c0c <HAL_COMP_Init+0x114>
 8004b46:	3304      	adds	r3, #4
 8004b48:	429a      	cmp	r2, r3
 8004b4a:	d06a      	beq.n	8004c22 <HAL_COMP_Init+0x12a>
 8004b4c:	3304      	adds	r3, #4
 8004b4e:	429a      	cmp	r2, r3
 8004b50:	bf15      	itete	ne
 8004b52:	f06f 4280 	mvnne.w	r2, #1073741824	; 0x40000000
 8004b56:	f06f 5200 	mvneq.w	r2, #536870912	; 0x20000000
 8004b5a:	f04f 4180 	movne.w	r1, #1073741824	; 0x40000000
 8004b5e:	f04f 5100 	moveq.w	r1, #536870912	; 0x20000000
 8004b62:	69a3      	ldr	r3, [r4, #24]
 8004b64:	079f      	lsls	r7, r3, #30
 8004b66:	d025      	beq.n	8004bb4 <HAL_COMP_Init+0xbc>
 8004b68:	4d32      	ldr	r5, [pc, #200]	; (8004c34 <HAL_COMP_Init+0x13c>)
 8004b6a:	68a8      	ldr	r0, [r5, #8]
 8004b6c:	06de      	lsls	r6, r3, #27
 8004b6e:	bf4c      	ite	mi
 8004b70:	4308      	orrmi	r0, r1
 8004b72:	4010      	andpl	r0, r2
 8004b74:	60a8      	str	r0, [r5, #8]
 8004b76:	4d2f      	ldr	r5, [pc, #188]	; (8004c34 <HAL_COMP_Init+0x13c>)
 8004b78:	68e8      	ldr	r0, [r5, #12]
 8004b7a:	069f      	lsls	r7, r3, #26
 8004b7c:	bf4c      	ite	mi
 8004b7e:	4308      	orrmi	r0, r1
 8004b80:	4010      	andpl	r0, r2
 8004b82:	60e8      	str	r0, [r5, #12]
 8004b84:	482b      	ldr	r0, [pc, #172]	; (8004c34 <HAL_COMP_Init+0x13c>)
 8004b86:	6141      	str	r1, [r0, #20]
 8004b88:	6845      	ldr	r5, [r0, #4]
 8004b8a:	079e      	lsls	r6, r3, #30
 8004b8c:	bf4c      	ite	mi
 8004b8e:	430d      	orrmi	r5, r1
 8004b90:	4015      	andpl	r5, r2
 8004b92:	07db      	lsls	r3, r3, #31
 8004b94:	6045      	str	r5, [r0, #4]
 8004b96:	d51d      	bpl.n	8004bd4 <HAL_COMP_Init+0xdc>
 8004b98:	4b26      	ldr	r3, [pc, #152]	; (8004c34 <HAL_COMP_Init+0x13c>)
 8004b9a:	681a      	ldr	r2, [r3, #0]
 8004b9c:	4311      	orrs	r1, r2
 8004b9e:	6019      	str	r1, [r3, #0]
 8004ba0:	7f63      	ldrb	r3, [r4, #29]
 8004ba2:	f003 00ff 	and.w	r0, r3, #255	; 0xff
 8004ba6:	b18b      	cbz	r3, 8004bcc <HAL_COMP_Init+0xd4>
 8004ba8:	2000      	movs	r0, #0
 8004baa:	b003      	add	sp, #12
 8004bac:	bdf0      	pop	{r4, r5, r6, r7, pc}
 8004bae:	2001      	movs	r0, #1
 8004bb0:	b003      	add	sp, #12
 8004bb2:	bdf0      	pop	{r4, r5, r6, r7, pc}
 8004bb4:	4b1f      	ldr	r3, [pc, #124]	; (8004c34 <HAL_COMP_Init+0x13c>)
 8004bb6:	6859      	ldr	r1, [r3, #4]
 8004bb8:	4011      	ands	r1, r2
 8004bba:	6059      	str	r1, [r3, #4]
 8004bbc:	6819      	ldr	r1, [r3, #0]
 8004bbe:	400a      	ands	r2, r1
 8004bc0:	601a      	str	r2, [r3, #0]
 8004bc2:	7f63      	ldrb	r3, [r4, #29]
 8004bc4:	f003 00ff 	and.w	r0, r3, #255	; 0xff
 8004bc8:	2b00      	cmp	r3, #0
 8004bca:	d1ed      	bne.n	8004ba8 <HAL_COMP_Init+0xb0>
 8004bcc:	2301      	movs	r3, #1
 8004bce:	7763      	strb	r3, [r4, #29]
 8004bd0:	b003      	add	sp, #12
 8004bd2:	bdf0      	pop	{r4, r5, r6, r7, pc}
 8004bd4:	4917      	ldr	r1, [pc, #92]	; (8004c34 <HAL_COMP_Init+0x13c>)
 8004bd6:	680b      	ldr	r3, [r1, #0]
 8004bd8:	401a      	ands	r2, r3
 8004bda:	600a      	str	r2, [r1, #0]
 8004bdc:	e7f1      	b.n	8004bc2 <HAL_COMP_Init+0xca>
 8004bde:	4b16      	ldr	r3, [pc, #88]	; (8004c38 <HAL_COMP_Init+0x140>)
 8004be0:	4916      	ldr	r1, [pc, #88]	; (8004c3c <HAL_COMP_Init+0x144>)
 8004be2:	681b      	ldr	r3, [r3, #0]
 8004be4:	099b      	lsrs	r3, r3, #6
 8004be6:	fba1 1303 	umull	r1, r3, r1, r3
 8004bea:	099b      	lsrs	r3, r3, #6
 8004bec:	eb03 0383 	add.w	r3, r3, r3, lsl #2
 8004bf0:	009b      	lsls	r3, r3, #2
 8004bf2:	9301      	str	r3, [sp, #4]
 8004bf4:	9b01      	ldr	r3, [sp, #4]
 8004bf6:	2b00      	cmp	r3, #0
 8004bf8:	d0a2      	beq.n	8004b40 <HAL_COMP_Init+0x48>
 8004bfa:	9b01      	ldr	r3, [sp, #4]
 8004bfc:	3b01      	subs	r3, #1
 8004bfe:	9301      	str	r3, [sp, #4]
 8004c00:	9b01      	ldr	r3, [sp, #4]
 8004c02:	2b00      	cmp	r3, #0
 8004c04:	d1f9      	bne.n	8004bfa <HAL_COMP_Init+0x102>
 8004c06:	4b0a      	ldr	r3, [pc, #40]	; (8004c30 <HAL_COMP_Init+0x138>)
 8004c08:	429a      	cmp	r2, r3
 8004c0a:	d19c      	bne.n	8004b46 <HAL_COMP_Init+0x4e>
 8004c0c:	f46f 1200 	mvn.w	r2, #2097152	; 0x200000
 8004c10:	f44f 1100 	mov.w	r1, #2097152	; 0x200000
 8004c14:	e7a5      	b.n	8004b62 <HAL_COMP_Init+0x6a>
 8004c16:	7701      	strb	r1, [r0, #28]
 8004c18:	6201      	str	r1, [r0, #32]
 8004c1a:	f7fe f897 	bl	8002d4c <HAL_COMP_MspInit>
 8004c1e:	6822      	ldr	r2, [r4, #0]
 8004c20:	e77a      	b.n	8004b18 <HAL_COMP_Init+0x20>
 8004c22:	f46f 0280 	mvn.w	r2, #4194304	; 0x400000
 8004c26:	f44f 0180 	mov.w	r1, #4194304	; 0x400000
 8004c2a:	e79a      	b.n	8004b62 <HAL_COMP_Init+0x6a>
 8004c2c:	ff007e0f 	.word	0xff007e0f
 8004c30:	40010200 	.word	0x40010200
 8004c34:	40010400 	.word	0x40010400
 8004c38:	200005e0 	.word	0x200005e0
 8004c3c:	053e2d63 	.word	0x053e2d63

08004c40 <HAL_CORDIC_Init>:
 8004c40:	b1b0      	cbz	r0, 8004c70 <HAL_CORDIC_Init+0x30>
 8004c42:	f890 3021 	ldrb.w	r3, [r0, #33]	; 0x21
 8004c46:	b510      	push	{r4, lr}
 8004c48:	f003 02ff 	and.w	r2, r3, #255	; 0xff
 8004c4c:	4604      	mov	r4, r0
 8004c4e:	b153      	cbz	r3, 8004c66 <HAL_CORDIC_Init+0x26>
 8004c50:	2000      	movs	r0, #0
 8004c52:	2301      	movs	r3, #1
 8004c54:	6260      	str	r0, [r4, #36]	; 0x24
 8004c56:	e9c4 0001 	strd	r0, r0, [r4, #4]
 8004c5a:	e9c4 0003 	strd	r0, r0, [r4, #12]
 8004c5e:	6160      	str	r0, [r4, #20]
 8004c60:	f884 3021 	strb.w	r3, [r4, #33]	; 0x21
 8004c64:	bd10      	pop	{r4, pc}
 8004c66:	f880 2020 	strb.w	r2, [r0, #32]
 8004c6a:	f7fe f8d3 	bl	8002e14 <HAL_CORDIC_MspInit>
 8004c6e:	e7ef      	b.n	8004c50 <HAL_CORDIC_Init+0x10>
 8004c70:	2001      	movs	r0, #1
 8004c72:	4770      	bx	lr

08004c74 <HAL_NVIC_SetPriorityGrouping>:
 8004c74:	4a07      	ldr	r2, [pc, #28]	; (8004c94 <HAL_NVIC_SetPriorityGrouping+0x20>)
 8004c76:	68d3      	ldr	r3, [r2, #12]
 8004c78:	f64f 01ff 	movw	r1, #63743	; 0xf8ff
 8004c7c:	400b      	ands	r3, r1
 8004c7e:	0200      	lsls	r0, r0, #8
 8004c80:	f043 63bf 	orr.w	r3, r3, #100139008	; 0x5f80000
 8004c84:	f400 60e0 	and.w	r0, r0, #1792	; 0x700
 8004c88:	f443 3300 	orr.w	r3, r3, #131072	; 0x20000
 8004c8c:	4303      	orrs	r3, r0
 8004c8e:	60d3      	str	r3, [r2, #12]
 8004c90:	4770      	bx	lr
 8004c92:	bf00      	nop
 8004c94:	e000ed00 	.word	0xe000ed00

08004c98 <HAL_NVIC_SetPriority>:
 8004c98:	4b18      	ldr	r3, [pc, #96]	; (8004cfc <HAL_NVIC_SetPriority+0x64>)
 8004c9a:	68db      	ldr	r3, [r3, #12]
 8004c9c:	f3c3 2302 	ubfx	r3, r3, #8, #3
 8004ca0:	b430      	push	{r4, r5}
 8004ca2:	f1c3 0507 	rsb	r5, r3, #7
 8004ca6:	2d04      	cmp	r5, #4
 8004ca8:	f103 0404 	add.w	r4, r3, #4
 8004cac:	bf28      	it	cs
 8004cae:	2504      	movcs	r5, #4
 8004cb0:	2c06      	cmp	r4, #6
 8004cb2:	d919      	bls.n	8004ce8 <HAL_NVIC_SetPriority+0x50>
 8004cb4:	3b03      	subs	r3, #3
 8004cb6:	f04f 34ff 	mov.w	r4, #4294967295
 8004cba:	409c      	lsls	r4, r3
 8004cbc:	ea22 0404 	bic.w	r4, r2, r4
 8004cc0:	f04f 32ff 	mov.w	r2, #4294967295
 8004cc4:	40aa      	lsls	r2, r5
 8004cc6:	ea21 0102 	bic.w	r1, r1, r2
 8004cca:	fa01 f203 	lsl.w	r2, r1, r3
 8004cce:	4322      	orrs	r2, r4
 8004cd0:	0112      	lsls	r2, r2, #4
 8004cd2:	2800      	cmp	r0, #0
 8004cd4:	b2d2      	uxtb	r2, r2
 8004cd6:	db0a      	blt.n	8004cee <HAL_NVIC_SetPriority+0x56>
 8004cd8:	f100 4060 	add.w	r0, r0, #3758096384	; 0xe0000000
 8004cdc:	f500 4061 	add.w	r0, r0, #57600	; 0xe100
 8004ce0:	f880 2300 	strb.w	r2, [r0, #768]	; 0x300
 8004ce4:	bc30      	pop	{r4, r5}
 8004ce6:	4770      	bx	lr
 8004ce8:	2400      	movs	r4, #0
 8004cea:	4623      	mov	r3, r4
 8004cec:	e7e8      	b.n	8004cc0 <HAL_NVIC_SetPriority+0x28>
 8004cee:	4b04      	ldr	r3, [pc, #16]	; (8004d00 <HAL_NVIC_SetPriority+0x68>)
 8004cf0:	f000 000f 	and.w	r0, r0, #15
 8004cf4:	4403      	add	r3, r0
 8004cf6:	761a      	strb	r2, [r3, #24]
 8004cf8:	bc30      	pop	{r4, r5}
 8004cfa:	4770      	bx	lr
 8004cfc:	e000ed00 	.word	0xe000ed00
 8004d00:	e000ecfc 	.word	0xe000ecfc

08004d04 <HAL_NVIC_EnableIRQ>:
 8004d04:	2800      	cmp	r0, #0
 8004d06:	db07      	blt.n	8004d18 <HAL_NVIC_EnableIRQ+0x14>
 8004d08:	f000 011f 	and.w	r1, r0, #31
 8004d0c:	2301      	movs	r3, #1
 8004d0e:	0940      	lsrs	r0, r0, #5
 8004d10:	4a02      	ldr	r2, [pc, #8]	; (8004d1c <HAL_NVIC_EnableIRQ+0x18>)
 8004d12:	408b      	lsls	r3, r1
 8004d14:	f842 3020 	str.w	r3, [r2, r0, lsl #2]
 8004d18:	4770      	bx	lr
 8004d1a:	bf00      	nop
 8004d1c:	e000e100 	.word	0xe000e100

08004d20 <HAL_NVIC_DisableIRQ>:
 8004d20:	2800      	cmp	r0, #0
 8004d22:	db0d      	blt.n	8004d40 <HAL_NVIC_DisableIRQ+0x20>
 8004d24:	0943      	lsrs	r3, r0, #5
 8004d26:	3320      	adds	r3, #32
 8004d28:	2201      	movs	r2, #1
 8004d2a:	4906      	ldr	r1, [pc, #24]	; (8004d44 <HAL_NVIC_DisableIRQ+0x24>)
 8004d2c:	f000 001f 	and.w	r0, r0, #31
 8004d30:	fa02 f000 	lsl.w	r0, r2, r0
 8004d34:	f841 0023 	str.w	r0, [r1, r3, lsl #2]
 8004d38:	f3bf 8f4f 	dsb	sy
 8004d3c:	f3bf 8f6f 	isb	sy
 8004d40:	4770      	bx	lr
 8004d42:	bf00      	nop
 8004d44:	e000e100 	.word	0xe000e100

08004d48 <HAL_SYSTICK_Config>:
 8004d48:	3801      	subs	r0, #1
 8004d4a:	f1b0 7f80 	cmp.w	r0, #16777216	; 0x1000000
 8004d4e:	d20e      	bcs.n	8004d6e <HAL_SYSTICK_Config+0x26>
 8004d50:	4b08      	ldr	r3, [pc, #32]	; (8004d74 <HAL_SYSTICK_Config+0x2c>)
 8004d52:	b410      	push	{r4}
 8004d54:	4c08      	ldr	r4, [pc, #32]	; (8004d78 <HAL_SYSTICK_Config+0x30>)
 8004d56:	6058      	str	r0, [r3, #4]
 8004d58:	20f0      	movs	r0, #240	; 0xf0
 8004d5a:	f884 0023 	strb.w	r0, [r4, #35]	; 0x23
 8004d5e:	2200      	movs	r2, #0
 8004d60:	2107      	movs	r1, #7
 8004d62:	4610      	mov	r0, r2
 8004d64:	609a      	str	r2, [r3, #8]
 8004d66:	6019      	str	r1, [r3, #0]
 8004d68:	f85d 4b04 	ldr.w	r4, [sp], #4
 8004d6c:	4770      	bx	lr
 8004d6e:	2001      	movs	r0, #1
 8004d70:	4770      	bx	lr
 8004d72:	bf00      	nop
 8004d74:	e000e010 	.word	0xe000e010
 8004d78:	e000ed00 	.word	0xe000ed00

08004d7c <HAL_SYSTICK_Callback>:
 8004d7c:	4770      	bx	lr
 8004d7e:	bf00      	nop

08004d80 <HAL_SYSTICK_IRQHandler>:
 8004d80:	b508      	push	{r3, lr}
 8004d82:	f7ff fffb 	bl	8004d7c <HAL_SYSTICK_Callback>
 8004d86:	bd08      	pop	{r3, pc}

08004d88 <HAL_DAC_Init>:
 8004d88:	b188      	cbz	r0, 8004dae <HAL_DAC_Init+0x26>
 8004d8a:	7903      	ldrb	r3, [r0, #4]
 8004d8c:	b510      	push	{r4, lr}
 8004d8e:	f003 02ff 	and.w	r2, r3, #255	; 0xff
 8004d92:	4604      	mov	r4, r0
 8004d94:	b13b      	cbz	r3, 8004da6 <HAL_DAC_Init+0x1e>
 8004d96:	2300      	movs	r3, #0
 8004d98:	2102      	movs	r1, #2
 8004d9a:	2201      	movs	r2, #1
 8004d9c:	7121      	strb	r1, [r4, #4]
 8004d9e:	4618      	mov	r0, r3
 8004da0:	6123      	str	r3, [r4, #16]
 8004da2:	7122      	strb	r2, [r4, #4]
 8004da4:	bd10      	pop	{r4, pc}
 8004da6:	7142      	strb	r2, [r0, #5]
 8004da8:	f7fe f84c 	bl	8002e44 <HAL_DAC_MspInit>
 8004dac:	e7f3      	b.n	8004d96 <HAL_DAC_Init+0xe>
 8004dae:	2001      	movs	r0, #1
 8004db0:	4770      	bx	lr
 8004db2:	bf00      	nop

08004db4 <HAL_DAC_ConfigChannel>:
 8004db4:	7943      	ldrb	r3, [r0, #5]
 8004db6:	2b01      	cmp	r3, #1
 8004db8:	f000 80c4 	beq.w	8004f44 <HAL_DAC_ConfigChannel+0x190>
 8004dbc:	e92d 41f0 	stmdb	sp!, {r4, r5, r6, r7, r8, lr}
 8004dc0:	688f      	ldr	r7, [r1, #8]
 8004dc2:	4614      	mov	r4, r2
 8004dc4:	2302      	movs	r3, #2
 8004dc6:	2201      	movs	r2, #1
 8004dc8:	2f04      	cmp	r7, #4
 8004dca:	460e      	mov	r6, r1
 8004dcc:	4605      	mov	r5, r0
 8004dce:	7142      	strb	r2, [r0, #5]
 8004dd0:	7103      	strb	r3, [r0, #4]
 8004dd2:	d079      	beq.n	8004ec8 <HAL_DAC_ConfigChannel+0x114>
 8004dd4:	6803      	ldr	r3, [r0, #0]
 8004dd6:	f004 0410 	and.w	r4, r4, #16
 8004dda:	69f2      	ldr	r2, [r6, #28]
 8004ddc:	2a01      	cmp	r2, #1
 8004dde:	d069      	beq.n	8004eb4 <HAL_DAC_ConfigChannel+0x100>
 8004de0:	e9d6 c005 	ldrd	ip, r0, [r6, #20]
 8004de4:	6bda      	ldr	r2, [r3, #60]	; 0x3c
 8004de6:	2107      	movs	r1, #7
 8004de8:	40a1      	lsls	r1, r4
 8004dea:	f422 4840 	bic.w	r8, r2, #49152	; 0xc000
 8004dee:	07c2      	lsls	r2, r0, #31
 8004df0:	ea6f 0101 	mvn.w	r1, r1
 8004df4:	d55a      	bpl.n	8004eac <HAL_DAC_ConfigChannel+0xf8>
 8004df6:	2000      	movs	r0, #0
 8004df8:	f44f 7280 	mov.w	r2, #256	; 0x100
 8004dfc:	ea47 070c 	orr.w	r7, r7, ip
 8004e00:	40a2      	lsls	r2, r4
 8004e02:	f896 c004 	ldrb.w	ip, [r6, #4]
 8004e06:	4307      	orrs	r7, r0
 8004e08:	ea01 0108 	and.w	r1, r1, r8
 8004e0c:	43d2      	mvns	r2, r2
 8004e0e:	7970      	ldrb	r0, [r6, #5]
 8004e10:	f1bc 0f01 	cmp.w	ip, #1
 8004e14:	ea02 0201 	and.w	r2, r2, r1
 8004e18:	f44f 7800 	mov.w	r8, #512	; 0x200
 8004e1c:	6831      	ldr	r1, [r6, #0]
 8004e1e:	bf08      	it	eq
 8004e20:	f447 7780 	orreq.w	r7, r7, #256	; 0x100
 8004e24:	fa08 f804 	lsl.w	r8, r8, r4
 8004e28:	2801      	cmp	r0, #1
 8004e2a:	ea6f 0808 	mvn.w	r8, r8
 8004e2e:	bf08      	it	eq
 8004e30:	f447 7700 	orreq.w	r7, r7, #512	; 0x200
 8004e34:	2902      	cmp	r1, #2
 8004e36:	ea08 0802 	and.w	r8, r8, r2
 8004e3a:	f000 8085 	beq.w	8004f48 <HAL_DAC_ConfigChannel+0x194>
 8004e3e:	ea48 0801 	orr.w	r8, r8, r1
 8004e42:	40a7      	lsls	r7, r4
 8004e44:	ea47 0708 	orr.w	r7, r7, r8
 8004e48:	63df      	str	r7, [r3, #60]	; 0x3c
 8004e4a:	6818      	ldr	r0, [r3, #0]
 8004e4c:	e9d6 1203 	ldrd	r1, r2, [r6, #12]
 8004e50:	f44f 4680 	mov.w	r6, #16384	; 0x4000
 8004e54:	40a6      	lsls	r6, r4
 8004e56:	ea20 0006 	bic.w	r0, r0, r6
 8004e5a:	6018      	str	r0, [r3, #0]
 8004e5c:	6818      	ldr	r0, [r3, #0]
 8004e5e:	f640 76fe 	movw	r6, #4094	; 0xffe
 8004e62:	40a6      	lsls	r6, r4
 8004e64:	ea20 0606 	bic.w	r6, r0, r6
 8004e68:	fa01 f004 	lsl.w	r0, r1, r4
 8004e6c:	4330      	orrs	r0, r6
 8004e6e:	6018      	str	r0, [r3, #0]
 8004e70:	6818      	ldr	r0, [r3, #0]
 8004e72:	26c0      	movs	r6, #192	; 0xc0
 8004e74:	40a6      	lsls	r6, r4
 8004e76:	ea20 0006 	bic.w	r0, r0, r6
 8004e7a:	6018      	str	r0, [r3, #0]
 8004e7c:	0192      	lsls	r2, r2, #6
 8004e7e:	6e18      	ldr	r0, [r3, #96]	; 0x60
 8004e80:	f3c1 0183 	ubfx	r1, r1, #2, #4
 8004e84:	f640 760f 	movw	r6, #3855	; 0xf0f
 8004e88:	f402 6270 	and.w	r2, r2, #3840	; 0xf00
 8004e8c:	430a      	orrs	r2, r1
 8004e8e:	fa06 f104 	lsl.w	r1, r6, r4
 8004e92:	fa02 f404 	lsl.w	r4, r2, r4
 8004e96:	ea20 0201 	bic.w	r2, r0, r1
 8004e9a:	4314      	orrs	r4, r2
 8004e9c:	2101      	movs	r1, #1
 8004e9e:	2200      	movs	r2, #0
 8004ea0:	661c      	str	r4, [r3, #96]	; 0x60
 8004ea2:	4610      	mov	r0, r2
 8004ea4:	7129      	strb	r1, [r5, #4]
 8004ea6:	716a      	strb	r2, [r5, #5]
 8004ea8:	e8bd 81f0 	ldmia.w	sp!, {r4, r5, r6, r7, r8, pc}
 8004eac:	0782      	lsls	r2, r0, #30
 8004eae:	d545      	bpl.n	8004f3c <HAL_DAC_ConfigChannel+0x188>
 8004eb0:	2001      	movs	r0, #1
 8004eb2:	e7a1      	b.n	8004df8 <HAL_DAC_ConfigChannel+0x44>
 8004eb4:	6b99      	ldr	r1, [r3, #56]	; 0x38
 8004eb6:	6a32      	ldr	r2, [r6, #32]
 8004eb8:	201f      	movs	r0, #31
 8004eba:	40a0      	lsls	r0, r4
 8004ebc:	ea21 0100 	bic.w	r1, r1, r0
 8004ec0:	40a2      	lsls	r2, r4
 8004ec2:	430a      	orrs	r2, r1
 8004ec4:	639a      	str	r2, [r3, #56]	; 0x38
 8004ec6:	e78b      	b.n	8004de0 <HAL_DAC_ConfigChannel+0x2c>
 8004ec8:	b9bc      	cbnz	r4, 8004efa <HAL_DAC_ConfigChannel+0x146>
 8004eca:	f7fe ffcf 	bl	8003e6c <HAL_GetTick>
 8004ece:	4607      	mov	r7, r0
 8004ed0:	e004      	b.n	8004edc <HAL_DAC_ConfigChannel+0x128>
 8004ed2:	f7fe ffcb 	bl	8003e6c <HAL_GetTick>
 8004ed6:	1bc0      	subs	r0, r0, r7
 8004ed8:	2801      	cmp	r0, #1
 8004eda:	d83e      	bhi.n	8004f5a <HAL_DAC_ConfigChannel+0x1a6>
 8004edc:	682b      	ldr	r3, [r5, #0]
 8004ede:	6b5b      	ldr	r3, [r3, #52]	; 0x34
 8004ee0:	0419      	lsls	r1, r3, #16
 8004ee2:	d4f6      	bmi.n	8004ed2 <HAL_DAC_ConfigChannel+0x11e>
 8004ee4:	2001      	movs	r0, #1
 8004ee6:	f7fe ffc7 	bl	8003e78 <HAL_Delay>
 8004eea:	682b      	ldr	r3, [r5, #0]
 8004eec:	6a72      	ldr	r2, [r6, #36]	; 0x24
 8004eee:	641a      	str	r2, [r3, #64]	; 0x40
 8004ef0:	e00d      	b.n	8004f0e <HAL_DAC_ConfigChannel+0x15a>
 8004ef2:	f7fe ffbb 	bl	8003e6c <HAL_GetTick>
 8004ef6:	2801      	cmp	r0, #1
 8004ef8:	d82f      	bhi.n	8004f5a <HAL_DAC_ConfigChannel+0x1a6>
 8004efa:	682b      	ldr	r3, [r5, #0]
 8004efc:	6b5b      	ldr	r3, [r3, #52]	; 0x34
 8004efe:	2b00      	cmp	r3, #0
 8004f00:	dbf7      	blt.n	8004ef2 <HAL_DAC_ConfigChannel+0x13e>
 8004f02:	2001      	movs	r0, #1
 8004f04:	f7fe ffb8 	bl	8003e78 <HAL_Delay>
 8004f08:	682b      	ldr	r3, [r5, #0]
 8004f0a:	6a72      	ldr	r2, [r6, #36]	; 0x24
 8004f0c:	645a      	str	r2, [r3, #68]	; 0x44
 8004f0e:	f004 0410 	and.w	r4, r4, #16
 8004f12:	6c9a      	ldr	r2, [r3, #72]	; 0x48
 8004f14:	6ab1      	ldr	r1, [r6, #40]	; 0x28
 8004f16:	68b7      	ldr	r7, [r6, #8]
 8004f18:	f240 30ff 	movw	r0, #1023	; 0x3ff
 8004f1c:	40a0      	lsls	r0, r4
 8004f1e:	ea22 0200 	bic.w	r2, r2, r0
 8004f22:	40a1      	lsls	r1, r4
 8004f24:	430a      	orrs	r2, r1
 8004f26:	649a      	str	r2, [r3, #72]	; 0x48
 8004f28:	6cda      	ldr	r2, [r3, #76]	; 0x4c
 8004f2a:	6af1      	ldr	r1, [r6, #44]	; 0x2c
 8004f2c:	20ff      	movs	r0, #255	; 0xff
 8004f2e:	40a0      	lsls	r0, r4
 8004f30:	ea22 0200 	bic.w	r2, r2, r0
 8004f34:	40a1      	lsls	r1, r4
 8004f36:	430a      	orrs	r2, r1
 8004f38:	64da      	str	r2, [r3, #76]	; 0x4c
 8004f3a:	e74e      	b.n	8004dda <HAL_DAC_ConfigChannel+0x26>
 8004f3c:	fabc f08c 	clz	r0, ip
 8004f40:	0940      	lsrs	r0, r0, #5
 8004f42:	e759      	b.n	8004df8 <HAL_DAC_ConfigChannel+0x44>
 8004f44:	2002      	movs	r0, #2
 8004f46:	4770      	bx	lr
 8004f48:	f001 fd38 	bl	80069bc <HAL_RCC_GetHCLKFreq>
 8004f4c:	4b0b      	ldr	r3, [pc, #44]	; (8004f7c <HAL_DAC_ConfigChannel+0x1c8>)
 8004f4e:	4298      	cmp	r0, r3
 8004f50:	d90c      	bls.n	8004f6c <HAL_DAC_ConfigChannel+0x1b8>
 8004f52:	f448 4800 	orr.w	r8, r8, #32768	; 0x8000
 8004f56:	682b      	ldr	r3, [r5, #0]
 8004f58:	e773      	b.n	8004e42 <HAL_DAC_ConfigChannel+0x8e>
 8004f5a:	692b      	ldr	r3, [r5, #16]
 8004f5c:	2203      	movs	r2, #3
 8004f5e:	f043 0308 	orr.w	r3, r3, #8
 8004f62:	612b      	str	r3, [r5, #16]
 8004f64:	4610      	mov	r0, r2
 8004f66:	712a      	strb	r2, [r5, #4]
 8004f68:	e8bd 81f0 	ldmia.w	sp!, {r4, r5, r6, r7, r8, pc}
 8004f6c:	4a04      	ldr	r2, [pc, #16]	; (8004f80 <HAL_DAC_ConfigChannel+0x1cc>)
 8004f6e:	682b      	ldr	r3, [r5, #0]
 8004f70:	4290      	cmp	r0, r2
 8004f72:	f67f af66 	bls.w	8004e42 <HAL_DAC_ConfigChannel+0x8e>
 8004f76:	f448 4880 	orr.w	r8, r8, #16384	; 0x4000
 8004f7a:	e762      	b.n	8004e42 <HAL_DAC_ConfigChannel+0x8e>
 8004f7c:	09896800 	.word	0x09896800
 8004f80:	04c4b400 	.word	0x04c4b400

08004f84 <HAL_DMA_Init>:
 8004f84:	2800      	cmp	r0, #0
 8004f86:	d07c      	beq.n	8005082 <HAL_DMA_Init+0xfe>
 8004f88:	4603      	mov	r3, r0
 8004f8a:	4a3f      	ldr	r2, [pc, #252]	; (8005088 <HAL_DMA_Init+0x104>)
 8004f8c:	6800      	ldr	r0, [r0, #0]
 8004f8e:	4290      	cmp	r0, r2
 8004f90:	e92d 41f0 	stmdb	sp!, {r4, r5, r6, r7, r8, lr}
 8004f94:	d961      	bls.n	800505a <HAL_DMA_Init+0xd6>
 8004f96:	493d      	ldr	r1, [pc, #244]	; (800508c <HAL_DMA_Init+0x108>)
 8004f98:	4a3d      	ldr	r2, [pc, #244]	; (8005090 <HAL_DMA_Init+0x10c>)
 8004f9a:	4c3e      	ldr	r4, [pc, #248]	; (8005094 <HAL_DMA_Init+0x110>)
 8004f9c:	4401      	add	r1, r0
 8004f9e:	fba2 2101 	umull	r2, r1, r2, r1
 8004fa2:	0909      	lsrs	r1, r1, #4
 8004fa4:	0089      	lsls	r1, r1, #2
 8004fa6:	e9d3 7202 	ldrd	r7, r2, [r3, #8]
 8004faa:	691e      	ldr	r6, [r3, #16]
 8004fac:	641c      	str	r4, [r3, #64]	; 0x40
 8004fae:	433a      	orrs	r2, r7
 8004fb0:	695c      	ldr	r4, [r3, #20]
 8004fb2:	699d      	ldr	r5, [r3, #24]
 8004fb4:	f8df e0f4 	ldr.w	lr, [pc, #244]	; 80050ac <HAL_DMA_Init+0x128>
 8004fb8:	f8df 80cc 	ldr.w	r8, [pc, #204]	; 8005088 <HAL_DMA_Init+0x104>
 8004fbc:	4332      	orrs	r2, r6
 8004fbe:	f04f 0c02 	mov.w	ip, #2
 8004fc2:	4322      	orrs	r2, r4
 8004fc4:	f883 c025 	strb.w	ip, [r3, #37]	; 0x25
 8004fc8:	4c31      	ldr	r4, [pc, #196]	; (8005090 <HAL_DMA_Init+0x10c>)
 8004fca:	f8d0 c000 	ldr.w	ip, [r0]
 8004fce:	69de      	ldr	r6, [r3, #28]
 8004fd0:	6459      	str	r1, [r3, #68]	; 0x44
 8004fd2:	432a      	orrs	r2, r5
 8004fd4:	b2c5      	uxtb	r5, r0
 8004fd6:	3d08      	subs	r5, #8
 8004fd8:	fba4 4505 	umull	r4, r5, r4, r5
 8004fdc:	6a1c      	ldr	r4, [r3, #32]
 8004fde:	4332      	orrs	r2, r6
 8004fe0:	f42c 4cff 	bic.w	ip, ip, #32640	; 0x7f80
 8004fe4:	4e2c      	ldr	r6, [pc, #176]	; (8005098 <HAL_DMA_Init+0x114>)
 8004fe6:	4322      	orrs	r2, r4
 8004fe8:	f02c 0c70 	bic.w	ip, ip, #112	; 0x70
 8004fec:	f3c5 1404 	ubfx	r4, r5, #4, #5
 8004ff0:	4540      	cmp	r0, r8
 8004ff2:	bf98      	it	ls
 8004ff4:	4676      	movls	r6, lr
 8004ff6:	ea42 020c 	orr.w	r2, r2, ip
 8004ffa:	0889      	lsrs	r1, r1, #2
 8004ffc:	2501      	movs	r5, #1
 8004ffe:	f8df c0b0 	ldr.w	ip, [pc, #176]	; 80050b0 <HAL_DMA_Init+0x12c>
 8005002:	6002      	str	r2, [r0, #0]
 8005004:	fa05 f404 	lsl.w	r4, r5, r4
 8005008:	eb06 0e81 	add.w	lr, r6, r1, lsl #2
 800500c:	f5b7 4f80 	cmp.w	r7, #16384	; 0x4000
 8005010:	651c      	str	r4, [r3, #80]	; 0x50
 8005012:	e9c3 ec12 	strd	lr, ip, [r3, #72]	; 0x48
 8005016:	d029      	beq.n	800506c <HAL_DMA_Init+0xe8>
 8005018:	6858      	ldr	r0, [r3, #4]
 800501a:	b2c2      	uxtb	r2, r0
 800501c:	3801      	subs	r0, #1
 800501e:	2803      	cmp	r0, #3
 8005020:	f846 2021 	str.w	r2, [r6, r1, lsl #2]
 8005024:	f8cc 4004 	str.w	r4, [ip, #4]
 8005028:	d826      	bhi.n	8005078 <HAL_DMA_Init+0xf4>
 800502a:	491c      	ldr	r1, [pc, #112]	; (800509c <HAL_DMA_Init+0x118>)
 800502c:	481c      	ldr	r0, [pc, #112]	; (80050a0 <HAL_DMA_Init+0x11c>)
 800502e:	6598      	str	r0, [r3, #88]	; 0x58
 8005030:	4411      	add	r1, r2
 8005032:	3a01      	subs	r2, #1
 8005034:	0089      	lsls	r1, r1, #2
 8005036:	f002 021f 	and.w	r2, r2, #31
 800503a:	fa05 f202 	lsl.w	r2, r5, r2
 800503e:	2400      	movs	r4, #0
 8005040:	6559      	str	r1, [r3, #84]	; 0x54
 8005042:	65da      	str	r2, [r3, #92]	; 0x5c
 8005044:	600c      	str	r4, [r1, #0]
 8005046:	6042      	str	r2, [r0, #4]
 8005048:	2000      	movs	r0, #0
 800504a:	2201      	movs	r2, #1
 800504c:	63d8      	str	r0, [r3, #60]	; 0x3c
 800504e:	f883 0024 	strb.w	r0, [r3, #36]	; 0x24
 8005052:	f883 2025 	strb.w	r2, [r3, #37]	; 0x25
 8005056:	e8bd 81f0 	ldmia.w	sp!, {r4, r5, r6, r7, r8, pc}
 800505a:	4912      	ldr	r1, [pc, #72]	; (80050a4 <HAL_DMA_Init+0x120>)
 800505c:	4a0c      	ldr	r2, [pc, #48]	; (8005090 <HAL_DMA_Init+0x10c>)
 800505e:	4c12      	ldr	r4, [pc, #72]	; (80050a8 <HAL_DMA_Init+0x124>)
 8005060:	4401      	add	r1, r0
 8005062:	fba2 2101 	umull	r2, r1, r2, r1
 8005066:	0909      	lsrs	r1, r1, #4
 8005068:	0089      	lsls	r1, r1, #2
 800506a:	e79c      	b.n	8004fa6 <HAL_DMA_Init+0x22>
 800506c:	2200      	movs	r2, #0
 800506e:	605a      	str	r2, [r3, #4]
 8005070:	f846 2021 	str.w	r2, [r6, r1, lsl #2]
 8005074:	f8cc 4004 	str.w	r4, [ip, #4]
 8005078:	2200      	movs	r2, #0
 800507a:	e9c3 2215 	strd	r2, r2, [r3, #84]	; 0x54
 800507e:	65da      	str	r2, [r3, #92]	; 0x5c
 8005080:	e7e2      	b.n	8005048 <HAL_DMA_Init+0xc4>
 8005082:	2001      	movs	r0, #1
 8005084:	4770      	bx	lr
 8005086:	bf00      	nop
 8005088:	40020407 	.word	0x40020407
 800508c:	bffdfbf8 	.word	0xbffdfbf8
 8005090:	cccccccd 	.word	0xcccccccd
 8005094:	40020400 	.word	0x40020400
 8005098:	40020820 	.word	0x40020820
 800509c:	1000823f 	.word	0x1000823f
 80050a0:	40020940 	.word	0x40020940
 80050a4:	bffdfff8 	.word	0xbffdfff8
 80050a8:	40020000 	.word	0x40020000
 80050ac:	40020800 	.word	0x40020800
 80050b0:	40020880 	.word	0x40020880

080050b4 <HAL_DMA_DeInit>:
 80050b4:	2800      	cmp	r0, #0
 80050b6:	d060      	beq.n	800517a <HAL_DMA_DeInit+0xc6>
 80050b8:	6803      	ldr	r3, [r0, #0]
 80050ba:	4931      	ldr	r1, [pc, #196]	; (8005180 <HAL_DMA_DeInit+0xcc>)
 80050bc:	681a      	ldr	r2, [r3, #0]
 80050be:	428b      	cmp	r3, r1
 80050c0:	f022 0201 	bic.w	r2, r2, #1
 80050c4:	b4f0      	push	{r4, r5, r6, r7}
 80050c6:	601a      	str	r2, [r3, #0]
 80050c8:	d941      	bls.n	800514e <HAL_DMA_DeInit+0x9a>
 80050ca:	4a2e      	ldr	r2, [pc, #184]	; (8005184 <HAL_DMA_DeInit+0xd0>)
 80050cc:	492e      	ldr	r1, [pc, #184]	; (8005188 <HAL_DMA_DeInit+0xd4>)
 80050ce:	4c2f      	ldr	r4, [pc, #188]	; (800518c <HAL_DMA_DeInit+0xd8>)
 80050d0:	6404      	str	r4, [r0, #64]	; 0x40
 80050d2:	441a      	add	r2, r3
 80050d4:	fba1 1202 	umull	r1, r2, r1, r2
 80050d8:	0912      	lsrs	r2, r2, #4
 80050da:	0092      	lsls	r2, r2, #2
 80050dc:	f002 051f 	and.w	r5, r2, #31
 80050e0:	2101      	movs	r1, #1
 80050e2:	40a9      	lsls	r1, r5
 80050e4:	2600      	movs	r6, #0
 80050e6:	4d2a      	ldr	r5, [pc, #168]	; (8005190 <HAL_DMA_DeInit+0xdc>)
 80050e8:	6442      	str	r2, [r0, #68]	; 0x44
 80050ea:	601e      	str	r6, [r3, #0]
 80050ec:	6061      	str	r1, [r4, #4]
 80050ee:	4926      	ldr	r1, [pc, #152]	; (8005188 <HAL_DMA_DeInit+0xd4>)
 80050f0:	4c28      	ldr	r4, [pc, #160]	; (8005194 <HAL_DMA_DeInit+0xe0>)
 80050f2:	64c4      	str	r4, [r0, #76]	; 0x4c
 80050f4:	b2db      	uxtb	r3, r3
 80050f6:	3b08      	subs	r3, #8
 80050f8:	fba1 1303 	umull	r1, r3, r1, r3
 80050fc:	0892      	lsrs	r2, r2, #2
 80050fe:	f3c3 1304 	ubfx	r3, r3, #4, #5
 8005102:	2101      	movs	r1, #1
 8005104:	fa01 f303 	lsl.w	r3, r1, r3
 8005108:	eb05 0782 	add.w	r7, r5, r2, lsl #2
 800510c:	2600      	movs	r6, #0
 800510e:	6503      	str	r3, [r0, #80]	; 0x50
 8005110:	6487      	str	r7, [r0, #72]	; 0x48
 8005112:	f845 6022 	str.w	r6, [r5, r2, lsl #2]
 8005116:	6063      	str	r3, [r4, #4]
 8005118:	6844      	ldr	r4, [r0, #4]
 800511a:	1e62      	subs	r2, r4, #1
 800511c:	2a03      	cmp	r2, #3
 800511e:	d806      	bhi.n	800512e <HAL_DMA_DeInit+0x7a>
 8005120:	4b1d      	ldr	r3, [pc, #116]	; (8005198 <HAL_DMA_DeInit+0xe4>)
 8005122:	4423      	add	r3, r4
 8005124:	009b      	lsls	r3, r3, #2
 8005126:	4c1d      	ldr	r4, [pc, #116]	; (800519c <HAL_DMA_DeInit+0xe8>)
 8005128:	601e      	str	r6, [r3, #0]
 800512a:	4091      	lsls	r1, r2
 800512c:	6061      	str	r1, [r4, #4]
 800512e:	2300      	movs	r3, #0
 8005130:	63c3      	str	r3, [r0, #60]	; 0x3c
 8005132:	e9c0 3315 	strd	r3, r3, [r0, #84]	; 0x54
 8005136:	65c3      	str	r3, [r0, #92]	; 0x5c
 8005138:	e9c0 330b 	strd	r3, r3, [r0, #44]	; 0x2c
 800513c:	e9c0 330d 	strd	r3, r3, [r0, #52]	; 0x34
 8005140:	f880 3025 	strb.w	r3, [r0, #37]	; 0x25
 8005144:	f880 3024 	strb.w	r3, [r0, #36]	; 0x24
 8005148:	bcf0      	pop	{r4, r5, r6, r7}
 800514a:	4618      	mov	r0, r3
 800514c:	4770      	bx	lr
 800514e:	4a14      	ldr	r2, [pc, #80]	; (80051a0 <HAL_DMA_DeInit+0xec>)
 8005150:	490d      	ldr	r1, [pc, #52]	; (8005188 <HAL_DMA_DeInit+0xd4>)
 8005152:	4c14      	ldr	r4, [pc, #80]	; (80051a4 <HAL_DMA_DeInit+0xf0>)
 8005154:	6404      	str	r4, [r0, #64]	; 0x40
 8005156:	441a      	add	r2, r3
 8005158:	fba1 1202 	umull	r1, r2, r1, r2
 800515c:	0912      	lsrs	r2, r2, #4
 800515e:	0092      	lsls	r2, r2, #2
 8005160:	f002 051f 	and.w	r5, r2, #31
 8005164:	2101      	movs	r1, #1
 8005166:	40a9      	lsls	r1, r5
 8005168:	2500      	movs	r5, #0
 800516a:	6442      	str	r2, [r0, #68]	; 0x44
 800516c:	601d      	str	r5, [r3, #0]
 800516e:	f105 4580 	add.w	r5, r5, #1073741824	; 0x40000000
 8005172:	f505 3502 	add.w	r5, r5, #133120	; 0x20800
 8005176:	6061      	str	r1, [r4, #4]
 8005178:	e7b9      	b.n	80050ee <HAL_DMA_DeInit+0x3a>
 800517a:	2001      	movs	r0, #1
 800517c:	4770      	bx	lr
 800517e:	bf00      	nop
 8005180:	40020407 	.word	0x40020407
 8005184:	bffdfbf8 	.word	0xbffdfbf8
 8005188:	cccccccd 	.word	0xcccccccd
 800518c:	40020400 	.word	0x40020400
 8005190:	40020820 	.word	0x40020820
 8005194:	40020880 	.word	0x40020880
 8005198:	1000823f 	.word	0x1000823f
 800519c:	40020940 	.word	0x40020940
 80051a0:	bffdfff8 	.word	0xbffdfff8
 80051a4:	40020000 	.word	0x40020000

080051a8 <HAL_DMA_Start_IT>:
 80051a8:	b4f0      	push	{r4, r5, r6, r7}
 80051aa:	f890 4024 	ldrb.w	r4, [r0, #36]	; 0x24
 80051ae:	2c01      	cmp	r4, #1
 80051b0:	d04a      	beq.n	8005248 <HAL_DMA_Start_IT+0xa0>
 80051b2:	f890 4025 	ldrb.w	r4, [r0, #37]	; 0x25
 80051b6:	2501      	movs	r5, #1
 80051b8:	42ac      	cmp	r4, r5
 80051ba:	f880 5024 	strb.w	r5, [r0, #36]	; 0x24
 80051be:	d13d      	bne.n	800523c <HAL_DMA_Start_IT+0x94>
 80051c0:	6804      	ldr	r4, [r0, #0]
 80051c2:	6cc7      	ldr	r7, [r0, #76]	; 0x4c
 80051c4:	2602      	movs	r6, #2
 80051c6:	2500      	movs	r5, #0
 80051c8:	f880 6025 	strb.w	r6, [r0, #37]	; 0x25
 80051cc:	63c5      	str	r5, [r0, #60]	; 0x3c
 80051ce:	6826      	ldr	r6, [r4, #0]
 80051d0:	e9d0 c514 	ldrd	ip, r5, [r0, #80]	; 0x50
 80051d4:	f026 0601 	bic.w	r6, r6, #1
 80051d8:	6026      	str	r6, [r4, #0]
 80051da:	f8c7 c004 	str.w	ip, [r7, #4]
 80051de:	b115      	cbz	r5, 80051e6 <HAL_DMA_Start_IT+0x3e>
 80051e0:	e9d0 6716 	ldrd	r6, r7, [r0, #88]	; 0x58
 80051e4:	6077      	str	r7, [r6, #4]
 80051e6:	6c46      	ldr	r6, [r0, #68]	; 0x44
 80051e8:	f8d0 c008 	ldr.w	ip, [r0, #8]
 80051ec:	f006 071f 	and.w	r7, r6, #31
 80051f0:	2601      	movs	r6, #1
 80051f2:	40be      	lsls	r6, r7
 80051f4:	6c07      	ldr	r7, [r0, #64]	; 0x40
 80051f6:	607e      	str	r6, [r7, #4]
 80051f8:	6063      	str	r3, [r4, #4]
 80051fa:	6b03      	ldr	r3, [r0, #48]	; 0x30
 80051fc:	f1bc 0f10 	cmp.w	ip, #16
 8005200:	bf0b      	itete	eq
 8005202:	60a2      	streq	r2, [r4, #8]
 8005204:	60a1      	strne	r1, [r4, #8]
 8005206:	60e1      	streq	r1, [r4, #12]
 8005208:	60e2      	strne	r2, [r4, #12]
 800520a:	b303      	cbz	r3, 800524e <HAL_DMA_Start_IT+0xa6>
 800520c:	6823      	ldr	r3, [r4, #0]
 800520e:	f043 030e 	orr.w	r3, r3, #14
 8005212:	6023      	str	r3, [r4, #0]
 8005214:	6c83      	ldr	r3, [r0, #72]	; 0x48
 8005216:	681a      	ldr	r2, [r3, #0]
 8005218:	03d2      	lsls	r2, r2, #15
 800521a:	d503      	bpl.n	8005224 <HAL_DMA_Start_IT+0x7c>
 800521c:	681a      	ldr	r2, [r3, #0]
 800521e:	f442 7280 	orr.w	r2, r2, #256	; 0x100
 8005222:	601a      	str	r2, [r3, #0]
 8005224:	b11d      	cbz	r5, 800522e <HAL_DMA_Start_IT+0x86>
 8005226:	682b      	ldr	r3, [r5, #0]
 8005228:	f443 7380 	orr.w	r3, r3, #256	; 0x100
 800522c:	602b      	str	r3, [r5, #0]
 800522e:	6823      	ldr	r3, [r4, #0]
 8005230:	f043 0301 	orr.w	r3, r3, #1
 8005234:	6023      	str	r3, [r4, #0]
 8005236:	2000      	movs	r0, #0
 8005238:	bcf0      	pop	{r4, r5, r6, r7}
 800523a:	4770      	bx	lr
 800523c:	2300      	movs	r3, #0
 800523e:	f880 3024 	strb.w	r3, [r0, #36]	; 0x24
 8005242:	bcf0      	pop	{r4, r5, r6, r7}
 8005244:	2002      	movs	r0, #2
 8005246:	4770      	bx	lr
 8005248:	2002      	movs	r0, #2
 800524a:	bcf0      	pop	{r4, r5, r6, r7}
 800524c:	4770      	bx	lr
 800524e:	6823      	ldr	r3, [r4, #0]
 8005250:	f023 0304 	bic.w	r3, r3, #4
 8005254:	6023      	str	r3, [r4, #0]
 8005256:	6823      	ldr	r3, [r4, #0]
 8005258:	f043 030a 	orr.w	r3, r3, #10
 800525c:	6023      	str	r3, [r4, #0]
 800525e:	e7d9      	b.n	8005214 <HAL_DMA_Start_IT+0x6c>

08005260 <HAL_DMA_Abort>:
 8005260:	f890 2025 	ldrb.w	r2, [r0, #37]	; 0x25
 8005264:	2a02      	cmp	r2, #2
 8005266:	4603      	mov	r3, r0
 8005268:	d009      	beq.n	800527e <HAL_DMA_Abort+0x1e>
 800526a:	2204      	movs	r2, #4
 800526c:	63c2      	str	r2, [r0, #60]	; 0x3c
 800526e:	2101      	movs	r1, #1
 8005270:	2200      	movs	r2, #0
 8005272:	2001      	movs	r0, #1
 8005274:	f883 1025 	strb.w	r1, [r3, #37]	; 0x25
 8005278:	f883 2024 	strb.w	r2, [r3, #36]	; 0x24
 800527c:	4770      	bx	lr
 800527e:	6802      	ldr	r2, [r0, #0]
 8005280:	b470      	push	{r4, r5, r6}
 8005282:	6c84      	ldr	r4, [r0, #72]	; 0x48
 8005284:	6810      	ldr	r0, [r2, #0]
 8005286:	6cde      	ldr	r6, [r3, #76]	; 0x4c
 8005288:	f020 000e 	bic.w	r0, r0, #14
 800528c:	e9d3 5110 	ldrd	r5, r1, [r3, #64]	; 0x40
 8005290:	6010      	str	r0, [r2, #0]
 8005292:	6820      	ldr	r0, [r4, #0]
 8005294:	f420 7080 	bic.w	r0, r0, #256	; 0x100
 8005298:	6020      	str	r0, [r4, #0]
 800529a:	6814      	ldr	r4, [r2, #0]
 800529c:	6d58      	ldr	r0, [r3, #84]	; 0x54
 800529e:	f024 0401 	bic.w	r4, r4, #1
 80052a2:	6014      	str	r4, [r2, #0]
 80052a4:	f001 011f 	and.w	r1, r1, #31
 80052a8:	2201      	movs	r2, #1
 80052aa:	408a      	lsls	r2, r1
 80052ac:	6d19      	ldr	r1, [r3, #80]	; 0x50
 80052ae:	606a      	str	r2, [r5, #4]
 80052b0:	6071      	str	r1, [r6, #4]
 80052b2:	b138      	cbz	r0, 80052c4 <HAL_DMA_Abort+0x64>
 80052b4:	6802      	ldr	r2, [r0, #0]
 80052b6:	e9d3 1416 	ldrd	r1, r4, [r3, #88]	; 0x58
 80052ba:	f422 7280 	bic.w	r2, r2, #256	; 0x100
 80052be:	6002      	str	r2, [r0, #0]
 80052c0:	2000      	movs	r0, #0
 80052c2:	604c      	str	r4, [r1, #4]
 80052c4:	2101      	movs	r1, #1
 80052c6:	2200      	movs	r2, #0
 80052c8:	f883 1025 	strb.w	r1, [r3, #37]	; 0x25
 80052cc:	f883 2024 	strb.w	r2, [r3, #36]	; 0x24
 80052d0:	bc70      	pop	{r4, r5, r6}
 80052d2:	4770      	bx	lr

080052d4 <HAL_DMA_IRQHandler>:
 80052d4:	b470      	push	{r4, r5, r6}
 80052d6:	e9d0 6310 	ldrd	r6, r3, [r0, #64]	; 0x40
 80052da:	2204      	movs	r2, #4
 80052dc:	6831      	ldr	r1, [r6, #0]
 80052de:	6805      	ldr	r5, [r0, #0]
 80052e0:	f003 031f 	and.w	r3, r3, #31
 80052e4:	409a      	lsls	r2, r3
 80052e6:	420a      	tst	r2, r1
 80052e8:	682c      	ldr	r4, [r5, #0]
 80052ea:	d00a      	beq.n	8005302 <HAL_DMA_IRQHandler+0x2e>
 80052ec:	f014 0f04 	tst.w	r4, #4
 80052f0:	d007      	beq.n	8005302 <HAL_DMA_IRQHandler+0x2e>
 80052f2:	682b      	ldr	r3, [r5, #0]
 80052f4:	069b      	lsls	r3, r3, #26
 80052f6:	d537      	bpl.n	8005368 <HAL_DMA_IRQHandler+0x94>
 80052f8:	6b03      	ldr	r3, [r0, #48]	; 0x30
 80052fa:	6072      	str	r2, [r6, #4]
 80052fc:	b1cb      	cbz	r3, 8005332 <HAL_DMA_IRQHandler+0x5e>
 80052fe:	bc70      	pop	{r4, r5, r6}
 8005300:	4718      	bx	r3
 8005302:	2202      	movs	r2, #2
 8005304:	409a      	lsls	r2, r3
 8005306:	420a      	tst	r2, r1
 8005308:	d015      	beq.n	8005336 <HAL_DMA_IRQHandler+0x62>
 800530a:	f014 0f02 	tst.w	r4, #2
 800530e:	d012      	beq.n	8005336 <HAL_DMA_IRQHandler+0x62>
 8005310:	682b      	ldr	r3, [r5, #0]
 8005312:	0699      	lsls	r1, r3, #26
 8005314:	d406      	bmi.n	8005324 <HAL_DMA_IRQHandler+0x50>
 8005316:	682b      	ldr	r3, [r5, #0]
 8005318:	2101      	movs	r1, #1
 800531a:	f023 030a 	bic.w	r3, r3, #10
 800531e:	602b      	str	r3, [r5, #0]
 8005320:	f880 1025 	strb.w	r1, [r0, #37]	; 0x25
 8005324:	6ac3      	ldr	r3, [r0, #44]	; 0x2c
 8005326:	6072      	str	r2, [r6, #4]
 8005328:	2200      	movs	r2, #0
 800532a:	f880 2024 	strb.w	r2, [r0, #36]	; 0x24
 800532e:	2b00      	cmp	r3, #0
 8005330:	d1e5      	bne.n	80052fe <HAL_DMA_IRQHandler+0x2a>
 8005332:	bc70      	pop	{r4, r5, r6}
 8005334:	4770      	bx	lr
 8005336:	2208      	movs	r2, #8
 8005338:	409a      	lsls	r2, r3
 800533a:	420a      	tst	r2, r1
 800533c:	d0f9      	beq.n	8005332 <HAL_DMA_IRQHandler+0x5e>
 800533e:	0722      	lsls	r2, r4, #28
 8005340:	d5f7      	bpl.n	8005332 <HAL_DMA_IRQHandler+0x5e>
 8005342:	682a      	ldr	r2, [r5, #0]
 8005344:	6b41      	ldr	r1, [r0, #52]	; 0x34
 8005346:	f022 020e 	bic.w	r2, r2, #14
 800534a:	602a      	str	r2, [r5, #0]
 800534c:	2201      	movs	r2, #1
 800534e:	fa02 f303 	lsl.w	r3, r2, r3
 8005352:	2400      	movs	r4, #0
 8005354:	6073      	str	r3, [r6, #4]
 8005356:	63c2      	str	r2, [r0, #60]	; 0x3c
 8005358:	f880 4024 	strb.w	r4, [r0, #36]	; 0x24
 800535c:	f880 2025 	strb.w	r2, [r0, #37]	; 0x25
 8005360:	2900      	cmp	r1, #0
 8005362:	d0e6      	beq.n	8005332 <HAL_DMA_IRQHandler+0x5e>
 8005364:	bc70      	pop	{r4, r5, r6}
 8005366:	4708      	bx	r1
 8005368:	682b      	ldr	r3, [r5, #0]
 800536a:	f023 0304 	bic.w	r3, r3, #4
 800536e:	602b      	str	r3, [r5, #0]
 8005370:	e7c2      	b.n	80052f8 <HAL_DMA_IRQHandler+0x24>
 8005372:	bf00      	nop

08005374 <HAL_DMA_GetError>:
 8005374:	6bc0      	ldr	r0, [r0, #60]	; 0x3c
 8005376:	4770      	bx	lr

08005378 <HAL_FDCAN_Init>:
 8005378:	2800      	cmp	r0, #0
 800537a:	f000 80d2 	beq.w	8005522 <HAL_FDCAN_Init+0x1aa>
 800537e:	b538      	push	{r3, r4, r5, lr}
 8005380:	f890 305c 	ldrb.w	r3, [r0, #92]	; 0x5c
 8005384:	4604      	mov	r4, r0
 8005386:	f003 02ff 	and.w	r2, r3, #255	; 0xff
 800538a:	2b00      	cmp	r3, #0
 800538c:	f000 80c4 	beq.w	8005518 <HAL_FDCAN_Init+0x1a0>
 8005390:	6822      	ldr	r2, [r4, #0]
 8005392:	6993      	ldr	r3, [r2, #24]
 8005394:	f023 0310 	bic.w	r3, r3, #16
 8005398:	6193      	str	r3, [r2, #24]
 800539a:	f7fe fd67 	bl	8003e6c <HAL_GetTick>
 800539e:	4605      	mov	r5, r0
 80053a0:	e005      	b.n	80053ae <HAL_FDCAN_Init+0x36>
 80053a2:	f7fe fd63 	bl	8003e6c <HAL_GetTick>
 80053a6:	1b40      	subs	r0, r0, r5
 80053a8:	280a      	cmp	r0, #10
 80053aa:	f200 80ac 	bhi.w	8005506 <HAL_FDCAN_Init+0x18e>
 80053ae:	6823      	ldr	r3, [r4, #0]
 80053b0:	699a      	ldr	r2, [r3, #24]
 80053b2:	0711      	lsls	r1, r2, #28
 80053b4:	d4f5      	bmi.n	80053a2 <HAL_FDCAN_Init+0x2a>
 80053b6:	699a      	ldr	r2, [r3, #24]
 80053b8:	f042 0201 	orr.w	r2, r2, #1
 80053bc:	619a      	str	r2, [r3, #24]
 80053be:	f7fe fd55 	bl	8003e6c <HAL_GetTick>
 80053c2:	4605      	mov	r5, r0
 80053c4:	e005      	b.n	80053d2 <HAL_FDCAN_Init+0x5a>
 80053c6:	f7fe fd51 	bl	8003e6c <HAL_GetTick>
 80053ca:	1b40      	subs	r0, r0, r5
 80053cc:	280a      	cmp	r0, #10
 80053ce:	f200 809a 	bhi.w	8005506 <HAL_FDCAN_Init+0x18e>
 80053d2:	6823      	ldr	r3, [r4, #0]
 80053d4:	699a      	ldr	r2, [r3, #24]
 80053d6:	07d2      	lsls	r2, r2, #31
 80053d8:	d5f5      	bpl.n	80053c6 <HAL_FDCAN_Init+0x4e>
 80053da:	699a      	ldr	r2, [r3, #24]
 80053dc:	4958      	ldr	r1, [pc, #352]	; (8005540 <HAL_FDCAN_Init+0x1c8>)
 80053de:	f042 0202 	orr.w	r2, r2, #2
 80053e2:	428b      	cmp	r3, r1
 80053e4:	619a      	str	r2, [r3, #24]
 80053e6:	f000 80a3 	beq.w	8005530 <HAL_FDCAN_Init+0x1b8>
 80053ea:	7c22      	ldrb	r2, [r4, #16]
 80053ec:	2a01      	cmp	r2, #1
 80053ee:	699a      	ldr	r2, [r3, #24]
 80053f0:	bf0c      	ite	eq
 80053f2:	f022 0240 	biceq.w	r2, r2, #64	; 0x40
 80053f6:	f042 0240 	orrne.w	r2, r2, #64	; 0x40
 80053fa:	619a      	str	r2, [r3, #24]
 80053fc:	7c62      	ldrb	r2, [r4, #17]
 80053fe:	2a01      	cmp	r2, #1
 8005400:	699a      	ldr	r2, [r3, #24]
 8005402:	bf0c      	ite	eq
 8005404:	f442 4280 	orreq.w	r2, r2, #16384	; 0x4000
 8005408:	f422 4280 	bicne.w	r2, r2, #16384	; 0x4000
 800540c:	619a      	str	r2, [r3, #24]
 800540e:	7ca2      	ldrb	r2, [r4, #18]
 8005410:	2a01      	cmp	r2, #1
 8005412:	699a      	ldr	r2, [r3, #24]
 8005414:	bf0c      	ite	eq
 8005416:	f422 5280 	biceq.w	r2, r2, #4096	; 0x1000
 800541a:	f442 5280 	orrne.w	r2, r2, #4096	; 0x1000
 800541e:	619a      	str	r2, [r3, #24]
 8005420:	699a      	ldr	r2, [r3, #24]
 8005422:	e9d4 5102 	ldrd	r5, r1, [r4, #8]
 8005426:	f422 7240 	bic.w	r2, r2, #768	; 0x300
 800542a:	432a      	orrs	r2, r5
 800542c:	619a      	str	r2, [r3, #24]
 800542e:	699a      	ldr	r2, [r3, #24]
 8005430:	f022 02a4 	bic.w	r2, r2, #164	; 0xa4
 8005434:	619a      	str	r2, [r3, #24]
 8005436:	691a      	ldr	r2, [r3, #16]
 8005438:	2901      	cmp	r1, #1
 800543a:	f022 0210 	bic.w	r2, r2, #16
 800543e:	611a      	str	r2, [r3, #16]
 8005440:	d071      	beq.n	8005526 <HAL_FDCAN_Init+0x1ae>
 8005442:	b179      	cbz	r1, 8005464 <HAL_FDCAN_Init+0xec>
 8005444:	2902      	cmp	r1, #2
 8005446:	699a      	ldr	r2, [r3, #24]
 8005448:	d076      	beq.n	8005538 <HAL_FDCAN_Init+0x1c0>
 800544a:	f042 0280 	orr.w	r2, r2, #128	; 0x80
 800544e:	619a      	str	r2, [r3, #24]
 8005450:	691a      	ldr	r2, [r3, #16]
 8005452:	2903      	cmp	r1, #3
 8005454:	f042 0210 	orr.w	r2, r2, #16
 8005458:	611a      	str	r2, [r3, #16]
 800545a:	d103      	bne.n	8005464 <HAL_FDCAN_Init+0xec>
 800545c:	699a      	ldr	r2, [r3, #24]
 800545e:	f042 0220 	orr.w	r2, r2, #32
 8005462:	619a      	str	r2, [r3, #24]
 8005464:	e9d4 1206 	ldrd	r1, r2, [r4, #24]
 8005468:	3a01      	subs	r2, #1
 800546a:	6a20      	ldr	r0, [r4, #32]
 800546c:	3901      	subs	r1, #1
 800546e:	0212      	lsls	r2, r2, #8
 8005470:	ea42 6241 	orr.w	r2, r2, r1, lsl #25
 8005474:	6961      	ldr	r1, [r4, #20]
 8005476:	3801      	subs	r0, #1
 8005478:	4302      	orrs	r2, r0
 800547a:	3901      	subs	r1, #1
 800547c:	ea42 4201 	orr.w	r2, r2, r1, lsl #16
 8005480:	f5b5 7f40 	cmp.w	r5, #768	; 0x300
 8005484:	61da      	str	r2, [r3, #28]
 8005486:	d10e      	bne.n	80054a6 <HAL_FDCAN_Init+0x12e>
 8005488:	e9d4 520b 	ldrd	r5, r2, [r4, #44]	; 0x2c
 800548c:	e9d4 1009 	ldrd	r1, r0, [r4, #36]	; 0x24
 8005490:	3a01      	subs	r2, #1
 8005492:	0112      	lsls	r2, r2, #4
 8005494:	3d01      	subs	r5, #1
 8005496:	ea42 2205 	orr.w	r2, r2, r5, lsl #8
 800549a:	3801      	subs	r0, #1
 800549c:	4302      	orrs	r2, r0
 800549e:	3901      	subs	r1, #1
 80054a0:	ea42 4201 	orr.w	r2, r2, r1, lsl #16
 80054a4:	60da      	str	r2, [r3, #12]
 80054a6:	f8d3 20c0 	ldr.w	r2, [r3, #192]	; 0xc0
 80054aa:	6be5      	ldr	r5, [r4, #60]	; 0x3c
 80054ac:	6b61      	ldr	r1, [r4, #52]	; 0x34
 80054ae:	4825      	ldr	r0, [pc, #148]	; (8005544 <HAL_FDCAN_Init+0x1cc>)
 80054b0:	432a      	orrs	r2, r5
 80054b2:	f8c3 20c0 	str.w	r2, [r3, #192]	; 0xc0
 80054b6:	f8d3 2080 	ldr.w	r2, [r3, #128]	; 0x80
 80054ba:	6420      	str	r0, [r4, #64]	; 0x40
 80054bc:	f422 12f8 	bic.w	r2, r2, #2031616	; 0x1f0000
 80054c0:	ea42 4201 	orr.w	r2, r2, r1, lsl #16
 80054c4:	f8c3 2080 	str.w	r2, [r3, #128]	; 0x80
 80054c8:	f8d3 2080 	ldr.w	r2, [r3, #128]	; 0x80
 80054cc:	6ba1      	ldr	r1, [r4, #56]	; 0x38
 80054ce:	4d1e      	ldr	r5, [pc, #120]	; (8005548 <HAL_FDCAN_Init+0x1d0>)
 80054d0:	6465      	str	r5, [r4, #68]	; 0x44
 80054d2:	f022 6270 	bic.w	r2, r2, #251658240	; 0xf000000
 80054d6:	ea42 6201 	orr.w	r2, r2, r1, lsl #24
 80054da:	f8c3 2080 	str.w	r2, [r3, #128]	; 0x80
 80054de:	491b      	ldr	r1, [pc, #108]	; (800554c <HAL_FDCAN_Init+0x1d4>)
 80054e0:	4b1b      	ldr	r3, [pc, #108]	; (8005550 <HAL_FDCAN_Init+0x1d8>)
 80054e2:	4a1c      	ldr	r2, [pc, #112]	; (8005554 <HAL_FDCAN_Init+0x1dc>)
 80054e4:	3540      	adds	r5, #64	; 0x40
 80054e6:	e9c4 2314 	strd	r2, r3, [r4, #80]	; 0x50
 80054ea:	e9c4 5112 	strd	r5, r1, [r4, #72]	; 0x48
 80054ee:	f44f 7254 	mov.w	r2, #848	; 0x350
 80054f2:	2100      	movs	r1, #0
 80054f4:	f005 fbf4 	bl	800ace0 <memset>
 80054f8:	2000      	movs	r0, #0
 80054fa:	2301      	movs	r3, #1
 80054fc:	6620      	str	r0, [r4, #96]	; 0x60
 80054fe:	65a0      	str	r0, [r4, #88]	; 0x58
 8005500:	f884 305c 	strb.w	r3, [r4, #92]	; 0x5c
 8005504:	bd38      	pop	{r3, r4, r5, pc}
 8005506:	6e23      	ldr	r3, [r4, #96]	; 0x60
 8005508:	2203      	movs	r2, #3
 800550a:	f043 0301 	orr.w	r3, r3, #1
 800550e:	6623      	str	r3, [r4, #96]	; 0x60
 8005510:	2001      	movs	r0, #1
 8005512:	f884 205c 	strb.w	r2, [r4, #92]	; 0x5c
 8005516:	bd38      	pop	{r3, r4, r5, pc}
 8005518:	f880 205d 	strb.w	r2, [r0, #93]	; 0x5d
 800551c:	f7fd fcc4 	bl	8002ea8 <HAL_FDCAN_MspInit>
 8005520:	e736      	b.n	8005390 <HAL_FDCAN_Init+0x18>
 8005522:	2001      	movs	r0, #1
 8005524:	4770      	bx	lr
 8005526:	699a      	ldr	r2, [r3, #24]
 8005528:	f042 0204 	orr.w	r2, r2, #4
 800552c:	619a      	str	r2, [r3, #24]
 800552e:	e799      	b.n	8005464 <HAL_FDCAN_Init+0xec>
 8005530:	4a09      	ldr	r2, [pc, #36]	; (8005558 <HAL_FDCAN_Init+0x1e0>)
 8005532:	6861      	ldr	r1, [r4, #4]
 8005534:	6011      	str	r1, [r2, #0]
 8005536:	e758      	b.n	80053ea <HAL_FDCAN_Init+0x72>
 8005538:	f042 0220 	orr.w	r2, r2, #32
 800553c:	619a      	str	r2, [r3, #24]
 800553e:	e791      	b.n	8005464 <HAL_FDCAN_Init+0xec>
 8005540:	40006400 	.word	0x40006400
 8005544:	4000a400 	.word	0x4000a400
 8005548:	4000a470 	.word	0x4000a470
 800554c:	4000a588 	.word	0x4000a588
 8005550:	4000a678 	.word	0x4000a678
 8005554:	4000a660 	.word	0x4000a660
 8005558:	40006500 	.word	0x40006500

0800555c <HAL_FDCAN_ConfigFilter>:
 800555c:	f890 305c 	ldrb.w	r3, [r0, #92]	; 0x5c
 8005560:	3b01      	subs	r3, #1
 8005562:	2b01      	cmp	r3, #1
 8005564:	d905      	bls.n	8005572 <HAL_FDCAN_ConfigFilter+0x16>
 8005566:	6e03      	ldr	r3, [r0, #96]	; 0x60
 8005568:	f043 0302 	orr.w	r3, r3, #2
 800556c:	6603      	str	r3, [r0, #96]	; 0x60
 800556e:	2001      	movs	r0, #1
 8005570:	4770      	bx	lr
 8005572:	688a      	ldr	r2, [r1, #8]
 8005574:	680b      	ldr	r3, [r1, #0]
 8005576:	b4f0      	push	{r4, r5, r6, r7}
 8005578:	0792      	lsls	r2, r2, #30
 800557a:	e9d1 6403 	ldrd	r6, r4, [r1, #12]
 800557e:	694d      	ldr	r5, [r1, #20]
 8005580:	6849      	ldr	r1, [r1, #4]
 8005582:	b15b      	cbz	r3, 800559c <HAL_FDCAN_ConfigFilter+0x40>
 8005584:	6c43      	ldr	r3, [r0, #68]	; 0x44
 8005586:	eb03 07c1 	add.w	r7, r3, r1, lsl #3
 800558a:	ea44 7446 	orr.w	r4, r4, r6, lsl #29
 800558e:	432a      	orrs	r2, r5
 8005590:	f843 4031 	str.w	r4, [r3, r1, lsl #3]
 8005594:	2000      	movs	r0, #0
 8005596:	607a      	str	r2, [r7, #4]
 8005598:	bcf0      	pop	{r4, r5, r6, r7}
 800559a:	4770      	bx	lr
 800559c:	ea42 62c6 	orr.w	r2, r2, r6, lsl #27
 80055a0:	432a      	orrs	r2, r5
 80055a2:	6c00      	ldr	r0, [r0, #64]	; 0x40
 80055a4:	ea42 4204 	orr.w	r2, r2, r4, lsl #16
 80055a8:	f840 2021 	str.w	r2, [r0, r1, lsl #2]
 80055ac:	bcf0      	pop	{r4, r5, r6, r7}
 80055ae:	4618      	mov	r0, r3
 80055b0:	4770      	bx	lr
 80055b2:	bf00      	nop

080055b4 <HAL_FDCAN_ConfigGlobalFilter>:
 80055b4:	b410      	push	{r4}
 80055b6:	f890 405c 	ldrb.w	r4, [r0, #92]	; 0x5c
 80055ba:	2c01      	cmp	r4, #1
 80055bc:	d007      	beq.n	80055ce <HAL_FDCAN_ConfigGlobalFilter+0x1a>
 80055be:	6e03      	ldr	r3, [r0, #96]	; 0x60
 80055c0:	f85d 4b04 	ldr.w	r4, [sp], #4
 80055c4:	f043 0304 	orr.w	r3, r3, #4
 80055c8:	6603      	str	r3, [r0, #96]	; 0x60
 80055ca:	2001      	movs	r0, #1
 80055cc:	4770      	bx	lr
 80055ce:	6804      	ldr	r4, [r0, #0]
 80055d0:	9801      	ldr	r0, [sp, #4]
 80055d2:	ea40 0343 	orr.w	r3, r0, r3, lsl #1
 80055d6:	f8d4 0080 	ldr.w	r0, [r4, #128]	; 0x80
 80055da:	ea43 0282 	orr.w	r2, r3, r2, lsl #2
 80055de:	ea42 1101 	orr.w	r1, r2, r1, lsl #4
 80055e2:	f020 023f 	bic.w	r2, r0, #63	; 0x3f
 80055e6:	4311      	orrs	r1, r2
 80055e8:	f8c4 1080 	str.w	r1, [r4, #128]	; 0x80
 80055ec:	2000      	movs	r0, #0
 80055ee:	f85d 4b04 	ldr.w	r4, [sp], #4
 80055f2:	4770      	bx	lr

080055f4 <HAL_FDCAN_Start>:
 80055f4:	f890 205c 	ldrb.w	r2, [r0, #92]	; 0x5c
 80055f8:	2a01      	cmp	r2, #1
 80055fa:	4603      	mov	r3, r0
 80055fc:	d005      	beq.n	800560a <HAL_FDCAN_Start+0x16>
 80055fe:	6e02      	ldr	r2, [r0, #96]	; 0x60
 8005600:	f042 0204 	orr.w	r2, r2, #4
 8005604:	6602      	str	r2, [r0, #96]	; 0x60
 8005606:	2001      	movs	r0, #1
 8005608:	4770      	bx	lr
 800560a:	6800      	ldr	r0, [r0, #0]
 800560c:	2202      	movs	r2, #2
 800560e:	f883 205c 	strb.w	r2, [r3, #92]	; 0x5c
 8005612:	6982      	ldr	r2, [r0, #24]
 8005614:	2100      	movs	r1, #0
 8005616:	f022 0201 	bic.w	r2, r2, #1
 800561a:	6182      	str	r2, [r0, #24]
 800561c:	4608      	mov	r0, r1
 800561e:	6619      	str	r1, [r3, #96]	; 0x60
 8005620:	4770      	bx	lr
 8005622:	bf00      	nop

08005624 <HAL_FDCAN_AddMessageToTxFifoQ>:
 8005624:	f890 305c 	ldrb.w	r3, [r0, #92]	; 0x5c
 8005628:	2b02      	cmp	r3, #2
 800562a:	d006      	beq.n	800563a <HAL_FDCAN_AddMessageToTxFifoQ+0x16>
 800562c:	6e03      	ldr	r3, [r0, #96]	; 0x60
 800562e:	f043 0308 	orr.w	r3, r3, #8
 8005632:	6603      	str	r3, [r0, #96]	; 0x60
 8005634:	2301      	movs	r3, #1
 8005636:	4618      	mov	r0, r3
 8005638:	4770      	bx	lr
 800563a:	e92d 41f0 	stmdb	sp!, {r4, r5, r6, r7, r8, lr}
 800563e:	6806      	ldr	r6, [r0, #0]
 8005640:	f8d6 30c4 	ldr.w	r3, [r6, #196]	; 0xc4
 8005644:	029b      	lsls	r3, r3, #10
 8005646:	d507      	bpl.n	8005658 <HAL_FDCAN_AddMessageToTxFifoQ+0x34>
 8005648:	6e03      	ldr	r3, [r0, #96]	; 0x60
 800564a:	f443 7300 	orr.w	r3, r3, #512	; 0x200
 800564e:	6603      	str	r3, [r0, #96]	; 0x60
 8005650:	2301      	movs	r3, #1
 8005652:	4618      	mov	r0, r3
 8005654:	e8bd 81f0 	ldmia.w	sp!, {r4, r5, r6, r7, r8, pc}
 8005658:	f8d6 40c4 	ldr.w	r4, [r6, #196]	; 0xc4
 800565c:	690b      	ldr	r3, [r1, #16]
 800565e:	688d      	ldr	r5, [r1, #8]
 8005660:	680f      	ldr	r7, [r1, #0]
 8005662:	f3c4 4c01 	ubfx	ip, r4, #16, #2
 8005666:	684c      	ldr	r4, [r1, #4]
 8005668:	432b      	orrs	r3, r5
 800566a:	2c00      	cmp	r4, #0
 800566c:	d13b      	bne.n	80056e6 <HAL_FDCAN_AddMessageToTxFifoQ+0xc2>
 800566e:	ea43 4e87 	orr.w	lr, r3, r7, lsl #18
 8005672:	e9d1 7306 	ldrd	r7, r3, [r1, #24]
 8005676:	694d      	ldr	r5, [r1, #20]
 8005678:	68cc      	ldr	r4, [r1, #12]
 800567a:	433b      	orrs	r3, r7
 800567c:	432b      	orrs	r3, r5
 800567e:	4323      	orrs	r3, r4
 8005680:	6d45      	ldr	r5, [r0, #84]	; 0x54
 8005682:	6a0c      	ldr	r4, [r1, #32]
 8005684:	eb0c 07cc 	add.w	r7, ip, ip, lsl #3
 8005688:	00ff      	lsls	r7, r7, #3
 800568a:	ea43 6304 	orr.w	r3, r3, r4, lsl #24
 800568e:	197c      	adds	r4, r7, r5
 8005690:	f847 e005 	str.w	lr, [r7, r5]
 8005694:	6063      	str	r3, [r4, #4]
 8005696:	89cb      	ldrh	r3, [r1, #14]
 8005698:	4f15      	ldr	r7, [pc, #84]	; (80056f0 <HAL_FDCAN_AddMessageToTxFifoQ+0xcc>)
 800569a:	5cfb      	ldrb	r3, [r7, r3]
 800569c:	f104 0508 	add.w	r5, r4, #8
 80056a0:	b1bb      	cbz	r3, 80056d2 <HAL_FDCAN_AddMessageToTxFifoQ+0xae>
 80056a2:	2400      	movs	r4, #0
 80056a4:	7893      	ldrb	r3, [r2, #2]
 80056a6:	f892 e003 	ldrb.w	lr, [r2, #3]
 80056aa:	f892 8000 	ldrb.w	r8, [r2]
 80056ae:	041b      	lsls	r3, r3, #16
 80056b0:	ea43 630e 	orr.w	r3, r3, lr, lsl #24
 80056b4:	f892 e001 	ldrb.w	lr, [r2, #1]
 80056b8:	ea43 0308 	orr.w	r3, r3, r8
 80056bc:	ea43 230e 	orr.w	r3, r3, lr, lsl #8
 80056c0:	f845 3b04 	str.w	r3, [r5], #4
 80056c4:	89cb      	ldrh	r3, [r1, #14]
 80056c6:	5cfb      	ldrb	r3, [r7, r3]
 80056c8:	3404      	adds	r4, #4
 80056ca:	429c      	cmp	r4, r3
 80056cc:	f102 0204 	add.w	r2, r2, #4
 80056d0:	d3e8      	bcc.n	80056a4 <HAL_FDCAN_AddMessageToTxFifoQ+0x80>
 80056d2:	2201      	movs	r2, #1
 80056d4:	fa02 f20c 	lsl.w	r2, r2, ip
 80056d8:	2300      	movs	r3, #0
 80056da:	f8c6 20cc 	str.w	r2, [r6, #204]	; 0xcc
 80056de:	6582      	str	r2, [r0, #88]	; 0x58
 80056e0:	4618      	mov	r0, r3
 80056e2:	e8bd 81f0 	ldmia.w	sp!, {r4, r5, r6, r7, r8, pc}
 80056e6:	f047 4e80 	orr.w	lr, r7, #1073741824	; 0x40000000
 80056ea:	ea4e 0e03 	orr.w	lr, lr, r3
 80056ee:	e7c0      	b.n	8005672 <HAL_FDCAN_AddMessageToTxFifoQ+0x4e>
 80056f0:	0800ae74 	.word	0x0800ae74

080056f4 <HAL_FDCAN_GetRxMessage>:
 80056f4:	b5f0      	push	{r4, r5, r6, r7, lr}
 80056f6:	f890 405c 	ldrb.w	r4, [r0, #92]	; 0x5c
 80056fa:	2c02      	cmp	r4, #2
 80056fc:	d005      	beq.n	800570a <HAL_FDCAN_GetRxMessage+0x16>
 80056fe:	6e03      	ldr	r3, [r0, #96]	; 0x60
 8005700:	f043 0308 	orr.w	r3, r3, #8
 8005704:	6603      	str	r3, [r0, #96]	; 0x60
 8005706:	2001      	movs	r0, #1
 8005708:	bdf0      	pop	{r4, r5, r6, r7, pc}
 800570a:	2940      	cmp	r1, #64	; 0x40
 800570c:	f8d0 e000 	ldr.w	lr, [r0]
 8005710:	d053      	beq.n	80057ba <HAL_FDCAN_GetRxMessage+0xc6>
 8005712:	f8de 4098 	ldr.w	r4, [lr, #152]	; 0x98
 8005716:	0724      	lsls	r4, r4, #28
 8005718:	d049      	beq.n	80057ae <HAL_FDCAN_GetRxMessage+0xba>
 800571a:	f8de 5098 	ldr.w	r5, [lr, #152]	; 0x98
 800571e:	6cc4      	ldr	r4, [r0, #76]	; 0x4c
 8005720:	f3c5 2c01 	ubfx	ip, r5, #8, #2
 8005724:	eb0c 05cc 	add.w	r5, ip, ip, lsl #3
 8005728:	eb04 04c5 	add.w	r4, r4, r5, lsl #3
 800572c:	6825      	ldr	r5, [r4, #0]
 800572e:	f005 4580 	and.w	r5, r5, #1073741824	; 0x40000000
 8005732:	6055      	str	r5, [r2, #4]
 8005734:	2d00      	cmp	r5, #0
 8005736:	d14e      	bne.n	80057d6 <HAL_FDCAN_GetRxMessage+0xe2>
 8005738:	6825      	ldr	r5, [r4, #0]
 800573a:	f3c5 458a 	ubfx	r5, r5, #18, #11
 800573e:	6015      	str	r5, [r2, #0]
 8005740:	6825      	ldr	r5, [r4, #0]
 8005742:	4f27      	ldr	r7, [pc, #156]	; (80057e0 <HAL_FDCAN_GetRxMessage+0xec>)
 8005744:	f005 5500 	and.w	r5, r5, #536870912	; 0x20000000
 8005748:	6095      	str	r5, [r2, #8]
 800574a:	6825      	ldr	r5, [r4, #0]
 800574c:	f005 4500 	and.w	r5, r5, #2147483648	; 0x80000000
 8005750:	6115      	str	r5, [r2, #16]
 8005752:	88a5      	ldrh	r5, [r4, #4]
 8005754:	61d5      	str	r5, [r2, #28]
 8005756:	6865      	ldr	r5, [r4, #4]
 8005758:	f405 2570 	and.w	r5, r5, #983040	; 0xf0000
 800575c:	60d5      	str	r5, [r2, #12]
 800575e:	6866      	ldr	r6, [r4, #4]
 8005760:	f406 1680 	and.w	r6, r6, #1048576	; 0x100000
 8005764:	6156      	str	r6, [r2, #20]
 8005766:	6866      	ldr	r6, [r4, #4]
 8005768:	f406 1600 	and.w	r6, r6, #2097152	; 0x200000
 800576c:	6196      	str	r6, [r2, #24]
 800576e:	79e6      	ldrb	r6, [r4, #7]
 8005770:	f006 067f 	and.w	r6, r6, #127	; 0x7f
 8005774:	0c2d      	lsrs	r5, r5, #16
 8005776:	6216      	str	r6, [r2, #32]
 8005778:	6866      	ldr	r6, [r4, #4]
 800577a:	5d7d      	ldrb	r5, [r7, r5]
 800577c:	0ff6      	lsrs	r6, r6, #31
 800577e:	6256      	str	r6, [r2, #36]	; 0x24
 8005780:	b16d      	cbz	r5, 800579e <HAL_FDCAN_GetRxMessage+0xaa>
 8005782:	3407      	adds	r4, #7
 8005784:	3b01      	subs	r3, #1
 8005786:	2500      	movs	r5, #0
 8005788:	f814 6f01 	ldrb.w	r6, [r4, #1]!
 800578c:	f803 6f01 	strb.w	r6, [r3, #1]!
 8005790:	89d6      	ldrh	r6, [r2, #14]
 8005792:	5dbe      	ldrb	r6, [r7, r6]
 8005794:	3501      	adds	r5, #1
 8005796:	42ae      	cmp	r6, r5
 8005798:	d8f6      	bhi.n	8005788 <HAL_FDCAN_GetRxMessage+0x94>
 800579a:	f8d0 e000 	ldr.w	lr, [r0]
 800579e:	2940      	cmp	r1, #64	; 0x40
 80057a0:	bf0c      	ite	eq
 80057a2:	f8ce c094 	streq.w	ip, [lr, #148]	; 0x94
 80057a6:	f8ce c09c 	strne.w	ip, [lr, #156]	; 0x9c
 80057aa:	2000      	movs	r0, #0
 80057ac:	bdf0      	pop	{r4, r5, r6, r7, pc}
 80057ae:	6e03      	ldr	r3, [r0, #96]	; 0x60
 80057b0:	f443 7380 	orr.w	r3, r3, #256	; 0x100
 80057b4:	6603      	str	r3, [r0, #96]	; 0x60
 80057b6:	2001      	movs	r0, #1
 80057b8:	bdf0      	pop	{r4, r5, r6, r7, pc}
 80057ba:	f8de 4090 	ldr.w	r4, [lr, #144]	; 0x90
 80057be:	0725      	lsls	r5, r4, #28
 80057c0:	d0f5      	beq.n	80057ae <HAL_FDCAN_GetRxMessage+0xba>
 80057c2:	f8de 5090 	ldr.w	r5, [lr, #144]	; 0x90
 80057c6:	6c84      	ldr	r4, [r0, #72]	; 0x48
 80057c8:	f3c5 2c01 	ubfx	ip, r5, #8, #2
 80057cc:	eb0c 05cc 	add.w	r5, ip, ip, lsl #3
 80057d0:	eb04 04c5 	add.w	r4, r4, r5, lsl #3
 80057d4:	e7aa      	b.n	800572c <HAL_FDCAN_GetRxMessage+0x38>
 80057d6:	6825      	ldr	r5, [r4, #0]
 80057d8:	f025 4560 	bic.w	r5, r5, #3758096384	; 0xe0000000
 80057dc:	e7af      	b.n	800573e <HAL_FDCAN_GetRxMessage+0x4a>
 80057de:	bf00      	nop
 80057e0:	0800ae74 	.word	0x0800ae74

080057e4 <HAL_FDCAN_TxEventFifoCallback>:
 80057e4:	4770      	bx	lr
 80057e6:	bf00      	nop

080057e8 <HAL_FDCAN_RxFifo1Callback>:
 80057e8:	4770      	bx	lr
 80057ea:	bf00      	nop

080057ec <HAL_FDCAN_TxFifoEmptyCallback>:
 80057ec:	4770      	bx	lr
 80057ee:	bf00      	nop

080057f0 <HAL_FDCAN_TxBufferCompleteCallback>:
 80057f0:	4770      	bx	lr
 80057f2:	bf00      	nop

080057f4 <HAL_FDCAN_TxBufferAbortCallback>:
 80057f4:	4770      	bx	lr
 80057f6:	bf00      	nop

080057f8 <HAL_FDCAN_TimestampWraparoundCallback>:
 80057f8:	4770      	bx	lr
 80057fa:	bf00      	nop

080057fc <HAL_FDCAN_TimeoutOccurredCallback>:
 80057fc:	4770      	bx	lr
 80057fe:	bf00      	nop

08005800 <HAL_FDCAN_HighPriorityMessageCallback>:
 8005800:	4770      	bx	lr
 8005802:	bf00      	nop

08005804 <HAL_FDCAN_ErrorCallback>:
 8005804:	4770      	bx	lr
 8005806:	bf00      	nop

08005808 <HAL_FDCAN_ErrorStatusCallback>:
 8005808:	4770      	bx	lr
 800580a:	bf00      	nop

0800580c <HAL_FDCAN_IRQHandler>:
 800580c:	e92d 43f8 	stmdb	sp!, {r3, r4, r5, r6, r7, r8, r9, lr}
 8005810:	6803      	ldr	r3, [r0, #0]
 8005812:	f8d3 9050 	ldr.w	r9, [r3, #80]	; 0x50
 8005816:	f8d3 e054 	ldr.w	lr, [r3, #84]	; 0x54
 800581a:	f8d3 8050 	ldr.w	r8, [r3, #80]	; 0x50
 800581e:	6d59      	ldr	r1, [r3, #84]	; 0x54
 8005820:	6d1f      	ldr	r7, [r3, #80]	; 0x50
 8005822:	6d5a      	ldr	r2, [r3, #84]	; 0x54
 8005824:	6d1d      	ldr	r5, [r3, #80]	; 0x50
 8005826:	f8d3 c054 	ldr.w	ip, [r3, #84]	; 0x54
 800582a:	6d1e      	ldr	r6, [r3, #80]	; 0x50
 800582c:	ea08 0801 	and.w	r8, r8, r1
 8005830:	4017      	ands	r7, r2
 8005832:	6d59      	ldr	r1, [r3, #84]	; 0x54
 8005834:	6d1a      	ldr	r2, [r3, #80]	; 0x50
 8005836:	ea09 090e 	and.w	r9, r9, lr
 800583a:	ea05 050c 	and.w	r5, r5, ip
 800583e:	400e      	ands	r6, r1
 8005840:	0652      	lsls	r2, r2, #25
 8005842:	4604      	mov	r4, r0
 8005844:	f409 59e0 	and.w	r9, r9, #7168	; 0x1c00
 8005848:	f008 0807 	and.w	r8, r8, #7
 800584c:	f007 0738 	and.w	r7, r7, #56	; 0x38
 8005850:	f405 0571 	and.w	r5, r5, #15794176	; 0xf10000
 8005854:	f406 2660 	and.w	r6, r6, #917504	; 0xe0000
 8005858:	d503      	bpl.n	8005862 <HAL_FDCAN_IRQHandler+0x56>
 800585a:	6d5a      	ldr	r2, [r3, #84]	; 0x54
 800585c:	0651      	lsls	r1, r2, #25
 800585e:	f100 8087 	bmi.w	8005970 <HAL_FDCAN_IRQHandler+0x164>
 8005862:	6d1a      	ldr	r2, [r3, #80]	; 0x50
 8005864:	05d2      	lsls	r2, r2, #23
 8005866:	d503      	bpl.n	8005870 <HAL_FDCAN_IRQHandler+0x64>
 8005868:	6d5a      	ldr	r2, [r3, #84]	; 0x54
 800586a:	05d0      	lsls	r0, r2, #23
 800586c:	f100 8086 	bmi.w	800597c <HAL_FDCAN_IRQHandler+0x170>
 8005870:	f1b9 0f00 	cmp.w	r9, #0
 8005874:	d14d      	bne.n	8005912 <HAL_FDCAN_IRQHandler+0x106>
 8005876:	f1b8 0f00 	cmp.w	r8, #0
 800587a:	d13a      	bne.n	80058f2 <HAL_FDCAN_IRQHandler+0xe6>
 800587c:	2f00      	cmp	r7, #0
 800587e:	d141      	bne.n	8005904 <HAL_FDCAN_IRQHandler+0xf8>
 8005880:	6d1a      	ldr	r2, [r3, #80]	; 0x50
 8005882:	0591      	lsls	r1, r2, #22
 8005884:	d502      	bpl.n	800588c <HAL_FDCAN_IRQHandler+0x80>
 8005886:	6d5a      	ldr	r2, [r3, #84]	; 0x54
 8005888:	0592      	lsls	r2, r2, #22
 800588a:	d455      	bmi.n	8005938 <HAL_FDCAN_IRQHandler+0x12c>
 800588c:	6d1a      	ldr	r2, [r3, #80]	; 0x50
 800588e:	0617      	lsls	r7, r2, #24
 8005890:	d502      	bpl.n	8005898 <HAL_FDCAN_IRQHandler+0x8c>
 8005892:	6d5a      	ldr	r2, [r3, #84]	; 0x54
 8005894:	0610      	lsls	r0, r2, #24
 8005896:	d457      	bmi.n	8005948 <HAL_FDCAN_IRQHandler+0x13c>
 8005898:	6d1a      	ldr	r2, [r3, #80]	; 0x50
 800589a:	0491      	lsls	r1, r2, #18
 800589c:	d502      	bpl.n	80058a4 <HAL_FDCAN_IRQHandler+0x98>
 800589e:	6d5a      	ldr	r2, [r3, #84]	; 0x54
 80058a0:	0492      	lsls	r2, r2, #18
 80058a2:	d45d      	bmi.n	8005960 <HAL_FDCAN_IRQHandler+0x154>
 80058a4:	6d1a      	ldr	r2, [r3, #80]	; 0x50
 80058a6:	0417      	lsls	r7, r2, #16
 80058a8:	d502      	bpl.n	80058b0 <HAL_FDCAN_IRQHandler+0xa4>
 80058aa:	6d5a      	ldr	r2, [r3, #84]	; 0x54
 80058ac:	0410      	lsls	r0, r2, #16
 80058ae:	d43b      	bmi.n	8005928 <HAL_FDCAN_IRQHandler+0x11c>
 80058b0:	6d1a      	ldr	r2, [r3, #80]	; 0x50
 80058b2:	0451      	lsls	r1, r2, #17
 80058b4:	d509      	bpl.n	80058ca <HAL_FDCAN_IRQHandler+0xbe>
 80058b6:	6d5a      	ldr	r2, [r3, #84]	; 0x54
 80058b8:	0452      	lsls	r2, r2, #17
 80058ba:	d506      	bpl.n	80058ca <HAL_FDCAN_IRQHandler+0xbe>
 80058bc:	f44f 4280 	mov.w	r2, #16384	; 0x4000
 80058c0:	651a      	str	r2, [r3, #80]	; 0x50
 80058c2:	6e22      	ldr	r2, [r4, #96]	; 0x60
 80058c4:	f042 0280 	orr.w	r2, r2, #128	; 0x80
 80058c8:	6622      	str	r2, [r4, #96]	; 0x60
 80058ca:	b966      	cbnz	r6, 80058e6 <HAL_FDCAN_IRQHandler+0xda>
 80058cc:	b125      	cbz	r5, 80058d8 <HAL_FDCAN_IRQHandler+0xcc>
 80058ce:	6823      	ldr	r3, [r4, #0]
 80058d0:	651d      	str	r5, [r3, #80]	; 0x50
 80058d2:	6e23      	ldr	r3, [r4, #96]	; 0x60
 80058d4:	431d      	orrs	r5, r3
 80058d6:	6625      	str	r5, [r4, #96]	; 0x60
 80058d8:	6e23      	ldr	r3, [r4, #96]	; 0x60
 80058da:	b113      	cbz	r3, 80058e2 <HAL_FDCAN_IRQHandler+0xd6>
 80058dc:	4620      	mov	r0, r4
 80058de:	f7ff ff91 	bl	8005804 <HAL_FDCAN_ErrorCallback>
 80058e2:	e8bd 83f8 	ldmia.w	sp!, {r3, r4, r5, r6, r7, r8, r9, pc}
 80058e6:	651e      	str	r6, [r3, #80]	; 0x50
 80058e8:	4631      	mov	r1, r6
 80058ea:	4620      	mov	r0, r4
 80058ec:	f7ff ff8c 	bl	8005808 <HAL_FDCAN_ErrorStatusCallback>
 80058f0:	e7ec      	b.n	80058cc <HAL_FDCAN_IRQHandler+0xc0>
 80058f2:	f8c3 8050 	str.w	r8, [r3, #80]	; 0x50
 80058f6:	4641      	mov	r1, r8
 80058f8:	4620      	mov	r0, r4
 80058fa:	f7fd fd1b 	bl	8003334 <HAL_FDCAN_RxFifo0Callback>
 80058fe:	6823      	ldr	r3, [r4, #0]
 8005900:	2f00      	cmp	r7, #0
 8005902:	d0bd      	beq.n	8005880 <HAL_FDCAN_IRQHandler+0x74>
 8005904:	651f      	str	r7, [r3, #80]	; 0x50
 8005906:	4639      	mov	r1, r7
 8005908:	4620      	mov	r0, r4
 800590a:	f7ff ff6d 	bl	80057e8 <HAL_FDCAN_RxFifo1Callback>
 800590e:	6823      	ldr	r3, [r4, #0]
 8005910:	e7b6      	b.n	8005880 <HAL_FDCAN_IRQHandler+0x74>
 8005912:	f8c3 9050 	str.w	r9, [r3, #80]	; 0x50
 8005916:	4649      	mov	r1, r9
 8005918:	4620      	mov	r0, r4
 800591a:	f7ff ff63 	bl	80057e4 <HAL_FDCAN_TxEventFifoCallback>
 800591e:	6823      	ldr	r3, [r4, #0]
 8005920:	f1b8 0f00 	cmp.w	r8, #0
 8005924:	d0aa      	beq.n	800587c <HAL_FDCAN_IRQHandler+0x70>
 8005926:	e7e4      	b.n	80058f2 <HAL_FDCAN_IRQHandler+0xe6>
 8005928:	f44f 4200 	mov.w	r2, #32768	; 0x8000
 800592c:	651a      	str	r2, [r3, #80]	; 0x50
 800592e:	4620      	mov	r0, r4
 8005930:	f7ff ff64 	bl	80057fc <HAL_FDCAN_TimeoutOccurredCallback>
 8005934:	6823      	ldr	r3, [r4, #0]
 8005936:	e7bb      	b.n	80058b0 <HAL_FDCAN_IRQHandler+0xa4>
 8005938:	f44f 7200 	mov.w	r2, #512	; 0x200
 800593c:	651a      	str	r2, [r3, #80]	; 0x50
 800593e:	4620      	mov	r0, r4
 8005940:	f7ff ff54 	bl	80057ec <HAL_FDCAN_TxFifoEmptyCallback>
 8005944:	6823      	ldr	r3, [r4, #0]
 8005946:	e7a1      	b.n	800588c <HAL_FDCAN_IRQHandler+0x80>
 8005948:	f8d3 00d4 	ldr.w	r0, [r3, #212]	; 0xd4
 800594c:	f8d3 10dc 	ldr.w	r1, [r3, #220]	; 0xdc
 8005950:	2280      	movs	r2, #128	; 0x80
 8005952:	4001      	ands	r1, r0
 8005954:	651a      	str	r2, [r3, #80]	; 0x50
 8005956:	4620      	mov	r0, r4
 8005958:	f7ff ff4a 	bl	80057f0 <HAL_FDCAN_TxBufferCompleteCallback>
 800595c:	6823      	ldr	r3, [r4, #0]
 800595e:	e79b      	b.n	8005898 <HAL_FDCAN_IRQHandler+0x8c>
 8005960:	f44f 5200 	mov.w	r2, #8192	; 0x2000
 8005964:	651a      	str	r2, [r3, #80]	; 0x50
 8005966:	4620      	mov	r0, r4
 8005968:	f7ff ff46 	bl	80057f8 <HAL_FDCAN_TimestampWraparoundCallback>
 800596c:	6823      	ldr	r3, [r4, #0]
 800596e:	e799      	b.n	80058a4 <HAL_FDCAN_IRQHandler+0x98>
 8005970:	2240      	movs	r2, #64	; 0x40
 8005972:	651a      	str	r2, [r3, #80]	; 0x50
 8005974:	f7ff ff44 	bl	8005800 <HAL_FDCAN_HighPriorityMessageCallback>
 8005978:	6823      	ldr	r3, [r4, #0]
 800597a:	e772      	b.n	8005862 <HAL_FDCAN_IRQHandler+0x56>
 800597c:	f8d3 00d8 	ldr.w	r0, [r3, #216]	; 0xd8
 8005980:	f8d3 10e0 	ldr.w	r1, [r3, #224]	; 0xe0
 8005984:	f44f 7280 	mov.w	r2, #256	; 0x100
 8005988:	4001      	ands	r1, r0
 800598a:	651a      	str	r2, [r3, #80]	; 0x50
 800598c:	4620      	mov	r0, r4
 800598e:	f7ff ff31 	bl	80057f4 <HAL_FDCAN_TxBufferAbortCallback>
 8005992:	6823      	ldr	r3, [r4, #0]
 8005994:	f1b9 0f00 	cmp.w	r9, #0
 8005998:	f43f af6d 	beq.w	8005876 <HAL_FDCAN_IRQHandler+0x6a>
 800599c:	e7b9      	b.n	8005912 <HAL_FDCAN_IRQHandler+0x106>
 800599e:	bf00      	nop

080059a0 <HAL_FLASH_Program>:
 80059a0:	e92d 47f0 	stmdb	sp!, {r4, r5, r6, r7, r8, r9, sl, lr}
 80059a4:	f8df 8120 	ldr.w	r8, [pc, #288]	; 8005ac8 <HAL_FLASH_Program+0x128>
 80059a8:	f898 6000 	ldrb.w	r6, [r8]
 80059ac:	2e01      	cmp	r6, #1
 80059ae:	d056      	beq.n	8005a5e <HAL_FLASH_Program+0xbe>
 80059b0:	469a      	mov	sl, r3
 80059b2:	2301      	movs	r3, #1
 80059b4:	4614      	mov	r4, r2
 80059b6:	460d      	mov	r5, r1
 80059b8:	4681      	mov	r9, r0
 80059ba:	f888 3000 	strb.w	r3, [r8]
 80059be:	f7fe fa55 	bl	8003e6c <HAL_GetTick>
 80059c2:	4e40      	ldr	r6, [pc, #256]	; (8005ac4 <HAL_FLASH_Program+0x124>)
 80059c4:	4607      	mov	r7, r0
 80059c6:	e005      	b.n	80059d4 <HAL_FLASH_Program+0x34>
 80059c8:	f7fe fa50 	bl	8003e6c <HAL_GetTick>
 80059cc:	1bc0      	subs	r0, r0, r7
 80059ce:	f5b0 7f7a 	cmp.w	r0, #1000	; 0x3e8
 80059d2:	d83e      	bhi.n	8005a52 <HAL_FLASH_Program+0xb2>
 80059d4:	6932      	ldr	r2, [r6, #16]
 80059d6:	03d1      	lsls	r1, r2, #15
 80059d8:	d4f6      	bmi.n	80059c8 <HAL_FLASH_Program+0x28>
 80059da:	6937      	ldr	r7, [r6, #16]
 80059dc:	f24c 33fa 	movw	r3, #50170	; 0xc3fa
 80059e0:	401f      	ands	r7, r3
 80059e2:	d13f      	bne.n	8005a64 <HAL_FLASH_Program+0xc4>
 80059e4:	6933      	ldr	r3, [r6, #16]
 80059e6:	07da      	lsls	r2, r3, #31
 80059e8:	bf44      	itt	mi
 80059ea:	2301      	movmi	r3, #1
 80059ec:	6133      	strmi	r3, [r6, #16]
 80059ee:	2300      	movs	r3, #0
 80059f0:	f8c8 3004 	str.w	r3, [r8, #4]
 80059f4:	f1b9 0f00 	cmp.w	r9, #0
 80059f8:	d13c      	bne.n	8005a74 <HAL_FLASH_Program+0xd4>
 80059fa:	4a32      	ldr	r2, [pc, #200]	; (8005ac4 <HAL_FLASH_Program+0x124>)
 80059fc:	6953      	ldr	r3, [r2, #20]
 80059fe:	f043 0301 	orr.w	r3, r3, #1
 8005a02:	6153      	str	r3, [r2, #20]
 8005a04:	602c      	str	r4, [r5, #0]
 8005a06:	f3bf 8f6f 	isb	sy
 8005a0a:	2701      	movs	r7, #1
 8005a0c:	f8c5 a004 	str.w	sl, [r5, #4]
 8005a10:	f7fe fa2c 	bl	8003e6c <HAL_GetTick>
 8005a14:	4c2b      	ldr	r4, [pc, #172]	; (8005ac4 <HAL_FLASH_Program+0x124>)
 8005a16:	4605      	mov	r5, r0
 8005a18:	e005      	b.n	8005a26 <HAL_FLASH_Program+0x86>
 8005a1a:	f7fe fa27 	bl	8003e6c <HAL_GetTick>
 8005a1e:	1b40      	subs	r0, r0, r5
 8005a20:	f5b0 7f7a 	cmp.w	r0, #1000	; 0x3e8
 8005a24:	d843      	bhi.n	8005aae <HAL_FLASH_Program+0x10e>
 8005a26:	6923      	ldr	r3, [r4, #16]
 8005a28:	03db      	lsls	r3, r3, #15
 8005a2a:	d4f6      	bmi.n	8005a1a <HAL_FLASH_Program+0x7a>
 8005a2c:	6923      	ldr	r3, [r4, #16]
 8005a2e:	f24c 32fa 	movw	r2, #50170	; 0xc3fa
 8005a32:	4013      	ands	r3, r2
 8005a34:	d13d      	bne.n	8005ab2 <HAL_FLASH_Program+0x112>
 8005a36:	6920      	ldr	r0, [r4, #16]
 8005a38:	f010 0001 	ands.w	r0, r0, #1
 8005a3c:	d002      	beq.n	8005a44 <HAL_FLASH_Program+0xa4>
 8005a3e:	2201      	movs	r2, #1
 8005a40:	4618      	mov	r0, r3
 8005a42:	6122      	str	r2, [r4, #16]
 8005a44:	b137      	cbz	r7, 8005a54 <HAL_FLASH_Program+0xb4>
 8005a46:	4a1f      	ldr	r2, [pc, #124]	; (8005ac4 <HAL_FLASH_Program+0x124>)
 8005a48:	6953      	ldr	r3, [r2, #20]
 8005a4a:	ea23 0707 	bic.w	r7, r3, r7
 8005a4e:	6157      	str	r7, [r2, #20]
 8005a50:	e000      	b.n	8005a54 <HAL_FLASH_Program+0xb4>
 8005a52:	2003      	movs	r0, #3
 8005a54:	2300      	movs	r3, #0
 8005a56:	f888 3000 	strb.w	r3, [r8]
 8005a5a:	e8bd 87f0 	ldmia.w	sp!, {r4, r5, r6, r7, r8, r9, sl, pc}
 8005a5e:	2002      	movs	r0, #2
 8005a60:	e8bd 87f0 	ldmia.w	sp!, {r4, r5, r6, r7, r8, r9, sl, pc}
 8005a64:	f8d8 3004 	ldr.w	r3, [r8, #4]
 8005a68:	433b      	orrs	r3, r7
 8005a6a:	f8c8 3004 	str.w	r3, [r8, #4]
 8005a6e:	2001      	movs	r0, #1
 8005a70:	6137      	str	r7, [r6, #16]
 8005a72:	e7ef      	b.n	8005a54 <HAL_FLASH_Program+0xb4>
 8005a74:	f109 33ff 	add.w	r3, r9, #4294967295
 8005a78:	2b01      	cmp	r3, #1
 8005a7a:	d8c9      	bhi.n	8005a10 <HAL_FLASH_Program+0x70>
 8005a7c:	4911      	ldr	r1, [pc, #68]	; (8005ac4 <HAL_FLASH_Program+0x124>)
 8005a7e:	694b      	ldr	r3, [r1, #20]
 8005a80:	f443 2380 	orr.w	r3, r3, #262144	; 0x40000
 8005a84:	4622      	mov	r2, r4
 8005a86:	614b      	str	r3, [r1, #20]
 8005a88:	f3ef 8010 	mrs	r0, PRIMASK
 8005a8c:	b672      	cpsid	i
 8005a8e:	1b2d      	subs	r5, r5, r4
 8005a90:	f504 7180 	add.w	r1, r4, #256	; 0x100
 8005a94:	6813      	ldr	r3, [r2, #0]
 8005a96:	5153      	str	r3, [r2, r5]
 8005a98:	3204      	adds	r2, #4
 8005a9a:	428a      	cmp	r2, r1
 8005a9c:	d1fa      	bne.n	8005a94 <HAL_FLASH_Program+0xf4>
 8005a9e:	f380 8810 	msr	PRIMASK, r0
 8005aa2:	f1b9 0f02 	cmp.w	r9, #2
 8005aa6:	bf08      	it	eq
 8005aa8:	f44f 2780 	moveq.w	r7, #262144	; 0x40000
 8005aac:	e7b0      	b.n	8005a10 <HAL_FLASH_Program+0x70>
 8005aae:	2003      	movs	r0, #3
 8005ab0:	e7c8      	b.n	8005a44 <HAL_FLASH_Program+0xa4>
 8005ab2:	f8d8 2004 	ldr.w	r2, [r8, #4]
 8005ab6:	431a      	orrs	r2, r3
 8005ab8:	f8c8 2004 	str.w	r2, [r8, #4]
 8005abc:	2001      	movs	r0, #1
 8005abe:	6123      	str	r3, [r4, #16]
 8005ac0:	e7c0      	b.n	8005a44 <HAL_FLASH_Program+0xa4>
 8005ac2:	bf00      	nop
 8005ac4:	40022000 	.word	0x40022000
 8005ac8:	200005ec 	.word	0x200005ec

08005acc <HAL_FLASH_Unlock>:
 8005acc:	4b06      	ldr	r3, [pc, #24]	; (8005ae8 <HAL_FLASH_Unlock+0x1c>)
 8005ace:	695a      	ldr	r2, [r3, #20]
 8005ad0:	2a00      	cmp	r2, #0
 8005ad2:	db01      	blt.n	8005ad8 <HAL_FLASH_Unlock+0xc>
 8005ad4:	2000      	movs	r0, #0
 8005ad6:	4770      	bx	lr
 8005ad8:	4904      	ldr	r1, [pc, #16]	; (8005aec <HAL_FLASH_Unlock+0x20>)
 8005ada:	4a05      	ldr	r2, [pc, #20]	; (8005af0 <HAL_FLASH_Unlock+0x24>)
 8005adc:	6099      	str	r1, [r3, #8]
 8005ade:	609a      	str	r2, [r3, #8]
 8005ae0:	6958      	ldr	r0, [r3, #20]
 8005ae2:	0fc0      	lsrs	r0, r0, #31
 8005ae4:	4770      	bx	lr
 8005ae6:	bf00      	nop
 8005ae8:	40022000 	.word	0x40022000
 8005aec:	45670123 	.word	0x45670123
 8005af0:	cdef89ab 	.word	0xcdef89ab

08005af4 <HAL_FLASH_Lock>:
 8005af4:	4b04      	ldr	r3, [pc, #16]	; (8005b08 <HAL_FLASH_Lock+0x14>)
 8005af6:	695a      	ldr	r2, [r3, #20]
 8005af8:	f042 4200 	orr.w	r2, r2, #2147483648	; 0x80000000
 8005afc:	615a      	str	r2, [r3, #20]
 8005afe:	6958      	ldr	r0, [r3, #20]
 8005b00:	43c0      	mvns	r0, r0
 8005b02:	0fc0      	lsrs	r0, r0, #31
 8005b04:	4770      	bx	lr
 8005b06:	bf00      	nop
 8005b08:	40022000 	.word	0x40022000

08005b0c <FLASH_WaitForLastOperation>:
 8005b0c:	b570      	push	{r4, r5, r6, lr}
 8005b0e:	4606      	mov	r6, r0
 8005b10:	f7fe f9ac 	bl	8003e6c <HAL_GetTick>
 8005b14:	4c10      	ldr	r4, [pc, #64]	; (8005b58 <FLASH_WaitForLastOperation+0x4c>)
 8005b16:	4605      	mov	r5, r0
 8005b18:	e004      	b.n	8005b24 <FLASH_WaitForLastOperation+0x18>
 8005b1a:	f7fe f9a7 	bl	8003e6c <HAL_GetTick>
 8005b1e:	1b40      	subs	r0, r0, r5
 8005b20:	42b0      	cmp	r0, r6
 8005b22:	d816      	bhi.n	8005b52 <FLASH_WaitForLastOperation+0x46>
 8005b24:	6923      	ldr	r3, [r4, #16]
 8005b26:	03db      	lsls	r3, r3, #15
 8005b28:	d4f7      	bmi.n	8005b1a <FLASH_WaitForLastOperation+0xe>
 8005b2a:	6923      	ldr	r3, [r4, #16]
 8005b2c:	f24c 32fa 	movw	r2, #50170	; 0xc3fa
 8005b30:	4013      	ands	r3, r2
 8005b32:	d107      	bne.n	8005b44 <FLASH_WaitForLastOperation+0x38>
 8005b34:	6920      	ldr	r0, [r4, #16]
 8005b36:	f010 0001 	ands.w	r0, r0, #1
 8005b3a:	d002      	beq.n	8005b42 <FLASH_WaitForLastOperation+0x36>
 8005b3c:	2201      	movs	r2, #1
 8005b3e:	4618      	mov	r0, r3
 8005b40:	6122      	str	r2, [r4, #16]
 8005b42:	bd70      	pop	{r4, r5, r6, pc}
 8005b44:	4905      	ldr	r1, [pc, #20]	; (8005b5c <FLASH_WaitForLastOperation+0x50>)
 8005b46:	684a      	ldr	r2, [r1, #4]
 8005b48:	431a      	orrs	r2, r3
 8005b4a:	604a      	str	r2, [r1, #4]
 8005b4c:	2001      	movs	r0, #1
 8005b4e:	6123      	str	r3, [r4, #16]
 8005b50:	bd70      	pop	{r4, r5, r6, pc}
 8005b52:	2003      	movs	r0, #3
 8005b54:	bd70      	pop	{r4, r5, r6, pc}
 8005b56:	bf00      	nop
 8005b58:	40022000 	.word	0x40022000
 8005b5c:	200005ec 	.word	0x200005ec

08005b60 <HAL_FLASHEx_Erase>:
 8005b60:	e92d 47f0 	stmdb	sp!, {r4, r5, r6, r7, r8, r9, sl, lr}
 8005b64:	4f54      	ldr	r7, [pc, #336]	; (8005cb8 <HAL_FLASHEx_Erase+0x158>)
 8005b66:	783b      	ldrb	r3, [r7, #0]
 8005b68:	2b01      	cmp	r3, #1
 8005b6a:	d078      	beq.n	8005c5e <HAL_FLASHEx_Erase+0xfe>
 8005b6c:	4605      	mov	r5, r0
 8005b6e:	2401      	movs	r4, #1
 8005b70:	f44f 707a 	mov.w	r0, #1000	; 0x3e8
 8005b74:	4688      	mov	r8, r1
 8005b76:	703c      	strb	r4, [r7, #0]
 8005b78:	f7ff ffc8 	bl	8005b0c <FLASH_WaitForLastOperation>
 8005b7c:	4682      	mov	sl, r0
 8005b7e:	b120      	cbz	r0, 8005b8a <HAL_FLASHEx_Erase+0x2a>
 8005b80:	2300      	movs	r3, #0
 8005b82:	703b      	strb	r3, [r7, #0]
 8005b84:	4650      	mov	r0, sl
 8005b86:	e8bd 87f0 	ldmia.w	sp!, {r4, r5, r6, r7, r8, r9, sl, pc}
 8005b8a:	4b4c      	ldr	r3, [pc, #304]	; (8005cbc <HAL_FLASHEx_Erase+0x15c>)
 8005b8c:	6078      	str	r0, [r7, #4]
 8005b8e:	681a      	ldr	r2, [r3, #0]
 8005b90:	f412 7f00 	tst.w	r2, #512	; 0x200
 8005b94:	681a      	ldr	r2, [r3, #0]
 8005b96:	d167      	bne.n	8005c68 <HAL_FLASHEx_Erase+0x108>
 8005b98:	0552      	lsls	r2, r2, #21
 8005b9a:	f140 808b 	bpl.w	8005cb4 <HAL_FLASHEx_Erase+0x154>
 8005b9e:	681a      	ldr	r2, [r3, #0]
 8005ba0:	2102      	movs	r1, #2
 8005ba2:	f422 6280 	bic.w	r2, r2, #1024	; 0x400
 8005ba6:	601a      	str	r2, [r3, #0]
 8005ba8:	7739      	strb	r1, [r7, #28]
 8005baa:	682b      	ldr	r3, [r5, #0]
 8005bac:	2b01      	cmp	r3, #1
 8005bae:	d068      	beq.n	8005c82 <HAL_FLASHEx_Erase+0x122>
 8005bb0:	f04f 33ff 	mov.w	r3, #4294967295
 8005bb4:	f8c8 3000 	str.w	r3, [r8]
 8005bb8:	e9d5 6302 	ldrd	r6, r3, [r5, #8]
 8005bbc:	4433      	add	r3, r6
 8005bbe:	429e      	cmp	r6, r3
 8005bc0:	d227      	bcs.n	8005c12 <HAL_FLASHEx_Erase+0xb2>
 8005bc2:	4c3e      	ldr	r4, [pc, #248]	; (8005cbc <HAL_FLASHEx_Erase+0x15c>)
 8005bc4:	ea4f 09c6 	mov.w	r9, r6, lsl #3
 8005bc8:	e005      	b.n	8005bd6 <HAL_FLASHEx_Erase+0x76>
 8005bca:	e9d5 3202 	ldrd	r3, r2, [r5, #8]
 8005bce:	3601      	adds	r6, #1
 8005bd0:	4413      	add	r3, r2
 8005bd2:	42b3      	cmp	r3, r6
 8005bd4:	d91d      	bls.n	8005c12 <HAL_FLASHEx_Erase+0xb2>
 8005bd6:	6963      	ldr	r3, [r4, #20]
 8005bd8:	f409 62ff 	and.w	r2, r9, #2040	; 0x7f8
 8005bdc:	f423 73fc 	bic.w	r3, r3, #504	; 0x1f8
 8005be0:	4313      	orrs	r3, r2
 8005be2:	6163      	str	r3, [r4, #20]
 8005be4:	6963      	ldr	r3, [r4, #20]
 8005be6:	f043 0302 	orr.w	r3, r3, #2
 8005bea:	6163      	str	r3, [r4, #20]
 8005bec:	6963      	ldr	r3, [r4, #20]
 8005bee:	f443 3380 	orr.w	r3, r3, #65536	; 0x10000
 8005bf2:	6163      	str	r3, [r4, #20]
 8005bf4:	f44f 707a 	mov.w	r0, #1000	; 0x3e8
 8005bf8:	f7ff ff88 	bl	8005b0c <FLASH_WaitForLastOperation>
 8005bfc:	6963      	ldr	r3, [r4, #20]
 8005bfe:	f423 73fd 	bic.w	r3, r3, #506	; 0x1fa
 8005c02:	f109 0908 	add.w	r9, r9, #8
 8005c06:	6163      	str	r3, [r4, #20]
 8005c08:	2800      	cmp	r0, #0
 8005c0a:	d0de      	beq.n	8005bca <HAL_FLASHEx_Erase+0x6a>
 8005c0c:	f8c8 6000 	str.w	r6, [r8]
 8005c10:	4682      	mov	sl, r0
 8005c12:	7f3b      	ldrb	r3, [r7, #28]
 8005c14:	b2db      	uxtb	r3, r3
 8005c16:	f003 02fd 	and.w	r2, r3, #253	; 0xfd
 8005c1a:	2a01      	cmp	r2, #1
 8005c1c:	d10c      	bne.n	8005c38 <HAL_FLASHEx_Erase+0xd8>
 8005c1e:	4a27      	ldr	r2, [pc, #156]	; (8005cbc <HAL_FLASHEx_Erase+0x15c>)
 8005c20:	6811      	ldr	r1, [r2, #0]
 8005c22:	f441 6100 	orr.w	r1, r1, #2048	; 0x800
 8005c26:	6011      	str	r1, [r2, #0]
 8005c28:	6811      	ldr	r1, [r2, #0]
 8005c2a:	f421 6100 	bic.w	r1, r1, #2048	; 0x800
 8005c2e:	6011      	str	r1, [r2, #0]
 8005c30:	6811      	ldr	r1, [r2, #0]
 8005c32:	f441 7100 	orr.w	r1, r1, #512	; 0x200
 8005c36:	6011      	str	r1, [r2, #0]
 8005c38:	3b02      	subs	r3, #2
 8005c3a:	2b01      	cmp	r3, #1
 8005c3c:	d80c      	bhi.n	8005c58 <HAL_FLASHEx_Erase+0xf8>
 8005c3e:	4b1f      	ldr	r3, [pc, #124]	; (8005cbc <HAL_FLASHEx_Erase+0x15c>)
 8005c40:	681a      	ldr	r2, [r3, #0]
 8005c42:	f442 5280 	orr.w	r2, r2, #4096	; 0x1000
 8005c46:	601a      	str	r2, [r3, #0]
 8005c48:	681a      	ldr	r2, [r3, #0]
 8005c4a:	f422 5280 	bic.w	r2, r2, #4096	; 0x1000
 8005c4e:	601a      	str	r2, [r3, #0]
 8005c50:	681a      	ldr	r2, [r3, #0]
 8005c52:	f442 6280 	orr.w	r2, r2, #1024	; 0x400
 8005c56:	601a      	str	r2, [r3, #0]
 8005c58:	2300      	movs	r3, #0
 8005c5a:	773b      	strb	r3, [r7, #28]
 8005c5c:	e790      	b.n	8005b80 <HAL_FLASHEx_Erase+0x20>
 8005c5e:	f04f 0a02 	mov.w	sl, #2
 8005c62:	4650      	mov	r0, sl
 8005c64:	e8bd 87f0 	ldmia.w	sp!, {r4, r5, r6, r7, r8, r9, sl, pc}
 8005c68:	f422 7200 	bic.w	r2, r2, #512	; 0x200
 8005c6c:	601a      	str	r2, [r3, #0]
 8005c6e:	681a      	ldr	r2, [r3, #0]
 8005c70:	0551      	lsls	r1, r2, #21
 8005c72:	d51d      	bpl.n	8005cb0 <HAL_FLASHEx_Erase+0x150>
 8005c74:	681a      	ldr	r2, [r3, #0]
 8005c76:	2103      	movs	r1, #3
 8005c78:	f422 6280 	bic.w	r2, r2, #1024	; 0x400
 8005c7c:	601a      	str	r2, [r3, #0]
 8005c7e:	7739      	strb	r1, [r7, #28]
 8005c80:	e793      	b.n	8005baa <HAL_FLASHEx_Erase+0x4a>
 8005c82:	686b      	ldr	r3, [r5, #4]
 8005c84:	07db      	lsls	r3, r3, #31
 8005c86:	d504      	bpl.n	8005c92 <HAL_FLASHEx_Erase+0x132>
 8005c88:	4a0c      	ldr	r2, [pc, #48]	; (8005cbc <HAL_FLASHEx_Erase+0x15c>)
 8005c8a:	6953      	ldr	r3, [r2, #20]
 8005c8c:	f043 0304 	orr.w	r3, r3, #4
 8005c90:	6153      	str	r3, [r2, #20]
 8005c92:	4c0a      	ldr	r4, [pc, #40]	; (8005cbc <HAL_FLASHEx_Erase+0x15c>)
 8005c94:	6963      	ldr	r3, [r4, #20]
 8005c96:	f443 3380 	orr.w	r3, r3, #65536	; 0x10000
 8005c9a:	6163      	str	r3, [r4, #20]
 8005c9c:	f44f 707a 	mov.w	r0, #1000	; 0x3e8
 8005ca0:	f7ff ff34 	bl	8005b0c <FLASH_WaitForLastOperation>
 8005ca4:	6963      	ldr	r3, [r4, #20]
 8005ca6:	f023 0304 	bic.w	r3, r3, #4
 8005caa:	4682      	mov	sl, r0
 8005cac:	6163      	str	r3, [r4, #20]
 8005cae:	e7b0      	b.n	8005c12 <HAL_FLASHEx_Erase+0xb2>
 8005cb0:	773c      	strb	r4, [r7, #28]
 8005cb2:	e77a      	b.n	8005baa <HAL_FLASHEx_Erase+0x4a>
 8005cb4:	7738      	strb	r0, [r7, #28]
 8005cb6:	e778      	b.n	8005baa <HAL_FLASHEx_Erase+0x4a>
 8005cb8:	200005ec 	.word	0x200005ec
 8005cbc:	40022000 	.word	0x40022000

08005cc0 <HAL_GPIO_Init>:
 8005cc0:	f8d1 c000 	ldr.w	ip, [r1]
 8005cc4:	f1bc 0f00 	cmp.w	ip, #0
 8005cc8:	f000 80c7 	beq.w	8005e5a <HAL_GPIO_Init+0x19a>
 8005ccc:	e92d 4ff0 	stmdb	sp!, {r4, r5, r6, r7, r8, r9, sl, fp, lr}
 8005cd0:	f8df e1b4 	ldr.w	lr, [pc, #436]	; 8005e88 <HAL_GPIO_Init+0x1c8>
 8005cd4:	b083      	sub	sp, #12
 8005cd6:	4688      	mov	r8, r1
 8005cd8:	2500      	movs	r5, #0
 8005cda:	f04f 0901 	mov.w	r9, #1
 8005cde:	fa09 f205 	lsl.w	r2, r9, r5
 8005ce2:	ea12 060c 	ands.w	r6, r2, ip
 8005ce6:	d074      	beq.n	8005dd2 <HAL_GPIO_Init+0x112>
 8005ce8:	f8d8 1004 	ldr.w	r1, [r8, #4]
 8005cec:	f021 0a10 	bic.w	sl, r1, #16
 8005cf0:	f1ba 0f02 	cmp.w	sl, #2
 8005cf4:	d074      	beq.n	8005de0 <HAL_GPIO_Init+0x120>
 8005cf6:	006f      	lsls	r7, r5, #1
 8005cf8:	2303      	movs	r3, #3
 8005cfa:	f8d0 b000 	ldr.w	fp, [r0]
 8005cfe:	40bb      	lsls	r3, r7
 8005d00:	43db      	mvns	r3, r3
 8005d02:	f001 0403 	and.w	r4, r1, #3
 8005d06:	ea03 0b0b 	and.w	fp, r3, fp
 8005d0a:	40bc      	lsls	r4, r7
 8005d0c:	f10a 3aff 	add.w	sl, sl, #4294967295
 8005d10:	ea44 040b 	orr.w	r4, r4, fp
 8005d14:	f1ba 0f01 	cmp.w	sl, #1
 8005d18:	6004      	str	r4, [r0, #0]
 8005d1a:	f240 8082 	bls.w	8005e22 <HAL_GPIO_Init+0x162>
 8005d1e:	68c4      	ldr	r4, [r0, #12]
 8005d20:	f8d8 2008 	ldr.w	r2, [r8, #8]
 8005d24:	4023      	ands	r3, r4
 8005d26:	40ba      	lsls	r2, r7
 8005d28:	431a      	orrs	r2, r3
 8005d2a:	00cf      	lsls	r7, r1, #3
 8005d2c:	60c2      	str	r2, [r0, #12]
 8005d2e:	d550      	bpl.n	8005dd2 <HAL_GPIO_Init+0x112>
 8005d30:	4a4f      	ldr	r2, [pc, #316]	; (8005e70 <HAL_GPIO_Init+0x1b0>)
 8005d32:	6e13      	ldr	r3, [r2, #96]	; 0x60
 8005d34:	f043 0301 	orr.w	r3, r3, #1
 8005d38:	6613      	str	r3, [r2, #96]	; 0x60
 8005d3a:	6e13      	ldr	r3, [r2, #96]	; 0x60
 8005d3c:	f025 0403 	bic.w	r4, r5, #3
 8005d40:	f104 4480 	add.w	r4, r4, #1073741824	; 0x40000000
 8005d44:	f003 0301 	and.w	r3, r3, #1
 8005d48:	f504 3480 	add.w	r4, r4, #65536	; 0x10000
 8005d4c:	9301      	str	r3, [sp, #4]
 8005d4e:	f005 0303 	and.w	r3, r5, #3
 8005d52:	9a01      	ldr	r2, [sp, #4]
 8005d54:	68a2      	ldr	r2, [r4, #8]
 8005d56:	009b      	lsls	r3, r3, #2
 8005d58:	270f      	movs	r7, #15
 8005d5a:	409f      	lsls	r7, r3
 8005d5c:	f1b0 4f90 	cmp.w	r0, #1207959552	; 0x48000000
 8005d60:	ea22 0207 	bic.w	r2, r2, r7
 8005d64:	d013      	beq.n	8005d8e <HAL_GPIO_Init+0xce>
 8005d66:	4f43      	ldr	r7, [pc, #268]	; (8005e74 <HAL_GPIO_Init+0x1b4>)
 8005d68:	42b8      	cmp	r0, r7
 8005d6a:	d072      	beq.n	8005e52 <HAL_GPIO_Init+0x192>
 8005d6c:	4f42      	ldr	r7, [pc, #264]	; (8005e78 <HAL_GPIO_Init+0x1b8>)
 8005d6e:	42b8      	cmp	r0, r7
 8005d70:	d06a      	beq.n	8005e48 <HAL_GPIO_Init+0x188>
 8005d72:	4f42      	ldr	r7, [pc, #264]	; (8005e7c <HAL_GPIO_Init+0x1bc>)
 8005d74:	42b8      	cmp	r0, r7
 8005d76:	d071      	beq.n	8005e5c <HAL_GPIO_Init+0x19c>
 8005d78:	4f41      	ldr	r7, [pc, #260]	; (8005e80 <HAL_GPIO_Init+0x1c0>)
 8005d7a:	42b8      	cmp	r0, r7
 8005d7c:	d073      	beq.n	8005e66 <HAL_GPIO_Init+0x1a6>
 8005d7e:	4f41      	ldr	r7, [pc, #260]	; (8005e84 <HAL_GPIO_Init+0x1c4>)
 8005d80:	42b8      	cmp	r0, r7
 8005d82:	bf0c      	ite	eq
 8005d84:	2705      	moveq	r7, #5
 8005d86:	2706      	movne	r7, #6
 8005d88:	fa07 f303 	lsl.w	r3, r7, r3
 8005d8c:	431a      	orrs	r2, r3
 8005d8e:	60a2      	str	r2, [r4, #8]
 8005d90:	f8de 3000 	ldr.w	r3, [lr]
 8005d94:	43f2      	mvns	r2, r6
 8005d96:	03cc      	lsls	r4, r1, #15
 8005d98:	bf54      	ite	pl
 8005d9a:	4013      	andpl	r3, r2
 8005d9c:	4333      	orrmi	r3, r6
 8005d9e:	f8ce 3000 	str.w	r3, [lr]
 8005da2:	f8de 3004 	ldr.w	r3, [lr, #4]
 8005da6:	038f      	lsls	r7, r1, #14
 8005da8:	bf54      	ite	pl
 8005daa:	4013      	andpl	r3, r2
 8005dac:	4333      	orrmi	r3, r6
 8005dae:	f8ce 3004 	str.w	r3, [lr, #4]
 8005db2:	f8de 3008 	ldr.w	r3, [lr, #8]
 8005db6:	02cc      	lsls	r4, r1, #11
 8005db8:	bf54      	ite	pl
 8005dba:	4013      	andpl	r3, r2
 8005dbc:	4333      	orrmi	r3, r6
 8005dbe:	f8ce 3008 	str.w	r3, [lr, #8]
 8005dc2:	f8de 300c 	ldr.w	r3, [lr, #12]
 8005dc6:	0289      	lsls	r1, r1, #10
 8005dc8:	bf54      	ite	pl
 8005dca:	4013      	andpl	r3, r2
 8005dcc:	4333      	orrmi	r3, r6
 8005dce:	f8ce 300c 	str.w	r3, [lr, #12]
 8005dd2:	3501      	adds	r5, #1
 8005dd4:	fa3c f305 	lsrs.w	r3, ip, r5
 8005dd8:	d181      	bne.n	8005cde <HAL_GPIO_Init+0x1e>
 8005dda:	b003      	add	sp, #12
 8005ddc:	e8bd 8ff0 	ldmia.w	sp!, {r4, r5, r6, r7, r8, r9, sl, fp, pc}
 8005de0:	08ef      	lsrs	r7, r5, #3
 8005de2:	eb00 0787 	add.w	r7, r0, r7, lsl #2
 8005de6:	f005 0407 	and.w	r4, r5, #7
 8005dea:	6a3b      	ldr	r3, [r7, #32]
 8005dec:	00a4      	lsls	r4, r4, #2
 8005dee:	f04f 0a0f 	mov.w	sl, #15
 8005df2:	fa0a fb04 	lsl.w	fp, sl, r4
 8005df6:	ea23 0a0b 	bic.w	sl, r3, fp
 8005dfa:	f8d8 3010 	ldr.w	r3, [r8, #16]
 8005dfe:	40a3      	lsls	r3, r4
 8005e00:	ea43 030a 	orr.w	r3, r3, sl
 8005e04:	623b      	str	r3, [r7, #32]
 8005e06:	006f      	lsls	r7, r5, #1
 8005e08:	2303      	movs	r3, #3
 8005e0a:	f8d0 a000 	ldr.w	sl, [r0]
 8005e0e:	40bb      	lsls	r3, r7
 8005e10:	43db      	mvns	r3, r3
 8005e12:	f001 0403 	and.w	r4, r1, #3
 8005e16:	ea03 0a0a 	and.w	sl, r3, sl
 8005e1a:	40bc      	lsls	r4, r7
 8005e1c:	ea44 040a 	orr.w	r4, r4, sl
 8005e20:	6004      	str	r4, [r0, #0]
 8005e22:	6884      	ldr	r4, [r0, #8]
 8005e24:	ea04 0a03 	and.w	sl, r4, r3
 8005e28:	f8d8 400c 	ldr.w	r4, [r8, #12]
 8005e2c:	40bc      	lsls	r4, r7
 8005e2e:	ea44 040a 	orr.w	r4, r4, sl
 8005e32:	6084      	str	r4, [r0, #8]
 8005e34:	f8d0 a004 	ldr.w	sl, [r0, #4]
 8005e38:	f3c1 1400 	ubfx	r4, r1, #4, #1
 8005e3c:	ea2a 0202 	bic.w	r2, sl, r2
 8005e40:	40ac      	lsls	r4, r5
 8005e42:	4314      	orrs	r4, r2
 8005e44:	6044      	str	r4, [r0, #4]
 8005e46:	e76a      	b.n	8005d1e <HAL_GPIO_Init+0x5e>
 8005e48:	2702      	movs	r7, #2
 8005e4a:	fa07 f303 	lsl.w	r3, r7, r3
 8005e4e:	431a      	orrs	r2, r3
 8005e50:	e79d      	b.n	8005d8e <HAL_GPIO_Init+0xce>
 8005e52:	fa09 f303 	lsl.w	r3, r9, r3
 8005e56:	431a      	orrs	r2, r3
 8005e58:	e799      	b.n	8005d8e <HAL_GPIO_Init+0xce>
 8005e5a:	4770      	bx	lr
 8005e5c:	2703      	movs	r7, #3
 8005e5e:	fa07 f303 	lsl.w	r3, r7, r3
 8005e62:	431a      	orrs	r2, r3
 8005e64:	e793      	b.n	8005d8e <HAL_GPIO_Init+0xce>
 8005e66:	2704      	movs	r7, #4
 8005e68:	fa07 f303 	lsl.w	r3, r7, r3
 8005e6c:	431a      	orrs	r2, r3
 8005e6e:	e78e      	b.n	8005d8e <HAL_GPIO_Init+0xce>
 8005e70:	40021000 	.word	0x40021000
 8005e74:	48000400 	.word	0x48000400
 8005e78:	48000800 	.word	0x48000800
 8005e7c:	48000c00 	.word	0x48000c00
 8005e80:	48001000 	.word	0x48001000
 8005e84:	48001400 	.word	0x48001400
 8005e88:	40010400 	.word	0x40010400

08005e8c <HAL_GPIO_DeInit>:
 8005e8c:	2900      	cmp	r1, #0
 8005e8e:	f000 808e 	beq.w	8005fae <HAL_GPIO_DeInit+0x122>
 8005e92:	e92d 4ff0 	stmdb	sp!, {r4, r5, r6, r7, r8, r9, sl, fp, lr}
 8005e96:	f8df 812c 	ldr.w	r8, [pc, #300]	; 8005fc4 <HAL_GPIO_DeInit+0x138>
 8005e9a:	b083      	sub	sp, #12
 8005e9c:	2300      	movs	r3, #0
 8005e9e:	f04f 0901 	mov.w	r9, #1
 8005ea2:	f04f 0a0f 	mov.w	sl, #15
 8005ea6:	f04f 0b03 	mov.w	fp, #3
 8005eaa:	fa09 f503 	lsl.w	r5, r9, r3
 8005eae:	ea15 0601 	ands.w	r6, r5, r1
 8005eb2:	d061      	beq.n	8005f78 <HAL_GPIO_DeInit+0xec>
 8005eb4:	f023 0403 	bic.w	r4, r3, #3
 8005eb8:	f104 4480 	add.w	r4, r4, #1073741824	; 0x40000000
 8005ebc:	f504 3480 	add.w	r4, r4, #65536	; 0x10000
 8005ec0:	f003 0203 	and.w	r2, r3, #3
 8005ec4:	68a7      	ldr	r7, [r4, #8]
 8005ec6:	0092      	lsls	r2, r2, #2
 8005ec8:	fa0a fc02 	lsl.w	ip, sl, r2
 8005ecc:	ea0c 0707 	and.w	r7, ip, r7
 8005ed0:	f1b0 4f90 	cmp.w	r0, #1207959552	; 0x48000000
 8005ed4:	9701      	str	r7, [sp, #4]
 8005ed6:	d016      	beq.n	8005f06 <HAL_GPIO_DeInit+0x7a>
 8005ed8:	4f35      	ldr	r7, [pc, #212]	; (8005fb0 <HAL_GPIO_DeInit+0x124>)
 8005eda:	42b8      	cmp	r0, r7
 8005edc:	d053      	beq.n	8005f86 <HAL_GPIO_DeInit+0xfa>
 8005ede:	4f35      	ldr	r7, [pc, #212]	; (8005fb4 <HAL_GPIO_DeInit+0x128>)
 8005ee0:	42b8      	cmp	r0, r7
 8005ee2:	d05a      	beq.n	8005f9a <HAL_GPIO_DeInit+0x10e>
 8005ee4:	4f34      	ldr	r7, [pc, #208]	; (8005fb8 <HAL_GPIO_DeInit+0x12c>)
 8005ee6:	42b8      	cmp	r0, r7
 8005ee8:	d05d      	beq.n	8005fa6 <HAL_GPIO_DeInit+0x11a>
 8005eea:	4f34      	ldr	r7, [pc, #208]	; (8005fbc <HAL_GPIO_DeInit+0x130>)
 8005eec:	42b8      	cmp	r0, r7
 8005eee:	d04e      	beq.n	8005f8e <HAL_GPIO_DeInit+0x102>
 8005ef0:	4f33      	ldr	r7, [pc, #204]	; (8005fc0 <HAL_GPIO_DeInit+0x134>)
 8005ef2:	42b8      	cmp	r0, r7
 8005ef4:	bf14      	ite	ne
 8005ef6:	f04f 0e06 	movne.w	lr, #6
 8005efa:	f04f 0e05 	moveq.w	lr, #5
 8005efe:	fa0e f202 	lsl.w	r2, lr, r2
 8005f02:	9f01      	ldr	r7, [sp, #4]
 8005f04:	e000      	b.n	8005f08 <HAL_GPIO_DeInit+0x7c>
 8005f06:	2200      	movs	r2, #0
 8005f08:	4297      	cmp	r7, r2
 8005f0a:	d118      	bne.n	8005f3e <HAL_GPIO_DeInit+0xb2>
 8005f0c:	f8d8 2000 	ldr.w	r2, [r8]
 8005f10:	43f6      	mvns	r6, r6
 8005f12:	4032      	ands	r2, r6
 8005f14:	f8c8 2000 	str.w	r2, [r8]
 8005f18:	f8d8 2004 	ldr.w	r2, [r8, #4]
 8005f1c:	4032      	ands	r2, r6
 8005f1e:	f8c8 2004 	str.w	r2, [r8, #4]
 8005f22:	f8d8 2008 	ldr.w	r2, [r8, #8]
 8005f26:	4032      	ands	r2, r6
 8005f28:	f8c8 2008 	str.w	r2, [r8, #8]
 8005f2c:	f8d8 200c 	ldr.w	r2, [r8, #12]
 8005f30:	4016      	ands	r6, r2
 8005f32:	f8c8 600c 	str.w	r6, [r8, #12]
 8005f36:	68a2      	ldr	r2, [r4, #8]
 8005f38:	ea22 020c 	bic.w	r2, r2, ip
 8005f3c:	60a2      	str	r2, [r4, #8]
 8005f3e:	6804      	ldr	r4, [r0, #0]
 8005f40:	005a      	lsls	r2, r3, #1
 8005f42:	fa0b f202 	lsl.w	r2, fp, r2
 8005f46:	08de      	lsrs	r6, r3, #3
 8005f48:	4314      	orrs	r4, r2
 8005f4a:	eb00 0686 	add.w	r6, r0, r6, lsl #2
 8005f4e:	6004      	str	r4, [r0, #0]
 8005f50:	f003 0407 	and.w	r4, r3, #7
 8005f54:	6a37      	ldr	r7, [r6, #32]
 8005f56:	00a4      	lsls	r4, r4, #2
 8005f58:	fa0a f404 	lsl.w	r4, sl, r4
 8005f5c:	ea27 0404 	bic.w	r4, r7, r4
 8005f60:	6234      	str	r4, [r6, #32]
 8005f62:	6884      	ldr	r4, [r0, #8]
 8005f64:	43d2      	mvns	r2, r2
 8005f66:	4014      	ands	r4, r2
 8005f68:	6084      	str	r4, [r0, #8]
 8005f6a:	6844      	ldr	r4, [r0, #4]
 8005f6c:	ea24 0505 	bic.w	r5, r4, r5
 8005f70:	6045      	str	r5, [r0, #4]
 8005f72:	68c4      	ldr	r4, [r0, #12]
 8005f74:	4022      	ands	r2, r4
 8005f76:	60c2      	str	r2, [r0, #12]
 8005f78:	3301      	adds	r3, #1
 8005f7a:	fa31 f203 	lsrs.w	r2, r1, r3
 8005f7e:	d194      	bne.n	8005eaa <HAL_GPIO_DeInit+0x1e>
 8005f80:	b003      	add	sp, #12
 8005f82:	e8bd 8ff0 	ldmia.w	sp!, {r4, r5, r6, r7, r8, r9, sl, fp, pc}
 8005f86:	fa09 f202 	lsl.w	r2, r9, r2
 8005f8a:	9f01      	ldr	r7, [sp, #4]
 8005f8c:	e7bc      	b.n	8005f08 <HAL_GPIO_DeInit+0x7c>
 8005f8e:	f04f 0e04 	mov.w	lr, #4
 8005f92:	fa0e f202 	lsl.w	r2, lr, r2
 8005f96:	9f01      	ldr	r7, [sp, #4]
 8005f98:	e7b6      	b.n	8005f08 <HAL_GPIO_DeInit+0x7c>
 8005f9a:	f04f 0e02 	mov.w	lr, #2
 8005f9e:	fa0e f202 	lsl.w	r2, lr, r2
 8005fa2:	9f01      	ldr	r7, [sp, #4]
 8005fa4:	e7b0      	b.n	8005f08 <HAL_GPIO_DeInit+0x7c>
 8005fa6:	fa0b f202 	lsl.w	r2, fp, r2
 8005faa:	9f01      	ldr	r7, [sp, #4]
 8005fac:	e7ac      	b.n	8005f08 <HAL_GPIO_DeInit+0x7c>
 8005fae:	4770      	bx	lr
 8005fb0:	48000400 	.word	0x48000400
 8005fb4:	48000800 	.word	0x48000800
 8005fb8:	48000c00 	.word	0x48000c00
 8005fbc:	48001000 	.word	0x48001000
 8005fc0:	48001400 	.word	0x48001400
 8005fc4:	40010400 	.word	0x40010400

08005fc8 <HAL_OPAMP_Init>:
 8005fc8:	2800      	cmp	r0, #0
 8005fca:	d05c      	beq.n	8006086 <HAL_OPAMP_Init+0xbe>
 8005fcc:	f890 303a 	ldrb.w	r3, [r0, #58]	; 0x3a
 8005fd0:	2b05      	cmp	r3, #5
 8005fd2:	d058      	beq.n	8006086 <HAL_OPAMP_Init+0xbe>
 8005fd4:	f890 303a 	ldrb.w	r3, [r0, #58]	; 0x3a
 8005fd8:	2b02      	cmp	r3, #2
 8005fda:	d054      	beq.n	8006086 <HAL_OPAMP_Init+0xbe>
 8005fdc:	4b3a      	ldr	r3, [pc, #232]	; (80060c8 <HAL_OPAMP_Init+0x100>)
 8005fde:	b570      	push	{r4, r5, r6, lr}
 8005fe0:	6e1a      	ldr	r2, [r3, #96]	; 0x60
 8005fe2:	f042 0201 	orr.w	r2, r2, #1
 8005fe6:	661a      	str	r2, [r3, #96]	; 0x60
 8005fe8:	6e1b      	ldr	r3, [r3, #96]	; 0x60
 8005fea:	b082      	sub	sp, #8
 8005fec:	f003 0301 	and.w	r3, r3, #1
 8005ff0:	9301      	str	r3, [sp, #4]
 8005ff2:	9b01      	ldr	r3, [sp, #4]
 8005ff4:	f890 303a 	ldrb.w	r3, [r0, #58]	; 0x3a
 8005ff8:	f003 02ff 	and.w	r2, r3, #255	; 0xff
 8005ffc:	2b00      	cmp	r3, #0
 8005ffe:	d044      	beq.n	800608a <HAL_OPAMP_Init+0xc2>
 8006000:	4604      	mov	r4, r0
 8006002:	f7fc ffa1 	bl	8002f48 <HAL_OPAMP_MspInit>
 8006006:	68a3      	ldr	r3, [r4, #8]
 8006008:	f023 0220 	bic.w	r2, r3, #32
 800600c:	2a40      	cmp	r2, #64	; 0x40
 800600e:	6822      	ldr	r2, [r4, #0]
 8006010:	d041      	beq.n	8006096 <HAL_OPAMP_Init+0xce>
 8006012:	6860      	ldr	r0, [r4, #4]
 8006014:	68e6      	ldr	r6, [r4, #12]
 8006016:	6811      	ldr	r1, [r2, #0]
 8006018:	6925      	ldr	r5, [r4, #16]
 800601a:	4303      	orrs	r3, r0
 800601c:	4333      	orrs	r3, r6
 800601e:	6ae0      	ldr	r0, [r4, #44]	; 0x2c
 8006020:	6a66      	ldr	r6, [r4, #36]	; 0x24
 8006022:	432b      	orrs	r3, r5
 8006024:	f021 0110 	bic.w	r1, r1, #16
 8006028:	4301      	orrs	r1, r0
 800602a:	6aa5      	ldr	r5, [r4, #40]	; 0x28
 800602c:	6011      	str	r1, [r2, #0]
 800602e:	4333      	orrs	r3, r6
 8006030:	e9d4 600c 	ldrd	r6, r0, [r4, #48]	; 0x30
 8006034:	432b      	orrs	r3, r5
 8006036:	4925      	ldr	r1, [pc, #148]	; (80060cc <HAL_OPAMP_Init+0x104>)
 8006038:	6815      	ldr	r5, [r2, #0]
 800603a:	ea43 43c6 	orr.w	r3, r3, r6, lsl #19
 800603e:	ea43 6300 	orr.w	r3, r3, r0, lsl #24
 8006042:	7d20      	ldrb	r0, [r4, #20]
 8006044:	4029      	ands	r1, r5
 8006046:	2801      	cmp	r0, #1
 8006048:	ea43 0301 	orr.w	r3, r3, r1
 800604c:	bf14      	ite	ne
 800604e:	2100      	movne	r1, #0
 8006050:	f44f 7180 	moveq.w	r1, #256	; 0x100
 8006054:	430b      	orrs	r3, r1
 8006056:	6013      	str	r3, [r2, #0]
 8006058:	6993      	ldr	r3, [r2, #24]
 800605a:	2b00      	cmp	r3, #0
 800605c:	db09      	blt.n	8006072 <HAL_OPAMP_Init+0xaa>
 800605e:	e9d4 3506 	ldrd	r3, r5, [r4, #24]
 8006062:	6a20      	ldr	r0, [r4, #32]
 8006064:	6991      	ldr	r1, [r2, #24]
 8006066:	432b      	orrs	r3, r5
 8006068:	4303      	orrs	r3, r0
 800606a:	f021 013f 	bic.w	r1, r1, #63	; 0x3f
 800606e:	430b      	orrs	r3, r1
 8006070:	6193      	str	r3, [r2, #24]
 8006072:	f894 303a 	ldrb.w	r3, [r4, #58]	; 0x3a
 8006076:	f003 00ff 	and.w	r0, r3, #255	; 0xff
 800607a:	b94b      	cbnz	r3, 8006090 <HAL_OPAMP_Init+0xc8>
 800607c:	2301      	movs	r3, #1
 800607e:	f884 303a 	strb.w	r3, [r4, #58]	; 0x3a
 8006082:	b002      	add	sp, #8
 8006084:	bd70      	pop	{r4, r5, r6, pc}
 8006086:	2001      	movs	r0, #1
 8006088:	4770      	bx	lr
 800608a:	f880 2039 	strb.w	r2, [r0, #57]	; 0x39
 800608e:	e7b7      	b.n	8006000 <HAL_OPAMP_Init+0x38>
 8006090:	2000      	movs	r0, #0
 8006092:	b002      	add	sp, #8
 8006094:	bd70      	pop	{r4, r5, r6, pc}
 8006096:	6866      	ldr	r6, [r4, #4]
 8006098:	6811      	ldr	r1, [r2, #0]
 800609a:	6920      	ldr	r0, [r4, #16]
 800609c:	6ae5      	ldr	r5, [r4, #44]	; 0x2c
 800609e:	4333      	orrs	r3, r6
 80060a0:	4303      	orrs	r3, r0
 80060a2:	f021 0110 	bic.w	r1, r1, #16
 80060a6:	6a60      	ldr	r0, [r4, #36]	; 0x24
 80060a8:	4329      	orrs	r1, r5
 80060aa:	6aa5      	ldr	r5, [r4, #40]	; 0x28
 80060ac:	6011      	str	r1, [r2, #0]
 80060ae:	4303      	orrs	r3, r0
 80060b0:	6b20      	ldr	r0, [r4, #48]	; 0x30
 80060b2:	6816      	ldr	r6, [r2, #0]
 80060b4:	4905      	ldr	r1, [pc, #20]	; (80060cc <HAL_OPAMP_Init+0x104>)
 80060b6:	432b      	orrs	r3, r5
 80060b8:	6b65      	ldr	r5, [r4, #52]	; 0x34
 80060ba:	ea43 43c0 	orr.w	r3, r3, r0, lsl #19
 80060be:	4031      	ands	r1, r6
 80060c0:	7d20      	ldrb	r0, [r4, #20]
 80060c2:	ea43 6305 	orr.w	r3, r3, r5, lsl #24
 80060c6:	e7be      	b.n	8006046 <HAL_OPAMP_Init+0x7e>
 80060c8:	40021000 	.word	0x40021000
 80060cc:	e0003e11 	.word	0xe0003e11

080060d0 <HAL_PWREx_ControlVoltageScaling>:
 80060d0:	4a3b      	ldr	r2, [pc, #236]	; (80061c0 <HAL_PWREx_ControlVoltageScaling+0xf0>)
 80060d2:	b410      	push	{r4}
 80060d4:	6813      	ldr	r3, [r2, #0]
 80060d6:	b968      	cbnz	r0, 80060f4 <HAL_PWREx_ControlVoltageScaling+0x24>
 80060d8:	f403 63c0 	and.w	r3, r3, #1536	; 0x600
 80060dc:	f5b3 6f80 	cmp.w	r3, #1024	; 0x400
 80060e0:	d014      	beq.n	800610c <HAL_PWREx_ControlVoltageScaling+0x3c>
 80060e2:	f8d2 3080 	ldr.w	r3, [r2, #128]	; 0x80
 80060e6:	f85d 4b04 	ldr.w	r4, [sp], #4
 80060ea:	f423 7380 	bic.w	r3, r3, #256	; 0x100
 80060ee:	f8c2 3080 	str.w	r3, [r2, #128]	; 0x80
 80060f2:	4770      	bx	lr
 80060f4:	f5b0 7f00 	cmp.w	r0, #512	; 0x200
 80060f8:	d02f      	beq.n	800615a <HAL_PWREx_ControlVoltageScaling+0x8a>
 80060fa:	f423 63c0 	bic.w	r3, r3, #1536	; 0x600
 80060fe:	f443 6380 	orr.w	r3, r3, #1024	; 0x400
 8006102:	6013      	str	r3, [r2, #0]
 8006104:	2000      	movs	r0, #0
 8006106:	f85d 4b04 	ldr.w	r4, [sp], #4
 800610a:	4770      	bx	lr
 800610c:	f8d2 1080 	ldr.w	r1, [r2, #128]	; 0x80
 8006110:	4b2c      	ldr	r3, [pc, #176]	; (80061c4 <HAL_PWREx_ControlVoltageScaling+0xf4>)
 8006112:	482d      	ldr	r0, [pc, #180]	; (80061c8 <HAL_PWREx_ControlVoltageScaling+0xf8>)
 8006114:	f421 7180 	bic.w	r1, r1, #256	; 0x100
 8006118:	f8c2 1080 	str.w	r1, [r2, #128]	; 0x80
 800611c:	6811      	ldr	r1, [r2, #0]
 800611e:	f421 61c0 	bic.w	r1, r1, #1536	; 0x600
 8006122:	f441 7100 	orr.w	r1, r1, #512	; 0x200
 8006126:	6011      	str	r1, [r2, #0]
 8006128:	681c      	ldr	r4, [r3, #0]
 800612a:	6951      	ldr	r1, [r2, #20]
 800612c:	2332      	movs	r3, #50	; 0x32
 800612e:	fb03 f304 	mul.w	r3, r3, r4
 8006132:	fba0 0303 	umull	r0, r3, r0, r3
 8006136:	0c9b      	lsrs	r3, r3, #18
 8006138:	0548      	lsls	r0, r1, #21
 800613a:	f103 0301 	add.w	r3, r3, #1
 800613e:	d506      	bpl.n	800614e <HAL_PWREx_ControlVoltageScaling+0x7e>
 8006140:	e000      	b.n	8006144 <HAL_PWREx_ControlVoltageScaling+0x74>
 8006142:	b123      	cbz	r3, 800614e <HAL_PWREx_ControlVoltageScaling+0x7e>
 8006144:	6951      	ldr	r1, [r2, #20]
 8006146:	0549      	lsls	r1, r1, #21
 8006148:	f103 33ff 	add.w	r3, r3, #4294967295
 800614c:	d4f9      	bmi.n	8006142 <HAL_PWREx_ControlVoltageScaling+0x72>
 800614e:	4b1c      	ldr	r3, [pc, #112]	; (80061c0 <HAL_PWREx_ControlVoltageScaling+0xf0>)
 8006150:	695b      	ldr	r3, [r3, #20]
 8006152:	055c      	lsls	r4, r3, #21
 8006154:	d5d6      	bpl.n	8006104 <HAL_PWREx_ControlVoltageScaling+0x34>
 8006156:	2003      	movs	r0, #3
 8006158:	e7d5      	b.n	8006106 <HAL_PWREx_ControlVoltageScaling+0x36>
 800615a:	f403 63c0 	and.w	r3, r3, #1536	; 0x600
 800615e:	f5b3 6f80 	cmp.w	r3, #1024	; 0x400
 8006162:	d009      	beq.n	8006178 <HAL_PWREx_ControlVoltageScaling+0xa8>
 8006164:	f8d2 3080 	ldr.w	r3, [r2, #128]	; 0x80
 8006168:	f85d 4b04 	ldr.w	r4, [sp], #4
 800616c:	f443 7380 	orr.w	r3, r3, #256	; 0x100
 8006170:	2000      	movs	r0, #0
 8006172:	f8c2 3080 	str.w	r3, [r2, #128]	; 0x80
 8006176:	4770      	bx	lr
 8006178:	f8d2 1080 	ldr.w	r1, [r2, #128]	; 0x80
 800617c:	4b11      	ldr	r3, [pc, #68]	; (80061c4 <HAL_PWREx_ControlVoltageScaling+0xf4>)
 800617e:	4812      	ldr	r0, [pc, #72]	; (80061c8 <HAL_PWREx_ControlVoltageScaling+0xf8>)
 8006180:	f441 7180 	orr.w	r1, r1, #256	; 0x100
 8006184:	f8c2 1080 	str.w	r1, [r2, #128]	; 0x80
 8006188:	6811      	ldr	r1, [r2, #0]
 800618a:	f421 61c0 	bic.w	r1, r1, #1536	; 0x600
 800618e:	f441 7100 	orr.w	r1, r1, #512	; 0x200
 8006192:	6011      	str	r1, [r2, #0]
 8006194:	681c      	ldr	r4, [r3, #0]
 8006196:	6951      	ldr	r1, [r2, #20]
 8006198:	2332      	movs	r3, #50	; 0x32
 800619a:	fb03 f304 	mul.w	r3, r3, r4
 800619e:	fba0 0303 	umull	r0, r3, r0, r3
 80061a2:	0c9b      	lsrs	r3, r3, #18
 80061a4:	0548      	lsls	r0, r1, #21
 80061a6:	f103 0301 	add.w	r3, r3, #1
 80061aa:	d5d0      	bpl.n	800614e <HAL_PWREx_ControlVoltageScaling+0x7e>
 80061ac:	e001      	b.n	80061b2 <HAL_PWREx_ControlVoltageScaling+0xe2>
 80061ae:	2b00      	cmp	r3, #0
 80061b0:	d0cd      	beq.n	800614e <HAL_PWREx_ControlVoltageScaling+0x7e>
 80061b2:	6951      	ldr	r1, [r2, #20]
 80061b4:	0549      	lsls	r1, r1, #21
 80061b6:	f103 33ff 	add.w	r3, r3, #4294967295
 80061ba:	d5c8      	bpl.n	800614e <HAL_PWREx_ControlVoltageScaling+0x7e>
 80061bc:	e7f7      	b.n	80061ae <HAL_PWREx_ControlVoltageScaling+0xde>
 80061be:	bf00      	nop
 80061c0:	40007000 	.word	0x40007000
 80061c4:	200005e0 	.word	0x200005e0
 80061c8:	431bde83 	.word	0x431bde83

080061cc <HAL_RCC_OscConfig>:
 80061cc:	2800      	cmp	r0, #0
 80061ce:	f000 816c 	beq.w	80064aa <HAL_RCC_OscConfig+0x2de>
 80061d2:	e92d 41f0 	stmdb	sp!, {r4, r5, r6, r7, r8, lr}
 80061d6:	6803      	ldr	r3, [r0, #0]
 80061d8:	07d9      	lsls	r1, r3, #31
 80061da:	b082      	sub	sp, #8
 80061dc:	4604      	mov	r4, r0
 80061de:	d52d      	bpl.n	800623c <HAL_RCC_OscConfig+0x70>
 80061e0:	49b7      	ldr	r1, [pc, #732]	; (80064c0 <HAL_RCC_OscConfig+0x2f4>)
 80061e2:	688a      	ldr	r2, [r1, #8]
 80061e4:	68c9      	ldr	r1, [r1, #12]
 80061e6:	f002 020c 	and.w	r2, r2, #12
 80061ea:	2a0c      	cmp	r2, #12
 80061ec:	f000 80f5 	beq.w	80063da <HAL_RCC_OscConfig+0x20e>
 80061f0:	2a08      	cmp	r2, #8
 80061f2:	f000 80f7 	beq.w	80063e4 <HAL_RCC_OscConfig+0x218>
 80061f6:	6863      	ldr	r3, [r4, #4]
 80061f8:	f5b3 3f80 	cmp.w	r3, #65536	; 0x10000
 80061fc:	f000 812e 	beq.w	800645c <HAL_RCC_OscConfig+0x290>
 8006200:	f5b3 2fa0 	cmp.w	r3, #327680	; 0x50000
 8006204:	f000 81e0 	beq.w	80065c8 <HAL_RCC_OscConfig+0x3fc>
 8006208:	4dad      	ldr	r5, [pc, #692]	; (80064c0 <HAL_RCC_OscConfig+0x2f4>)
 800620a:	682a      	ldr	r2, [r5, #0]
 800620c:	f422 3280 	bic.w	r2, r2, #65536	; 0x10000
 8006210:	602a      	str	r2, [r5, #0]
 8006212:	682a      	ldr	r2, [r5, #0]
 8006214:	f422 2280 	bic.w	r2, r2, #262144	; 0x40000
 8006218:	602a      	str	r2, [r5, #0]
 800621a:	2b00      	cmp	r3, #0
 800621c:	f040 8123 	bne.w	8006466 <HAL_RCC_OscConfig+0x29a>
 8006220:	f7fd fe24 	bl	8003e6c <HAL_GetTick>
 8006224:	4606      	mov	r6, r0
 8006226:	e005      	b.n	8006234 <HAL_RCC_OscConfig+0x68>
 8006228:	f7fd fe20 	bl	8003e6c <HAL_GetTick>
 800622c:	1b80      	subs	r0, r0, r6
 800622e:	2864      	cmp	r0, #100	; 0x64
 8006230:	f200 8137 	bhi.w	80064a2 <HAL_RCC_OscConfig+0x2d6>
 8006234:	682b      	ldr	r3, [r5, #0]
 8006236:	039f      	lsls	r7, r3, #14
 8006238:	d4f6      	bmi.n	8006228 <HAL_RCC_OscConfig+0x5c>
 800623a:	6823      	ldr	r3, [r4, #0]
 800623c:	079e      	lsls	r6, r3, #30
 800623e:	f100 80a5 	bmi.w	800638c <HAL_RCC_OscConfig+0x1c0>
 8006242:	071a      	lsls	r2, r3, #28
 8006244:	d519      	bpl.n	800627a <HAL_RCC_OscConfig+0xae>
 8006246:	6963      	ldr	r3, [r4, #20]
 8006248:	4d9d      	ldr	r5, [pc, #628]	; (80064c0 <HAL_RCC_OscConfig+0x2f4>)
 800624a:	2b00      	cmp	r3, #0
 800624c:	f000 80d7 	beq.w	80063fe <HAL_RCC_OscConfig+0x232>
 8006250:	f8d5 3094 	ldr.w	r3, [r5, #148]	; 0x94
 8006254:	f043 0301 	orr.w	r3, r3, #1
 8006258:	f8c5 3094 	str.w	r3, [r5, #148]	; 0x94
 800625c:	f7fd fe06 	bl	8003e6c <HAL_GetTick>
 8006260:	4606      	mov	r6, r0
 8006262:	e005      	b.n	8006270 <HAL_RCC_OscConfig+0xa4>
 8006264:	f7fd fe02 	bl	8003e6c <HAL_GetTick>
 8006268:	1b80      	subs	r0, r0, r6
 800626a:	2802      	cmp	r0, #2
 800626c:	f200 8119 	bhi.w	80064a2 <HAL_RCC_OscConfig+0x2d6>
 8006270:	f8d5 3094 	ldr.w	r3, [r5, #148]	; 0x94
 8006274:	079f      	lsls	r7, r3, #30
 8006276:	d5f5      	bpl.n	8006264 <HAL_RCC_OscConfig+0x98>
 8006278:	6823      	ldr	r3, [r4, #0]
 800627a:	0759      	lsls	r1, r3, #29
 800627c:	d53f      	bpl.n	80062fe <HAL_RCC_OscConfig+0x132>
 800627e:	4b90      	ldr	r3, [pc, #576]	; (80064c0 <HAL_RCC_OscConfig+0x2f4>)
 8006280:	6d9a      	ldr	r2, [r3, #88]	; 0x58
 8006282:	00d2      	lsls	r2, r2, #3
 8006284:	f100 812b 	bmi.w	80064de <HAL_RCC_OscConfig+0x312>
 8006288:	6d9a      	ldr	r2, [r3, #88]	; 0x58
 800628a:	f042 5280 	orr.w	r2, r2, #268435456	; 0x10000000
 800628e:	659a      	str	r2, [r3, #88]	; 0x58
 8006290:	6d9b      	ldr	r3, [r3, #88]	; 0x58
 8006292:	f003 5380 	and.w	r3, r3, #268435456	; 0x10000000
 8006296:	9301      	str	r3, [sp, #4]
 8006298:	9b01      	ldr	r3, [sp, #4]
 800629a:	2601      	movs	r6, #1
 800629c:	4d89      	ldr	r5, [pc, #548]	; (80064c4 <HAL_RCC_OscConfig+0x2f8>)
 800629e:	682a      	ldr	r2, [r5, #0]
 80062a0:	05d7      	lsls	r7, r2, #23
 80062a2:	f140 80ee 	bpl.w	8006482 <HAL_RCC_OscConfig+0x2b6>
 80062a6:	68a3      	ldr	r3, [r4, #8]
 80062a8:	2b01      	cmp	r3, #1
 80062aa:	f000 811a 	beq.w	80064e2 <HAL_RCC_OscConfig+0x316>
 80062ae:	2b05      	cmp	r3, #5
 80062b0:	f000 81cb 	beq.w	800664a <HAL_RCC_OscConfig+0x47e>
 80062b4:	4d82      	ldr	r5, [pc, #520]	; (80064c0 <HAL_RCC_OscConfig+0x2f4>)
 80062b6:	f8d5 2090 	ldr.w	r2, [r5, #144]	; 0x90
 80062ba:	f022 0201 	bic.w	r2, r2, #1
 80062be:	f8c5 2090 	str.w	r2, [r5, #144]	; 0x90
 80062c2:	f8d5 2090 	ldr.w	r2, [r5, #144]	; 0x90
 80062c6:	f022 0204 	bic.w	r2, r2, #4
 80062ca:	f8c5 2090 	str.w	r2, [r5, #144]	; 0x90
 80062ce:	2b00      	cmp	r3, #0
 80062d0:	f040 810e 	bne.w	80064f0 <HAL_RCC_OscConfig+0x324>
 80062d4:	f7fd fdca 	bl	8003e6c <HAL_GetTick>
 80062d8:	f241 3788 	movw	r7, #5000	; 0x1388
 80062dc:	4680      	mov	r8, r0
 80062de:	e006      	b.n	80062ee <HAL_RCC_OscConfig+0x122>
 80062e0:	f7fd fdc4 	bl	8003e6c <HAL_GetTick>
 80062e4:	eba0 0008 	sub.w	r0, r0, r8
 80062e8:	42b8      	cmp	r0, r7
 80062ea:	f200 80da 	bhi.w	80064a2 <HAL_RCC_OscConfig+0x2d6>
 80062ee:	f8d5 3090 	ldr.w	r3, [r5, #144]	; 0x90
 80062f2:	079a      	lsls	r2, r3, #30
 80062f4:	d4f4      	bmi.n	80062e0 <HAL_RCC_OscConfig+0x114>
 80062f6:	2e00      	cmp	r6, #0
 80062f8:	f040 8123 	bne.w	8006542 <HAL_RCC_OscConfig+0x376>
 80062fc:	6823      	ldr	r3, [r4, #0]
 80062fe:	069b      	lsls	r3, r3, #26
 8006300:	d518      	bpl.n	8006334 <HAL_RCC_OscConfig+0x168>
 8006302:	69a3      	ldr	r3, [r4, #24]
 8006304:	4d6e      	ldr	r5, [pc, #440]	; (80064c0 <HAL_RCC_OscConfig+0x2f4>)
 8006306:	2b00      	cmp	r3, #0
 8006308:	f000 8107 	beq.w	800651a <HAL_RCC_OscConfig+0x34e>
 800630c:	f8d5 3098 	ldr.w	r3, [r5, #152]	; 0x98
 8006310:	f043 0301 	orr.w	r3, r3, #1
 8006314:	f8c5 3098 	str.w	r3, [r5, #152]	; 0x98
 8006318:	f7fd fda8 	bl	8003e6c <HAL_GetTick>
 800631c:	4606      	mov	r6, r0
 800631e:	e005      	b.n	800632c <HAL_RCC_OscConfig+0x160>
 8006320:	f7fd fda4 	bl	8003e6c <HAL_GetTick>
 8006324:	1b80      	subs	r0, r0, r6
 8006326:	2802      	cmp	r0, #2
 8006328:	f200 80bb 	bhi.w	80064a2 <HAL_RCC_OscConfig+0x2d6>
 800632c:	f8d5 3098 	ldr.w	r3, [r5, #152]	; 0x98
 8006330:	079f      	lsls	r7, r3, #30
 8006332:	d5f5      	bpl.n	8006320 <HAL_RCC_OscConfig+0x154>
 8006334:	69e0      	ldr	r0, [r4, #28]
 8006336:	b328      	cbz	r0, 8006384 <HAL_RCC_OscConfig+0x1b8>
 8006338:	4d61      	ldr	r5, [pc, #388]	; (80064c0 <HAL_RCC_OscConfig+0x2f4>)
 800633a:	68aa      	ldr	r2, [r5, #8]
 800633c:	f002 020c 	and.w	r2, r2, #12
 8006340:	2a0c      	cmp	r2, #12
 8006342:	f000 814e 	beq.w	80065e2 <HAL_RCC_OscConfig+0x416>
 8006346:	682a      	ldr	r2, [r5, #0]
 8006348:	2802      	cmp	r0, #2
 800634a:	f022 7280 	bic.w	r2, r2, #16777216	; 0x1000000
 800634e:	602a      	str	r2, [r5, #0]
 8006350:	f000 80fd 	beq.w	800654e <HAL_RCC_OscConfig+0x382>
 8006354:	68ea      	ldr	r2, [r5, #12]
 8006356:	f022 0203 	bic.w	r2, r2, #3
 800635a:	60ea      	str	r2, [r5, #12]
 800635c:	68ea      	ldr	r2, [r5, #12]
 800635e:	f022 7288 	bic.w	r2, r2, #17825792	; 0x1100000
 8006362:	f422 3280 	bic.w	r2, r2, #65536	; 0x10000
 8006366:	60ea      	str	r2, [r5, #12]
 8006368:	f7fd fd80 	bl	8003e6c <HAL_GetTick>
 800636c:	462c      	mov	r4, r5
 800636e:	4605      	mov	r5, r0
 8006370:	e005      	b.n	800637e <HAL_RCC_OscConfig+0x1b2>
 8006372:	f7fd fd7b 	bl	8003e6c <HAL_GetTick>
 8006376:	1b40      	subs	r0, r0, r5
 8006378:	2802      	cmp	r0, #2
 800637a:	f200 8092 	bhi.w	80064a2 <HAL_RCC_OscConfig+0x2d6>
 800637e:	6823      	ldr	r3, [r4, #0]
 8006380:	019b      	lsls	r3, r3, #6
 8006382:	d4f6      	bmi.n	8006372 <HAL_RCC_OscConfig+0x1a6>
 8006384:	2000      	movs	r0, #0
 8006386:	b002      	add	sp, #8
 8006388:	e8bd 81f0 	ldmia.w	sp!, {r4, r5, r6, r7, r8, pc}
 800638c:	4a4c      	ldr	r2, [pc, #304]	; (80064c0 <HAL_RCC_OscConfig+0x2f4>)
 800638e:	6893      	ldr	r3, [r2, #8]
 8006390:	68d2      	ldr	r2, [r2, #12]
 8006392:	f003 030c 	and.w	r3, r3, #12
 8006396:	2b0c      	cmp	r3, #12
 8006398:	d045      	beq.n	8006426 <HAL_RCC_OscConfig+0x25a>
 800639a:	2b04      	cmp	r3, #4
 800639c:	d047      	beq.n	800642e <HAL_RCC_OscConfig+0x262>
 800639e:	68e3      	ldr	r3, [r4, #12]
 80063a0:	4d47      	ldr	r5, [pc, #284]	; (80064c0 <HAL_RCC_OscConfig+0x2f4>)
 80063a2:	2b00      	cmp	r3, #0
 80063a4:	f000 8083 	beq.w	80064ae <HAL_RCC_OscConfig+0x2e2>
 80063a8:	682b      	ldr	r3, [r5, #0]
 80063aa:	f443 7380 	orr.w	r3, r3, #256	; 0x100
 80063ae:	602b      	str	r3, [r5, #0]
 80063b0:	f7fd fd5c 	bl	8003e6c <HAL_GetTick>
 80063b4:	4606      	mov	r6, r0
 80063b6:	e004      	b.n	80063c2 <HAL_RCC_OscConfig+0x1f6>
 80063b8:	f7fd fd58 	bl	8003e6c <HAL_GetTick>
 80063bc:	1b80      	subs	r0, r0, r6
 80063be:	2802      	cmp	r0, #2
 80063c0:	d86f      	bhi.n	80064a2 <HAL_RCC_OscConfig+0x2d6>
 80063c2:	682b      	ldr	r3, [r5, #0]
 80063c4:	0558      	lsls	r0, r3, #21
 80063c6:	d5f7      	bpl.n	80063b8 <HAL_RCC_OscConfig+0x1ec>
 80063c8:	686b      	ldr	r3, [r5, #4]
 80063ca:	6922      	ldr	r2, [r4, #16]
 80063cc:	f023 43fe 	bic.w	r3, r3, #2130706432	; 0x7f000000
 80063d0:	ea43 6302 	orr.w	r3, r3, r2, lsl #24
 80063d4:	606b      	str	r3, [r5, #4]
 80063d6:	6823      	ldr	r3, [r4, #0]
 80063d8:	e733      	b.n	8006242 <HAL_RCC_OscConfig+0x76>
 80063da:	f001 0103 	and.w	r1, r1, #3
 80063de:	2903      	cmp	r1, #3
 80063e0:	f47f af09 	bne.w	80061f6 <HAL_RCC_OscConfig+0x2a>
 80063e4:	4a36      	ldr	r2, [pc, #216]	; (80064c0 <HAL_RCC_OscConfig+0x2f4>)
 80063e6:	6812      	ldr	r2, [r2, #0]
 80063e8:	0392      	lsls	r2, r2, #14
 80063ea:	f57f af27 	bpl.w	800623c <HAL_RCC_OscConfig+0x70>
 80063ee:	6862      	ldr	r2, [r4, #4]
 80063f0:	2a00      	cmp	r2, #0
 80063f2:	f47f af23 	bne.w	800623c <HAL_RCC_OscConfig+0x70>
 80063f6:	2001      	movs	r0, #1
 80063f8:	b002      	add	sp, #8
 80063fa:	e8bd 81f0 	ldmia.w	sp!, {r4, r5, r6, r7, r8, pc}
 80063fe:	f8d5 3094 	ldr.w	r3, [r5, #148]	; 0x94
 8006402:	f023 0301 	bic.w	r3, r3, #1
 8006406:	f8c5 3094 	str.w	r3, [r5, #148]	; 0x94
 800640a:	f7fd fd2f 	bl	8003e6c <HAL_GetTick>
 800640e:	4606      	mov	r6, r0
 8006410:	e004      	b.n	800641c <HAL_RCC_OscConfig+0x250>
 8006412:	f7fd fd2b 	bl	8003e6c <HAL_GetTick>
 8006416:	1b80      	subs	r0, r0, r6
 8006418:	2802      	cmp	r0, #2
 800641a:	d842      	bhi.n	80064a2 <HAL_RCC_OscConfig+0x2d6>
 800641c:	f8d5 3094 	ldr.w	r3, [r5, #148]	; 0x94
 8006420:	0798      	lsls	r0, r3, #30
 8006422:	d4f6      	bmi.n	8006412 <HAL_RCC_OscConfig+0x246>
 8006424:	e728      	b.n	8006278 <HAL_RCC_OscConfig+0xac>
 8006426:	f002 0203 	and.w	r2, r2, #3
 800642a:	2a02      	cmp	r2, #2
 800642c:	d1b7      	bne.n	800639e <HAL_RCC_OscConfig+0x1d2>
 800642e:	4b24      	ldr	r3, [pc, #144]	; (80064c0 <HAL_RCC_OscConfig+0x2f4>)
 8006430:	681b      	ldr	r3, [r3, #0]
 8006432:	055d      	lsls	r5, r3, #21
 8006434:	d502      	bpl.n	800643c <HAL_RCC_OscConfig+0x270>
 8006436:	68e3      	ldr	r3, [r4, #12]
 8006438:	2b00      	cmp	r3, #0
 800643a:	d0dc      	beq.n	80063f6 <HAL_RCC_OscConfig+0x22a>
 800643c:	4a20      	ldr	r2, [pc, #128]	; (80064c0 <HAL_RCC_OscConfig+0x2f4>)
 800643e:	6920      	ldr	r0, [r4, #16]
 8006440:	6853      	ldr	r3, [r2, #4]
 8006442:	4921      	ldr	r1, [pc, #132]	; (80064c8 <HAL_RCC_OscConfig+0x2fc>)
 8006444:	f023 43fe 	bic.w	r3, r3, #2130706432	; 0x7f000000
 8006448:	ea43 6300 	orr.w	r3, r3, r0, lsl #24
 800644c:	6053      	str	r3, [r2, #4]
 800644e:	6808      	ldr	r0, [r1, #0]
 8006450:	f7fd fcc6 	bl	8003de0 <HAL_InitTick>
 8006454:	2800      	cmp	r0, #0
 8006456:	d1ce      	bne.n	80063f6 <HAL_RCC_OscConfig+0x22a>
 8006458:	6823      	ldr	r3, [r4, #0]
 800645a:	e6f2      	b.n	8006242 <HAL_RCC_OscConfig+0x76>
 800645c:	4a18      	ldr	r2, [pc, #96]	; (80064c0 <HAL_RCC_OscConfig+0x2f4>)
 800645e:	6813      	ldr	r3, [r2, #0]
 8006460:	f443 3380 	orr.w	r3, r3, #65536	; 0x10000
 8006464:	6013      	str	r3, [r2, #0]
 8006466:	f7fd fd01 	bl	8003e6c <HAL_GetTick>
 800646a:	4d15      	ldr	r5, [pc, #84]	; (80064c0 <HAL_RCC_OscConfig+0x2f4>)
 800646c:	4606      	mov	r6, r0
 800646e:	e004      	b.n	800647a <HAL_RCC_OscConfig+0x2ae>
 8006470:	f7fd fcfc 	bl	8003e6c <HAL_GetTick>
 8006474:	1b80      	subs	r0, r0, r6
 8006476:	2864      	cmp	r0, #100	; 0x64
 8006478:	d813      	bhi.n	80064a2 <HAL_RCC_OscConfig+0x2d6>
 800647a:	682b      	ldr	r3, [r5, #0]
 800647c:	039b      	lsls	r3, r3, #14
 800647e:	d5f7      	bpl.n	8006470 <HAL_RCC_OscConfig+0x2a4>
 8006480:	e6db      	b.n	800623a <HAL_RCC_OscConfig+0x6e>
 8006482:	682a      	ldr	r2, [r5, #0]
 8006484:	f442 7280 	orr.w	r2, r2, #256	; 0x100
 8006488:	602a      	str	r2, [r5, #0]
 800648a:	f7fd fcef 	bl	8003e6c <HAL_GetTick>
 800648e:	4607      	mov	r7, r0
 8006490:	682b      	ldr	r3, [r5, #0]
 8006492:	05d8      	lsls	r0, r3, #23
 8006494:	f53f af07 	bmi.w	80062a6 <HAL_RCC_OscConfig+0xda>
 8006498:	f7fd fce8 	bl	8003e6c <HAL_GetTick>
 800649c:	1bc0      	subs	r0, r0, r7
 800649e:	2802      	cmp	r0, #2
 80064a0:	d9f6      	bls.n	8006490 <HAL_RCC_OscConfig+0x2c4>
 80064a2:	2003      	movs	r0, #3
 80064a4:	b002      	add	sp, #8
 80064a6:	e8bd 81f0 	ldmia.w	sp!, {r4, r5, r6, r7, r8, pc}
 80064aa:	2001      	movs	r0, #1
 80064ac:	4770      	bx	lr
 80064ae:	682b      	ldr	r3, [r5, #0]
 80064b0:	f423 7380 	bic.w	r3, r3, #256	; 0x100
 80064b4:	602b      	str	r3, [r5, #0]
 80064b6:	f7fd fcd9 	bl	8003e6c <HAL_GetTick>
 80064ba:	4606      	mov	r6, r0
 80064bc:	e00b      	b.n	80064d6 <HAL_RCC_OscConfig+0x30a>
 80064be:	bf00      	nop
 80064c0:	40021000 	.word	0x40021000
 80064c4:	40007000 	.word	0x40007000
 80064c8:	200005e8 	.word	0x200005e8
 80064cc:	f7fd fcce 	bl	8003e6c <HAL_GetTick>
 80064d0:	1b80      	subs	r0, r0, r6
 80064d2:	2802      	cmp	r0, #2
 80064d4:	d8e5      	bhi.n	80064a2 <HAL_RCC_OscConfig+0x2d6>
 80064d6:	682b      	ldr	r3, [r5, #0]
 80064d8:	0559      	lsls	r1, r3, #21
 80064da:	d4f7      	bmi.n	80064cc <HAL_RCC_OscConfig+0x300>
 80064dc:	e7bc      	b.n	8006458 <HAL_RCC_OscConfig+0x28c>
 80064de:	2600      	movs	r6, #0
 80064e0:	e6dc      	b.n	800629c <HAL_RCC_OscConfig+0xd0>
 80064e2:	4a61      	ldr	r2, [pc, #388]	; (8006668 <HAL_RCC_OscConfig+0x49c>)
 80064e4:	f8d2 3090 	ldr.w	r3, [r2, #144]	; 0x90
 80064e8:	f043 0301 	orr.w	r3, r3, #1
 80064ec:	f8c2 3090 	str.w	r3, [r2, #144]	; 0x90
 80064f0:	f7fd fcbc 	bl	8003e6c <HAL_GetTick>
 80064f4:	4d5c      	ldr	r5, [pc, #368]	; (8006668 <HAL_RCC_OscConfig+0x49c>)
 80064f6:	4680      	mov	r8, r0
 80064f8:	f241 3788 	movw	r7, #5000	; 0x1388
 80064fc:	e005      	b.n	800650a <HAL_RCC_OscConfig+0x33e>
 80064fe:	f7fd fcb5 	bl	8003e6c <HAL_GetTick>
 8006502:	eba0 0008 	sub.w	r0, r0, r8
 8006506:	42b8      	cmp	r0, r7
 8006508:	d8cb      	bhi.n	80064a2 <HAL_RCC_OscConfig+0x2d6>
 800650a:	f8d5 3090 	ldr.w	r3, [r5, #144]	; 0x90
 800650e:	0799      	lsls	r1, r3, #30
 8006510:	d5f5      	bpl.n	80064fe <HAL_RCC_OscConfig+0x332>
 8006512:	2e00      	cmp	r6, #0
 8006514:	f43f aef2 	beq.w	80062fc <HAL_RCC_OscConfig+0x130>
 8006518:	e013      	b.n	8006542 <HAL_RCC_OscConfig+0x376>
 800651a:	f8d5 3098 	ldr.w	r3, [r5, #152]	; 0x98
 800651e:	f023 0301 	bic.w	r3, r3, #1
 8006522:	f8c5 3098 	str.w	r3, [r5, #152]	; 0x98
 8006526:	f7fd fca1 	bl	8003e6c <HAL_GetTick>
 800652a:	4606      	mov	r6, r0
 800652c:	e004      	b.n	8006538 <HAL_RCC_OscConfig+0x36c>
 800652e:	f7fd fc9d 	bl	8003e6c <HAL_GetTick>
 8006532:	1b80      	subs	r0, r0, r6
 8006534:	2802      	cmp	r0, #2
 8006536:	d8b4      	bhi.n	80064a2 <HAL_RCC_OscConfig+0x2d6>
 8006538:	f8d5 3098 	ldr.w	r3, [r5, #152]	; 0x98
 800653c:	0798      	lsls	r0, r3, #30
 800653e:	d4f6      	bmi.n	800652e <HAL_RCC_OscConfig+0x362>
 8006540:	e6f8      	b.n	8006334 <HAL_RCC_OscConfig+0x168>
 8006542:	4a49      	ldr	r2, [pc, #292]	; (8006668 <HAL_RCC_OscConfig+0x49c>)
 8006544:	6d93      	ldr	r3, [r2, #88]	; 0x58
 8006546:	f023 5380 	bic.w	r3, r3, #268435456	; 0x10000000
 800654a:	6593      	str	r3, [r2, #88]	; 0x58
 800654c:	e6d6      	b.n	80062fc <HAL_RCC_OscConfig+0x130>
 800654e:	f7fd fc8d 	bl	8003e6c <HAL_GetTick>
 8006552:	4606      	mov	r6, r0
 8006554:	e004      	b.n	8006560 <HAL_RCC_OscConfig+0x394>
 8006556:	f7fd fc89 	bl	8003e6c <HAL_GetTick>
 800655a:	1b80      	subs	r0, r0, r6
 800655c:	2802      	cmp	r0, #2
 800655e:	d8a0      	bhi.n	80064a2 <HAL_RCC_OscConfig+0x2d6>
 8006560:	682b      	ldr	r3, [r5, #0]
 8006562:	0199      	lsls	r1, r3, #6
 8006564:	d4f7      	bmi.n	8006556 <HAL_RCC_OscConfig+0x38a>
 8006566:	68e9      	ldr	r1, [r5, #12]
 8006568:	4b40      	ldr	r3, [pc, #256]	; (800666c <HAL_RCC_OscConfig+0x4a0>)
 800656a:	6a22      	ldr	r2, [r4, #32]
 800656c:	6aa7      	ldr	r7, [r4, #40]	; 0x28
 800656e:	6ae6      	ldr	r6, [r4, #44]	; 0x2c
 8006570:	6a60      	ldr	r0, [r4, #36]	; 0x24
 8006572:	400b      	ands	r3, r1
 8006574:	4313      	orrs	r3, r2
 8006576:	e9d4 120c 	ldrd	r1, r2, [r4, #48]	; 0x30
 800657a:	ea43 2307 	orr.w	r3, r3, r7, lsl #8
 800657e:	3801      	subs	r0, #1
 8006580:	ea43 63c6 	orr.w	r3, r3, r6, lsl #27
 8006584:	0849      	lsrs	r1, r1, #1
 8006586:	ea43 1300 	orr.w	r3, r3, r0, lsl #4
 800658a:	3901      	subs	r1, #1
 800658c:	0852      	lsrs	r2, r2, #1
 800658e:	ea43 5341 	orr.w	r3, r3, r1, lsl #21
 8006592:	3a01      	subs	r2, #1
 8006594:	ea43 6342 	orr.w	r3, r3, r2, lsl #25
 8006598:	60eb      	str	r3, [r5, #12]
 800659a:	682b      	ldr	r3, [r5, #0]
 800659c:	4c32      	ldr	r4, [pc, #200]	; (8006668 <HAL_RCC_OscConfig+0x49c>)
 800659e:	f043 7380 	orr.w	r3, r3, #16777216	; 0x1000000
 80065a2:	602b      	str	r3, [r5, #0]
 80065a4:	68eb      	ldr	r3, [r5, #12]
 80065a6:	f043 7380 	orr.w	r3, r3, #16777216	; 0x1000000
 80065aa:	60eb      	str	r3, [r5, #12]
 80065ac:	f7fd fc5e 	bl	8003e6c <HAL_GetTick>
 80065b0:	4605      	mov	r5, r0
 80065b2:	e005      	b.n	80065c0 <HAL_RCC_OscConfig+0x3f4>
 80065b4:	f7fd fc5a 	bl	8003e6c <HAL_GetTick>
 80065b8:	1b40      	subs	r0, r0, r5
 80065ba:	2802      	cmp	r0, #2
 80065bc:	f63f af71 	bhi.w	80064a2 <HAL_RCC_OscConfig+0x2d6>
 80065c0:	6823      	ldr	r3, [r4, #0]
 80065c2:	019a      	lsls	r2, r3, #6
 80065c4:	d5f6      	bpl.n	80065b4 <HAL_RCC_OscConfig+0x3e8>
 80065c6:	e6dd      	b.n	8006384 <HAL_RCC_OscConfig+0x1b8>
 80065c8:	f103 4380 	add.w	r3, r3, #1073741824	; 0x40000000
 80065cc:	f5a3 333c 	sub.w	r3, r3, #192512	; 0x2f000
 80065d0:	681a      	ldr	r2, [r3, #0]
 80065d2:	f442 2280 	orr.w	r2, r2, #262144	; 0x40000
 80065d6:	601a      	str	r2, [r3, #0]
 80065d8:	681a      	ldr	r2, [r3, #0]
 80065da:	f442 3280 	orr.w	r2, r2, #65536	; 0x10000
 80065de:	601a      	str	r2, [r3, #0]
 80065e0:	e741      	b.n	8006466 <HAL_RCC_OscConfig+0x29a>
 80065e2:	2801      	cmp	r0, #1
 80065e4:	f43f af08 	beq.w	80063f8 <HAL_RCC_OscConfig+0x22c>
 80065e8:	68eb      	ldr	r3, [r5, #12]
 80065ea:	6a22      	ldr	r2, [r4, #32]
 80065ec:	f003 0103 	and.w	r1, r3, #3
 80065f0:	4291      	cmp	r1, r2
 80065f2:	f47f af00 	bne.w	80063f6 <HAL_RCC_OscConfig+0x22a>
 80065f6:	6a61      	ldr	r1, [r4, #36]	; 0x24
 80065f8:	f003 02f0 	and.w	r2, r3, #240	; 0xf0
 80065fc:	3901      	subs	r1, #1
 80065fe:	ebb2 1f01 	cmp.w	r2, r1, lsl #4
 8006602:	f47f aef8 	bne.w	80063f6 <HAL_RCC_OscConfig+0x22a>
 8006606:	6aa1      	ldr	r1, [r4, #40]	; 0x28
 8006608:	f403 42fe 	and.w	r2, r3, #32512	; 0x7f00
 800660c:	ebb2 2f01 	cmp.w	r2, r1, lsl #8
 8006610:	f47f aef1 	bne.w	80063f6 <HAL_RCC_OscConfig+0x22a>
 8006614:	6ae1      	ldr	r1, [r4, #44]	; 0x2c
 8006616:	f003 4278 	and.w	r2, r3, #4160749568	; 0xf8000000
 800661a:	ebb2 6fc1 	cmp.w	r2, r1, lsl #27
 800661e:	f47f aeea 	bne.w	80063f6 <HAL_RCC_OscConfig+0x22a>
 8006622:	6b22      	ldr	r2, [r4, #48]	; 0x30
 8006624:	0852      	lsrs	r2, r2, #1
 8006626:	3a01      	subs	r2, #1
 8006628:	f403 01c0 	and.w	r1, r3, #6291456	; 0x600000
 800662c:	ebb1 5f42 	cmp.w	r1, r2, lsl #21
 8006630:	f47f aee1 	bne.w	80063f6 <HAL_RCC_OscConfig+0x22a>
 8006634:	6b62      	ldr	r2, [r4, #52]	; 0x34
 8006636:	0852      	lsrs	r2, r2, #1
 8006638:	3a01      	subs	r2, #1
 800663a:	f003 63c0 	and.w	r3, r3, #100663296	; 0x6000000
 800663e:	ebb3 6f42 	cmp.w	r3, r2, lsl #25
 8006642:	bf14      	ite	ne
 8006644:	2001      	movne	r0, #1
 8006646:	2000      	moveq	r0, #0
 8006648:	e6d6      	b.n	80063f8 <HAL_RCC_OscConfig+0x22c>
 800664a:	4b07      	ldr	r3, [pc, #28]	; (8006668 <HAL_RCC_OscConfig+0x49c>)
 800664c:	f8d3 2090 	ldr.w	r2, [r3, #144]	; 0x90
 8006650:	f042 0204 	orr.w	r2, r2, #4
 8006654:	f8c3 2090 	str.w	r2, [r3, #144]	; 0x90
 8006658:	f8d3 2090 	ldr.w	r2, [r3, #144]	; 0x90
 800665c:	f042 0201 	orr.w	r2, r2, #1
 8006660:	f8c3 2090 	str.w	r2, [r3, #144]	; 0x90
 8006664:	e744      	b.n	80064f0 <HAL_RCC_OscConfig+0x324>
 8006666:	bf00      	nop
 8006668:	40021000 	.word	0x40021000
 800666c:	019f800c 	.word	0x019f800c

08006670 <HAL_RCC_ClockConfig>:
 8006670:	2800      	cmp	r0, #0
 8006672:	f000 8105 	beq.w	8006880 <HAL_RCC_ClockConfig+0x210>
 8006676:	4aad      	ldr	r2, [pc, #692]	; (800692c <HAL_RCC_ClockConfig+0x2bc>)
 8006678:	e92d 43f8 	stmdb	sp!, {r3, r4, r5, r6, r7, r8, r9, lr}
 800667c:	6813      	ldr	r3, [r2, #0]
 800667e:	f003 030f 	and.w	r3, r3, #15
 8006682:	428b      	cmp	r3, r1
 8006684:	d20c      	bcs.n	80066a0 <HAL_RCC_ClockConfig+0x30>
 8006686:	6813      	ldr	r3, [r2, #0]
 8006688:	f023 030f 	bic.w	r3, r3, #15
 800668c:	430b      	orrs	r3, r1
 800668e:	6013      	str	r3, [r2, #0]
 8006690:	6813      	ldr	r3, [r2, #0]
 8006692:	f003 030f 	and.w	r3, r3, #15
 8006696:	428b      	cmp	r3, r1
 8006698:	d002      	beq.n	80066a0 <HAL_RCC_ClockConfig+0x30>
 800669a:	2001      	movs	r0, #1
 800669c:	e8bd 83f8 	ldmia.w	sp!, {r3, r4, r5, r6, r7, r8, r9, pc}
 80066a0:	6803      	ldr	r3, [r0, #0]
 80066a2:	07df      	lsls	r7, r3, #31
 80066a4:	4604      	mov	r4, r0
 80066a6:	460d      	mov	r5, r1
 80066a8:	f140 8088 	bpl.w	80067bc <HAL_RCC_ClockConfig+0x14c>
 80066ac:	6842      	ldr	r2, [r0, #4]
 80066ae:	2a03      	cmp	r2, #3
 80066b0:	f000 80ad 	beq.w	800680e <HAL_RCC_ClockConfig+0x19e>
 80066b4:	4b9e      	ldr	r3, [pc, #632]	; (8006930 <HAL_RCC_ClockConfig+0x2c0>)
 80066b6:	2a02      	cmp	r2, #2
 80066b8:	681b      	ldr	r3, [r3, #0]
 80066ba:	f000 80ff 	beq.w	80068bc <HAL_RCC_ClockConfig+0x24c>
 80066be:	055b      	lsls	r3, r3, #21
 80066c0:	d5eb      	bpl.n	800669a <HAL_RCC_ClockConfig+0x2a>
 80066c2:	4b9b      	ldr	r3, [pc, #620]	; (8006930 <HAL_RCC_ClockConfig+0x2c0>)
 80066c4:	6899      	ldr	r1, [r3, #8]
 80066c6:	f001 010c 	and.w	r1, r1, #12
 80066ca:	2904      	cmp	r1, #4
 80066cc:	d00a      	beq.n	80066e4 <HAL_RCC_ClockConfig+0x74>
 80066ce:	6899      	ldr	r1, [r3, #8]
 80066d0:	f001 010c 	and.w	r1, r1, #12
 80066d4:	2908      	cmp	r1, #8
 80066d6:	d005      	beq.n	80066e4 <HAL_RCC_ClockConfig+0x74>
 80066d8:	6899      	ldr	r1, [r3, #8]
 80066da:	f001 010c 	and.w	r1, r1, #12
 80066de:	290c      	cmp	r1, #12
 80066e0:	f000 80fb 	beq.w	80068da <HAL_RCC_ClockConfig+0x26a>
 80066e4:	f04f 0800 	mov.w	r8, #0
 80066e8:	4e91      	ldr	r6, [pc, #580]	; (8006930 <HAL_RCC_ClockConfig+0x2c0>)
 80066ea:	68b3      	ldr	r3, [r6, #8]
 80066ec:	f023 0303 	bic.w	r3, r3, #3
 80066f0:	431a      	orrs	r2, r3
 80066f2:	60b2      	str	r2, [r6, #8]
 80066f4:	f7fd fbba 	bl	8003e6c <HAL_GetTick>
 80066f8:	f241 3788 	movw	r7, #5000	; 0x1388
 80066fc:	4681      	mov	r9, r0
 80066fe:	e005      	b.n	800670c <HAL_RCC_ClockConfig+0x9c>
 8006700:	f7fd fbb4 	bl	8003e6c <HAL_GetTick>
 8006704:	eba0 0009 	sub.w	r0, r0, r9
 8006708:	42b8      	cmp	r0, r7
 800670a:	d874      	bhi.n	80067f6 <HAL_RCC_ClockConfig+0x186>
 800670c:	68b3      	ldr	r3, [r6, #8]
 800670e:	6862      	ldr	r2, [r4, #4]
 8006710:	f003 030c 	and.w	r3, r3, #12
 8006714:	ebb3 0f82 	cmp.w	r3, r2, lsl #2
 8006718:	d1f2      	bne.n	8006700 <HAL_RCC_ClockConfig+0x90>
 800671a:	6823      	ldr	r3, [r4, #0]
 800671c:	079f      	lsls	r7, r3, #30
 800671e:	f140 80d3 	bpl.w	80068c8 <HAL_RCC_ClockConfig+0x258>
 8006722:	0758      	lsls	r0, r3, #29
 8006724:	d504      	bpl.n	8006730 <HAL_RCC_ClockConfig+0xc0>
 8006726:	4982      	ldr	r1, [pc, #520]	; (8006930 <HAL_RCC_ClockConfig+0x2c0>)
 8006728:	688a      	ldr	r2, [r1, #8]
 800672a:	f442 62e0 	orr.w	r2, r2, #1792	; 0x700
 800672e:	608a      	str	r2, [r1, #8]
 8006730:	0719      	lsls	r1, r3, #28
 8006732:	d506      	bpl.n	8006742 <HAL_RCC_ClockConfig+0xd2>
 8006734:	4a7e      	ldr	r2, [pc, #504]	; (8006930 <HAL_RCC_ClockConfig+0x2c0>)
 8006736:	6893      	ldr	r3, [r2, #8]
 8006738:	f423 537c 	bic.w	r3, r3, #16128	; 0x3f00
 800673c:	f443 63e0 	orr.w	r3, r3, #1792	; 0x700
 8006740:	6093      	str	r3, [r2, #8]
 8006742:	4a7b      	ldr	r2, [pc, #492]	; (8006930 <HAL_RCC_ClockConfig+0x2c0>)
 8006744:	68a1      	ldr	r1, [r4, #8]
 8006746:	6893      	ldr	r3, [r2, #8]
 8006748:	f023 03f0 	bic.w	r3, r3, #240	; 0xf0
 800674c:	430b      	orrs	r3, r1
 800674e:	6093      	str	r3, [r2, #8]
 8006750:	4e76      	ldr	r6, [pc, #472]	; (800692c <HAL_RCC_ClockConfig+0x2bc>)
 8006752:	6832      	ldr	r2, [r6, #0]
 8006754:	f002 020f 	and.w	r2, r2, #15
 8006758:	42aa      	cmp	r2, r5
 800675a:	d837      	bhi.n	80067cc <HAL_RCC_ClockConfig+0x15c>
 800675c:	6823      	ldr	r3, [r4, #0]
 800675e:	075a      	lsls	r2, r3, #29
 8006760:	d506      	bpl.n	8006770 <HAL_RCC_ClockConfig+0x100>
 8006762:	4973      	ldr	r1, [pc, #460]	; (8006930 <HAL_RCC_ClockConfig+0x2c0>)
 8006764:	68e0      	ldr	r0, [r4, #12]
 8006766:	688a      	ldr	r2, [r1, #8]
 8006768:	f422 62e0 	bic.w	r2, r2, #1792	; 0x700
 800676c:	4302      	orrs	r2, r0
 800676e:	608a      	str	r2, [r1, #8]
 8006770:	071b      	lsls	r3, r3, #28
 8006772:	d443      	bmi.n	80067fc <HAL_RCC_ClockConfig+0x18c>
 8006774:	4a6e      	ldr	r2, [pc, #440]	; (8006930 <HAL_RCC_ClockConfig+0x2c0>)
 8006776:	6893      	ldr	r3, [r2, #8]
 8006778:	f003 030c 	and.w	r3, r3, #12
 800677c:	2b04      	cmp	r3, #4
 800677e:	f000 80d3 	beq.w	8006928 <HAL_RCC_ClockConfig+0x2b8>
 8006782:	6893      	ldr	r3, [r2, #8]
 8006784:	f003 030c 	and.w	r3, r3, #12
 8006788:	2b08      	cmp	r3, #8
 800678a:	f000 809b 	beq.w	80068c4 <HAL_RCC_ClockConfig+0x254>
 800678e:	6893      	ldr	r3, [r2, #8]
 8006790:	f003 030c 	and.w	r3, r3, #12
 8006794:	2b0c      	cmp	r3, #12
 8006796:	d075      	beq.n	8006884 <HAL_RCC_ClockConfig+0x214>
 8006798:	2300      	movs	r3, #0
 800679a:	4a65      	ldr	r2, [pc, #404]	; (8006930 <HAL_RCC_ClockConfig+0x2c0>)
 800679c:	4c65      	ldr	r4, [pc, #404]	; (8006934 <HAL_RCC_ClockConfig+0x2c4>)
 800679e:	6892      	ldr	r2, [r2, #8]
 80067a0:	4865      	ldr	r0, [pc, #404]	; (8006938 <HAL_RCC_ClockConfig+0x2c8>)
 80067a2:	4966      	ldr	r1, [pc, #408]	; (800693c <HAL_RCC_ClockConfig+0x2cc>)
 80067a4:	6800      	ldr	r0, [r0, #0]
 80067a6:	f3c2 1203 	ubfx	r2, r2, #4, #4
 80067aa:	5ca2      	ldrb	r2, [r4, r2]
 80067ac:	f002 021f 	and.w	r2, r2, #31
 80067b0:	40d3      	lsrs	r3, r2
 80067b2:	600b      	str	r3, [r1, #0]
 80067b4:	e8bd 43f8 	ldmia.w	sp!, {r3, r4, r5, r6, r7, r8, r9, lr}
 80067b8:	f7fd bb12 	b.w	8003de0 <HAL_InitTick>
 80067bc:	079e      	lsls	r6, r3, #30
 80067be:	d4b0      	bmi.n	8006722 <HAL_RCC_ClockConfig+0xb2>
 80067c0:	4e5a      	ldr	r6, [pc, #360]	; (800692c <HAL_RCC_ClockConfig+0x2bc>)
 80067c2:	6832      	ldr	r2, [r6, #0]
 80067c4:	f002 020f 	and.w	r2, r2, #15
 80067c8:	42aa      	cmp	r2, r5
 80067ca:	d9c7      	bls.n	800675c <HAL_RCC_ClockConfig+0xec>
 80067cc:	6832      	ldr	r2, [r6, #0]
 80067ce:	f022 020f 	bic.w	r2, r2, #15
 80067d2:	432a      	orrs	r2, r5
 80067d4:	6032      	str	r2, [r6, #0]
 80067d6:	f7fd fb49 	bl	8003e6c <HAL_GetTick>
 80067da:	f241 3788 	movw	r7, #5000	; 0x1388
 80067de:	4680      	mov	r8, r0
 80067e0:	6833      	ldr	r3, [r6, #0]
 80067e2:	f003 030f 	and.w	r3, r3, #15
 80067e6:	42ab      	cmp	r3, r5
 80067e8:	d0b8      	beq.n	800675c <HAL_RCC_ClockConfig+0xec>
 80067ea:	f7fd fb3f 	bl	8003e6c <HAL_GetTick>
 80067ee:	eba0 0008 	sub.w	r0, r0, r8
 80067f2:	42b8      	cmp	r0, r7
 80067f4:	d9f4      	bls.n	80067e0 <HAL_RCC_ClockConfig+0x170>
 80067f6:	2003      	movs	r0, #3
 80067f8:	e8bd 83f8 	ldmia.w	sp!, {r3, r4, r5, r6, r7, r8, r9, pc}
 80067fc:	4a4c      	ldr	r2, [pc, #304]	; (8006930 <HAL_RCC_ClockConfig+0x2c0>)
 80067fe:	6921      	ldr	r1, [r4, #16]
 8006800:	6893      	ldr	r3, [r2, #8]
 8006802:	f423 5360 	bic.w	r3, r3, #14336	; 0x3800
 8006806:	ea43 03c1 	orr.w	r3, r3, r1, lsl #3
 800680a:	6093      	str	r3, [r2, #8]
 800680c:	e7b2      	b.n	8006774 <HAL_RCC_ClockConfig+0x104>
 800680e:	4948      	ldr	r1, [pc, #288]	; (8006930 <HAL_RCC_ClockConfig+0x2c0>)
 8006810:	6808      	ldr	r0, [r1, #0]
 8006812:	0180      	lsls	r0, r0, #6
 8006814:	f57f af41 	bpl.w	800669a <HAL_RCC_ClockConfig+0x2a>
 8006818:	68ce      	ldr	r6, [r1, #12]
 800681a:	68c8      	ldr	r0, [r1, #12]
 800681c:	4f48      	ldr	r7, [pc, #288]	; (8006940 <HAL_RCC_ClockConfig+0x2d0>)
 800681e:	f006 0603 	and.w	r6, r6, #3
 8006822:	2e03      	cmp	r6, #3
 8006824:	68ce      	ldr	r6, [r1, #12]
 8006826:	bf0c      	ite	eq
 8006828:	4946      	ldreq	r1, [pc, #280]	; (8006944 <HAL_RCC_ClockConfig+0x2d4>)
 800682a:	4947      	ldrne	r1, [pc, #284]	; (8006948 <HAL_RCC_ClockConfig+0x2d8>)
 800682c:	f3c0 1003 	ubfx	r0, r0, #4, #4
 8006830:	3001      	adds	r0, #1
 8006832:	fbb1 f1f0 	udiv	r1, r1, r0
 8006836:	f3c6 2006 	ubfx	r0, r6, #8, #7
 800683a:	4e3d      	ldr	r6, [pc, #244]	; (8006930 <HAL_RCC_ClockConfig+0x2c0>)
 800683c:	fb01 f100 	mul.w	r1, r1, r0
 8006840:	68f0      	ldr	r0, [r6, #12]
 8006842:	f3c0 6041 	ubfx	r0, r0, #25, #2
 8006846:	3001      	adds	r0, #1
 8006848:	0040      	lsls	r0, r0, #1
 800684a:	fbb1 f1f0 	udiv	r1, r1, r0
 800684e:	42b9      	cmp	r1, r7
 8006850:	f67f af48 	bls.w	80066e4 <HAL_RCC_ClockConfig+0x74>
 8006854:	68b1      	ldr	r1, [r6, #8]
 8006856:	f011 0ff0 	tst.w	r1, #240	; 0xf0
 800685a:	d007      	beq.n	800686c <HAL_RCC_ClockConfig+0x1fc>
 800685c:	f013 0802 	ands.w	r8, r3, #2
 8006860:	f43f af42 	beq.w	80066e8 <HAL_RCC_ClockConfig+0x78>
 8006864:	68a3      	ldr	r3, [r4, #8]
 8006866:	2b00      	cmp	r3, #0
 8006868:	f47f af3c 	bne.w	80066e4 <HAL_RCC_ClockConfig+0x74>
 800686c:	4930      	ldr	r1, [pc, #192]	; (8006930 <HAL_RCC_ClockConfig+0x2c0>)
 800686e:	688b      	ldr	r3, [r1, #8]
 8006870:	f023 03f0 	bic.w	r3, r3, #240	; 0xf0
 8006874:	f043 0380 	orr.w	r3, r3, #128	; 0x80
 8006878:	608b      	str	r3, [r1, #8]
 800687a:	f04f 0880 	mov.w	r8, #128	; 0x80
 800687e:	e733      	b.n	80066e8 <HAL_RCC_ClockConfig+0x78>
 8006880:	2001      	movs	r0, #1
 8006882:	4770      	bx	lr
 8006884:	68d0      	ldr	r0, [r2, #12]
 8006886:	68d3      	ldr	r3, [r2, #12]
 8006888:	68d2      	ldr	r2, [r2, #12]
 800688a:	f000 0003 	and.w	r0, r0, #3
 800688e:	f3c3 1303 	ubfx	r3, r3, #4, #4
 8006892:	2803      	cmp	r0, #3
 8006894:	f3c2 2206 	ubfx	r2, r2, #8, #7
 8006898:	f103 0101 	add.w	r1, r3, #1
 800689c:	bf0c      	ite	eq
 800689e:	4b29      	ldreq	r3, [pc, #164]	; (8006944 <HAL_RCC_ClockConfig+0x2d4>)
 80068a0:	4b29      	ldrne	r3, [pc, #164]	; (8006948 <HAL_RCC_ClockConfig+0x2d8>)
 80068a2:	fbb3 f3f1 	udiv	r3, r3, r1
 80068a6:	fb03 f302 	mul.w	r3, r3, r2
 80068aa:	4a21      	ldr	r2, [pc, #132]	; (8006930 <HAL_RCC_ClockConfig+0x2c0>)
 80068ac:	68d2      	ldr	r2, [r2, #12]
 80068ae:	f3c2 6241 	ubfx	r2, r2, #25, #2
 80068b2:	3201      	adds	r2, #1
 80068b4:	0052      	lsls	r2, r2, #1
 80068b6:	fbb3 f3f2 	udiv	r3, r3, r2
 80068ba:	e76e      	b.n	800679a <HAL_RCC_ClockConfig+0x12a>
 80068bc:	0399      	lsls	r1, r3, #14
 80068be:	f53f af00 	bmi.w	80066c2 <HAL_RCC_ClockConfig+0x52>
 80068c2:	e6ea      	b.n	800669a <HAL_RCC_ClockConfig+0x2a>
 80068c4:	4b1f      	ldr	r3, [pc, #124]	; (8006944 <HAL_RCC_ClockConfig+0x2d4>)
 80068c6:	e768      	b.n	800679a <HAL_RCC_ClockConfig+0x12a>
 80068c8:	f1b8 0f00 	cmp.w	r8, #0
 80068cc:	f43f af40 	beq.w	8006750 <HAL_RCC_ClockConfig+0xe0>
 80068d0:	68b3      	ldr	r3, [r6, #8]
 80068d2:	f023 03f0 	bic.w	r3, r3, #240	; 0xf0
 80068d6:	60b3      	str	r3, [r6, #8]
 80068d8:	e73a      	b.n	8006750 <HAL_RCC_ClockConfig+0xe0>
 80068da:	68d8      	ldr	r0, [r3, #12]
 80068dc:	68d9      	ldr	r1, [r3, #12]
 80068de:	4e18      	ldr	r6, [pc, #96]	; (8006940 <HAL_RCC_ClockConfig+0x2d0>)
 80068e0:	f000 0003 	and.w	r0, r0, #3
 80068e4:	2803      	cmp	r0, #3
 80068e6:	68d8      	ldr	r0, [r3, #12]
 80068e8:	bf0c      	ite	eq
 80068ea:	4b16      	ldreq	r3, [pc, #88]	; (8006944 <HAL_RCC_ClockConfig+0x2d4>)
 80068ec:	4b16      	ldrne	r3, [pc, #88]	; (8006948 <HAL_RCC_ClockConfig+0x2d8>)
 80068ee:	f3c1 1103 	ubfx	r1, r1, #4, #4
 80068f2:	3101      	adds	r1, #1
 80068f4:	fbb3 f3f1 	udiv	r3, r3, r1
 80068f8:	f3c0 2106 	ubfx	r1, r0, #8, #7
 80068fc:	480c      	ldr	r0, [pc, #48]	; (8006930 <HAL_RCC_ClockConfig+0x2c0>)
 80068fe:	fb03 f301 	mul.w	r3, r3, r1
 8006902:	68c1      	ldr	r1, [r0, #12]
 8006904:	f3c1 6141 	ubfx	r1, r1, #25, #2
 8006908:	3101      	adds	r1, #1
 800690a:	0049      	lsls	r1, r1, #1
 800690c:	fbb3 f3f1 	udiv	r3, r3, r1
 8006910:	42b3      	cmp	r3, r6
 8006912:	f67f aee7 	bls.w	80066e4 <HAL_RCC_ClockConfig+0x74>
 8006916:	6883      	ldr	r3, [r0, #8]
 8006918:	f023 03f0 	bic.w	r3, r3, #240	; 0xf0
 800691c:	f043 0380 	orr.w	r3, r3, #128	; 0x80
 8006920:	6083      	str	r3, [r0, #8]
 8006922:	f04f 0880 	mov.w	r8, #128	; 0x80
 8006926:	e6df      	b.n	80066e8 <HAL_RCC_ClockConfig+0x78>
 8006928:	4b07      	ldr	r3, [pc, #28]	; (8006948 <HAL_RCC_ClockConfig+0x2d8>)
 800692a:	e736      	b.n	800679a <HAL_RCC_ClockConfig+0x12a>
 800692c:	40022000 	.word	0x40022000
 8006930:	40021000 	.word	0x40021000
 8006934:	0800ae5c 	.word	0x0800ae5c
 8006938:	200005e8 	.word	0x200005e8
 800693c:	200005e0 	.word	0x200005e0
 8006940:	04c4b400 	.word	0x04c4b400
 8006944:	007a1200 	.word	0x007a1200
 8006948:	00f42400 	.word	0x00f42400

0800694c <HAL_RCC_GetSysClockFreq>:
 800694c:	4b18      	ldr	r3, [pc, #96]	; (80069b0 <HAL_RCC_GetSysClockFreq+0x64>)
 800694e:	689a      	ldr	r2, [r3, #8]
 8006950:	f002 020c 	and.w	r2, r2, #12
 8006954:	2a04      	cmp	r2, #4
 8006956:	d027      	beq.n	80069a8 <HAL_RCC_GetSysClockFreq+0x5c>
 8006958:	689a      	ldr	r2, [r3, #8]
 800695a:	f002 020c 	and.w	r2, r2, #12
 800695e:	2a08      	cmp	r2, #8
 8006960:	d024      	beq.n	80069ac <HAL_RCC_GetSysClockFreq+0x60>
 8006962:	689a      	ldr	r2, [r3, #8]
 8006964:	f002 020c 	and.w	r2, r2, #12
 8006968:	2a0c      	cmp	r2, #12
 800696a:	d001      	beq.n	8006970 <HAL_RCC_GetSysClockFreq+0x24>
 800696c:	2000      	movs	r0, #0
 800696e:	4770      	bx	lr
 8006970:	68d9      	ldr	r1, [r3, #12]
 8006972:	68d8      	ldr	r0, [r3, #12]
 8006974:	68db      	ldr	r3, [r3, #12]
 8006976:	f001 0103 	and.w	r1, r1, #3
 800697a:	f3c0 1003 	ubfx	r0, r0, #4, #4
 800697e:	2903      	cmp	r1, #3
 8006980:	f3c3 2306 	ubfx	r3, r3, #8, #7
 8006984:	f100 0201 	add.w	r2, r0, #1
 8006988:	bf0c      	ite	eq
 800698a:	480a      	ldreq	r0, [pc, #40]	; (80069b4 <HAL_RCC_GetSysClockFreq+0x68>)
 800698c:	480a      	ldrne	r0, [pc, #40]	; (80069b8 <HAL_RCC_GetSysClockFreq+0x6c>)
 800698e:	fbb0 f0f2 	udiv	r0, r0, r2
 8006992:	fb00 f003 	mul.w	r0, r0, r3
 8006996:	4b06      	ldr	r3, [pc, #24]	; (80069b0 <HAL_RCC_GetSysClockFreq+0x64>)
 8006998:	68db      	ldr	r3, [r3, #12]
 800699a:	f3c3 6341 	ubfx	r3, r3, #25, #2
 800699e:	3301      	adds	r3, #1
 80069a0:	005b      	lsls	r3, r3, #1
 80069a2:	fbb0 f0f3 	udiv	r0, r0, r3
 80069a6:	4770      	bx	lr
 80069a8:	4803      	ldr	r0, [pc, #12]	; (80069b8 <HAL_RCC_GetSysClockFreq+0x6c>)
 80069aa:	4770      	bx	lr
 80069ac:	4801      	ldr	r0, [pc, #4]	; (80069b4 <HAL_RCC_GetSysClockFreq+0x68>)
 80069ae:	4770      	bx	lr
 80069b0:	40021000 	.word	0x40021000
 80069b4:	007a1200 	.word	0x007a1200
 80069b8:	00f42400 	.word	0x00f42400

080069bc <HAL_RCC_GetHCLKFreq>:
 80069bc:	4b01      	ldr	r3, [pc, #4]	; (80069c4 <HAL_RCC_GetHCLKFreq+0x8>)
 80069be:	6818      	ldr	r0, [r3, #0]
 80069c0:	4770      	bx	lr
 80069c2:	bf00      	nop
 80069c4:	200005e0 	.word	0x200005e0

080069c8 <HAL_RCC_GetPCLK1Freq>:
 80069c8:	4b05      	ldr	r3, [pc, #20]	; (80069e0 <HAL_RCC_GetPCLK1Freq+0x18>)
 80069ca:	4a06      	ldr	r2, [pc, #24]	; (80069e4 <HAL_RCC_GetPCLK1Freq+0x1c>)
 80069cc:	689b      	ldr	r3, [r3, #8]
 80069ce:	4906      	ldr	r1, [pc, #24]	; (80069e8 <HAL_RCC_GetPCLK1Freq+0x20>)
 80069d0:	f3c3 2302 	ubfx	r3, r3, #8, #3
 80069d4:	6808      	ldr	r0, [r1, #0]
 80069d6:	5cd3      	ldrb	r3, [r2, r3]
 80069d8:	f003 031f 	and.w	r3, r3, #31
 80069dc:	40d8      	lsrs	r0, r3
 80069de:	4770      	bx	lr
 80069e0:	40021000 	.word	0x40021000
 80069e4:	0800ae6c 	.word	0x0800ae6c
 80069e8:	200005e0 	.word	0x200005e0

080069ec <HAL_RCC_GetPCLK2Freq>:
 80069ec:	4b05      	ldr	r3, [pc, #20]	; (8006a04 <HAL_RCC_GetPCLK2Freq+0x18>)
 80069ee:	4a06      	ldr	r2, [pc, #24]	; (8006a08 <HAL_RCC_GetPCLK2Freq+0x1c>)
 80069f0:	689b      	ldr	r3, [r3, #8]
 80069f2:	4906      	ldr	r1, [pc, #24]	; (8006a0c <HAL_RCC_GetPCLK2Freq+0x20>)
 80069f4:	f3c3 23c2 	ubfx	r3, r3, #11, #3
 80069f8:	6808      	ldr	r0, [r1, #0]
 80069fa:	5cd3      	ldrb	r3, [r2, r3]
 80069fc:	f003 031f 	and.w	r3, r3, #31
 8006a00:	40d8      	lsrs	r0, r3
 8006a02:	4770      	bx	lr
 8006a04:	40021000 	.word	0x40021000
 8006a08:	0800ae6c 	.word	0x0800ae6c
 8006a0c:	200005e0 	.word	0x200005e0

08006a10 <HAL_RCCEx_PeriphCLKConfig>:
 8006a10:	e92d 41f0 	stmdb	sp!, {r4, r5, r6, r7, r8, lr}
 8006a14:	6803      	ldr	r3, [r0, #0]
 8006a16:	4604      	mov	r4, r0
 8006a18:	f413 2000 	ands.w	r0, r3, #524288	; 0x80000
 8006a1c:	b082      	sub	sp, #8
 8006a1e:	d057      	beq.n	8006ad0 <HAL_RCCEx_PeriphCLKConfig+0xc0>
 8006a20:	4b9f      	ldr	r3, [pc, #636]	; (8006ca0 <HAL_RCCEx_PeriphCLKConfig+0x290>)
 8006a22:	6d9a      	ldr	r2, [r3, #88]	; 0x58
 8006a24:	00d0      	lsls	r0, r2, #3
 8006a26:	f140 810d 	bpl.w	8006c44 <HAL_RCCEx_PeriphCLKConfig+0x234>
 8006a2a:	2700      	movs	r7, #0
 8006a2c:	4d9d      	ldr	r5, [pc, #628]	; (8006ca4 <HAL_RCCEx_PeriphCLKConfig+0x294>)
 8006a2e:	682b      	ldr	r3, [r5, #0]
 8006a30:	f443 7380 	orr.w	r3, r3, #256	; 0x100
 8006a34:	602b      	str	r3, [r5, #0]
 8006a36:	f7fd fa19 	bl	8003e6c <HAL_GetTick>
 8006a3a:	4606      	mov	r6, r0
 8006a3c:	e005      	b.n	8006a4a <HAL_RCCEx_PeriphCLKConfig+0x3a>
 8006a3e:	f7fd fa15 	bl	8003e6c <HAL_GetTick>
 8006a42:	1b80      	subs	r0, r0, r6
 8006a44:	2802      	cmp	r0, #2
 8006a46:	f200 810f 	bhi.w	8006c68 <HAL_RCCEx_PeriphCLKConfig+0x258>
 8006a4a:	682b      	ldr	r3, [r5, #0]
 8006a4c:	05d9      	lsls	r1, r3, #23
 8006a4e:	d5f6      	bpl.n	8006a3e <HAL_RCCEx_PeriphCLKConfig+0x2e>
 8006a50:	4b93      	ldr	r3, [pc, #588]	; (8006ca0 <HAL_RCCEx_PeriphCLKConfig+0x290>)
 8006a52:	6c21      	ldr	r1, [r4, #64]	; 0x40
 8006a54:	f8d3 2090 	ldr.w	r2, [r3, #144]	; 0x90
 8006a58:	f412 7240 	ands.w	r2, r2, #768	; 0x300
 8006a5c:	d028      	beq.n	8006ab0 <HAL_RCCEx_PeriphCLKConfig+0xa0>
 8006a5e:	428a      	cmp	r2, r1
 8006a60:	d026      	beq.n	8006ab0 <HAL_RCCEx_PeriphCLKConfig+0xa0>
 8006a62:	f8d3 0090 	ldr.w	r0, [r3, #144]	; 0x90
 8006a66:	f8d3 2090 	ldr.w	r2, [r3, #144]	; 0x90
 8006a6a:	f442 3280 	orr.w	r2, r2, #65536	; 0x10000
 8006a6e:	f8c3 2090 	str.w	r2, [r3, #144]	; 0x90
 8006a72:	f8d3 2090 	ldr.w	r2, [r3, #144]	; 0x90
 8006a76:	f422 3280 	bic.w	r2, r2, #65536	; 0x10000
 8006a7a:	f8c3 2090 	str.w	r2, [r3, #144]	; 0x90
 8006a7e:	f420 7540 	bic.w	r5, r0, #768	; 0x300
 8006a82:	07c2      	lsls	r2, r0, #31
 8006a84:	f8c3 5090 	str.w	r5, [r3, #144]	; 0x90
 8006a88:	d512      	bpl.n	8006ab0 <HAL_RCCEx_PeriphCLKConfig+0xa0>
 8006a8a:	461d      	mov	r5, r3
 8006a8c:	f7fd f9ee 	bl	8003e6c <HAL_GetTick>
 8006a90:	f241 3688 	movw	r6, #5000	; 0x1388
 8006a94:	4680      	mov	r8, r0
 8006a96:	e006      	b.n	8006aa6 <HAL_RCCEx_PeriphCLKConfig+0x96>
 8006a98:	f7fd f9e8 	bl	8003e6c <HAL_GetTick>
 8006a9c:	eba0 0008 	sub.w	r0, r0, r8
 8006aa0:	42b0      	cmp	r0, r6
 8006aa2:	f200 80e1 	bhi.w	8006c68 <HAL_RCCEx_PeriphCLKConfig+0x258>
 8006aa6:	f8d5 3090 	ldr.w	r3, [r5, #144]	; 0x90
 8006aaa:	079b      	lsls	r3, r3, #30
 8006aac:	d5f4      	bpl.n	8006a98 <HAL_RCCEx_PeriphCLKConfig+0x88>
 8006aae:	6c21      	ldr	r1, [r4, #64]	; 0x40
 8006ab0:	4a7b      	ldr	r2, [pc, #492]	; (8006ca0 <HAL_RCCEx_PeriphCLKConfig+0x290>)
 8006ab2:	f8d2 3090 	ldr.w	r3, [r2, #144]	; 0x90
 8006ab6:	f423 7340 	bic.w	r3, r3, #768	; 0x300
 8006aba:	430b      	orrs	r3, r1
 8006abc:	f8c2 3090 	str.w	r3, [r2, #144]	; 0x90
 8006ac0:	2000      	movs	r0, #0
 8006ac2:	b127      	cbz	r7, 8006ace <HAL_RCCEx_PeriphCLKConfig+0xbe>
 8006ac4:	4a76      	ldr	r2, [pc, #472]	; (8006ca0 <HAL_RCCEx_PeriphCLKConfig+0x290>)
 8006ac6:	6d93      	ldr	r3, [r2, #88]	; 0x58
 8006ac8:	f023 5380 	bic.w	r3, r3, #268435456	; 0x10000000
 8006acc:	6593      	str	r3, [r2, #88]	; 0x58
 8006ace:	6823      	ldr	r3, [r4, #0]
 8006ad0:	07de      	lsls	r6, r3, #31
 8006ad2:	d508      	bpl.n	8006ae6 <HAL_RCCEx_PeriphCLKConfig+0xd6>
 8006ad4:	4972      	ldr	r1, [pc, #456]	; (8006ca0 <HAL_RCCEx_PeriphCLKConfig+0x290>)
 8006ad6:	6865      	ldr	r5, [r4, #4]
 8006ad8:	f8d1 2088 	ldr.w	r2, [r1, #136]	; 0x88
 8006adc:	f022 0203 	bic.w	r2, r2, #3
 8006ae0:	432a      	orrs	r2, r5
 8006ae2:	f8c1 2088 	str.w	r2, [r1, #136]	; 0x88
 8006ae6:	079d      	lsls	r5, r3, #30
 8006ae8:	d508      	bpl.n	8006afc <HAL_RCCEx_PeriphCLKConfig+0xec>
 8006aea:	496d      	ldr	r1, [pc, #436]	; (8006ca0 <HAL_RCCEx_PeriphCLKConfig+0x290>)
 8006aec:	68a5      	ldr	r5, [r4, #8]
 8006aee:	f8d1 2088 	ldr.w	r2, [r1, #136]	; 0x88
 8006af2:	f022 020c 	bic.w	r2, r2, #12
 8006af6:	432a      	orrs	r2, r5
 8006af8:	f8c1 2088 	str.w	r2, [r1, #136]	; 0x88
 8006afc:	0759      	lsls	r1, r3, #29
 8006afe:	d508      	bpl.n	8006b12 <HAL_RCCEx_PeriphCLKConfig+0x102>
 8006b00:	4967      	ldr	r1, [pc, #412]	; (8006ca0 <HAL_RCCEx_PeriphCLKConfig+0x290>)
 8006b02:	68e5      	ldr	r5, [r4, #12]
 8006b04:	f8d1 2088 	ldr.w	r2, [r1, #136]	; 0x88
 8006b08:	f022 0230 	bic.w	r2, r2, #48	; 0x30
 8006b0c:	432a      	orrs	r2, r5
 8006b0e:	f8c1 2088 	str.w	r2, [r1, #136]	; 0x88
 8006b12:	071a      	lsls	r2, r3, #28
 8006b14:	d508      	bpl.n	8006b28 <HAL_RCCEx_PeriphCLKConfig+0x118>
 8006b16:	4962      	ldr	r1, [pc, #392]	; (8006ca0 <HAL_RCCEx_PeriphCLKConfig+0x290>)
 8006b18:	6925      	ldr	r5, [r4, #16]
 8006b1a:	f8d1 2088 	ldr.w	r2, [r1, #136]	; 0x88
 8006b1e:	f022 02c0 	bic.w	r2, r2, #192	; 0xc0
 8006b22:	432a      	orrs	r2, r5
 8006b24:	f8c1 2088 	str.w	r2, [r1, #136]	; 0x88
 8006b28:	069f      	lsls	r7, r3, #26
 8006b2a:	d508      	bpl.n	8006b3e <HAL_RCCEx_PeriphCLKConfig+0x12e>
 8006b2c:	495c      	ldr	r1, [pc, #368]	; (8006ca0 <HAL_RCCEx_PeriphCLKConfig+0x290>)
 8006b2e:	6965      	ldr	r5, [r4, #20]
 8006b30:	f8d1 2088 	ldr.w	r2, [r1, #136]	; 0x88
 8006b34:	f422 6240 	bic.w	r2, r2, #3072	; 0xc00
 8006b38:	432a      	orrs	r2, r5
 8006b3a:	f8c1 2088 	str.w	r2, [r1, #136]	; 0x88
 8006b3e:	065e      	lsls	r6, r3, #25
 8006b40:	d508      	bpl.n	8006b54 <HAL_RCCEx_PeriphCLKConfig+0x144>
 8006b42:	4957      	ldr	r1, [pc, #348]	; (8006ca0 <HAL_RCCEx_PeriphCLKConfig+0x290>)
 8006b44:	69a5      	ldr	r5, [r4, #24]
 8006b46:	f8d1 2088 	ldr.w	r2, [r1, #136]	; 0x88
 8006b4a:	f422 5240 	bic.w	r2, r2, #12288	; 0x3000
 8006b4e:	432a      	orrs	r2, r5
 8006b50:	f8c1 2088 	str.w	r2, [r1, #136]	; 0x88
 8006b54:	061d      	lsls	r5, r3, #24
 8006b56:	d508      	bpl.n	8006b6a <HAL_RCCEx_PeriphCLKConfig+0x15a>
 8006b58:	4951      	ldr	r1, [pc, #324]	; (8006ca0 <HAL_RCCEx_PeriphCLKConfig+0x290>)
 8006b5a:	69e5      	ldr	r5, [r4, #28]
 8006b5c:	f8d1 2088 	ldr.w	r2, [r1, #136]	; 0x88
 8006b60:	f422 4240 	bic.w	r2, r2, #49152	; 0xc000
 8006b64:	432a      	orrs	r2, r5
 8006b66:	f8c1 2088 	str.w	r2, [r1, #136]	; 0x88
 8006b6a:	05d9      	lsls	r1, r3, #23
 8006b6c:	d508      	bpl.n	8006b80 <HAL_RCCEx_PeriphCLKConfig+0x170>
 8006b6e:	494c      	ldr	r1, [pc, #304]	; (8006ca0 <HAL_RCCEx_PeriphCLKConfig+0x290>)
 8006b70:	6a25      	ldr	r5, [r4, #32]
 8006b72:	f8d1 2088 	ldr.w	r2, [r1, #136]	; 0x88
 8006b76:	f422 3240 	bic.w	r2, r2, #196608	; 0x30000
 8006b7a:	432a      	orrs	r2, r5
 8006b7c:	f8c1 2088 	str.w	r2, [r1, #136]	; 0x88
 8006b80:	059a      	lsls	r2, r3, #22
 8006b82:	d508      	bpl.n	8006b96 <HAL_RCCEx_PeriphCLKConfig+0x186>
 8006b84:	4946      	ldr	r1, [pc, #280]	; (8006ca0 <HAL_RCCEx_PeriphCLKConfig+0x290>)
 8006b86:	6a65      	ldr	r5, [r4, #36]	; 0x24
 8006b88:	f8d1 2088 	ldr.w	r2, [r1, #136]	; 0x88
 8006b8c:	f422 2240 	bic.w	r2, r2, #786432	; 0xc0000
 8006b90:	432a      	orrs	r2, r5
 8006b92:	f8c1 2088 	str.w	r2, [r1, #136]	; 0x88
 8006b96:	055f      	lsls	r7, r3, #21
 8006b98:	d50b      	bpl.n	8006bb2 <HAL_RCCEx_PeriphCLKConfig+0x1a2>
 8006b9a:	4941      	ldr	r1, [pc, #260]	; (8006ca0 <HAL_RCCEx_PeriphCLKConfig+0x290>)
 8006b9c:	6aa5      	ldr	r5, [r4, #40]	; 0x28
 8006b9e:	f8d1 2088 	ldr.w	r2, [r1, #136]	; 0x88
 8006ba2:	f422 1240 	bic.w	r2, r2, #3145728	; 0x300000
 8006ba6:	432a      	orrs	r2, r5
 8006ba8:	f5b5 1f80 	cmp.w	r5, #1048576	; 0x100000
 8006bac:	f8c1 2088 	str.w	r2, [r1, #136]	; 0x88
 8006bb0:	d05c      	beq.n	8006c6c <HAL_RCCEx_PeriphCLKConfig+0x25c>
 8006bb2:	051e      	lsls	r6, r3, #20
 8006bb4:	d50b      	bpl.n	8006bce <HAL_RCCEx_PeriphCLKConfig+0x1be>
 8006bb6:	493a      	ldr	r1, [pc, #232]	; (8006ca0 <HAL_RCCEx_PeriphCLKConfig+0x290>)
 8006bb8:	6ae5      	ldr	r5, [r4, #44]	; 0x2c
 8006bba:	f8d1 2088 	ldr.w	r2, [r1, #136]	; 0x88
 8006bbe:	f422 0240 	bic.w	r2, r2, #12582912	; 0xc00000
 8006bc2:	432a      	orrs	r2, r5
 8006bc4:	f5b5 0f80 	cmp.w	r5, #4194304	; 0x400000
 8006bc8:	f8c1 2088 	str.w	r2, [r1, #136]	; 0x88
 8006bcc:	d053      	beq.n	8006c76 <HAL_RCCEx_PeriphCLKConfig+0x266>
 8006bce:	04dd      	lsls	r5, r3, #19
 8006bd0:	d50b      	bpl.n	8006bea <HAL_RCCEx_PeriphCLKConfig+0x1da>
 8006bd2:	4933      	ldr	r1, [pc, #204]	; (8006ca0 <HAL_RCCEx_PeriphCLKConfig+0x290>)
 8006bd4:	6b25      	ldr	r5, [r4, #48]	; 0x30
 8006bd6:	f8d1 2088 	ldr.w	r2, [r1, #136]	; 0x88
 8006bda:	f022 7240 	bic.w	r2, r2, #50331648	; 0x3000000
 8006bde:	432a      	orrs	r2, r5
 8006be0:	f1b5 7f80 	cmp.w	r5, #16777216	; 0x1000000
 8006be4:	f8c1 2088 	str.w	r2, [r1, #136]	; 0x88
 8006be8:	d04a      	beq.n	8006c80 <HAL_RCCEx_PeriphCLKConfig+0x270>
 8006bea:	0499      	lsls	r1, r3, #18
 8006bec:	d50b      	bpl.n	8006c06 <HAL_RCCEx_PeriphCLKConfig+0x1f6>
 8006bee:	492c      	ldr	r1, [pc, #176]	; (8006ca0 <HAL_RCCEx_PeriphCLKConfig+0x290>)
 8006bf0:	6b65      	ldr	r5, [r4, #52]	; 0x34
 8006bf2:	f8d1 2088 	ldr.w	r2, [r1, #136]	; 0x88
 8006bf6:	f022 6240 	bic.w	r2, r2, #201326592	; 0xc000000
 8006bfa:	432a      	orrs	r2, r5
 8006bfc:	f1b5 6f00 	cmp.w	r5, #134217728	; 0x8000000
 8006c00:	f8c1 2088 	str.w	r2, [r1, #136]	; 0x88
 8006c04:	d041      	beq.n	8006c8a <HAL_RCCEx_PeriphCLKConfig+0x27a>
 8006c06:	045a      	lsls	r2, r3, #17
 8006c08:	d50b      	bpl.n	8006c22 <HAL_RCCEx_PeriphCLKConfig+0x212>
 8006c0a:	4925      	ldr	r1, [pc, #148]	; (8006ca0 <HAL_RCCEx_PeriphCLKConfig+0x290>)
 8006c0c:	6ba5      	ldr	r5, [r4, #56]	; 0x38
 8006c0e:	f8d1 2088 	ldr.w	r2, [r1, #136]	; 0x88
 8006c12:	f022 6240 	bic.w	r2, r2, #201326592	; 0xc000000
 8006c16:	432a      	orrs	r2, r5
 8006c18:	f1b5 6f00 	cmp.w	r5, #134217728	; 0x8000000
 8006c1c:	f8c1 2088 	str.w	r2, [r1, #136]	; 0x88
 8006c20:	d038      	beq.n	8006c94 <HAL_RCCEx_PeriphCLKConfig+0x284>
 8006c22:	041b      	lsls	r3, r3, #16
 8006c24:	d50b      	bpl.n	8006c3e <HAL_RCCEx_PeriphCLKConfig+0x22e>
 8006c26:	4a1e      	ldr	r2, [pc, #120]	; (8006ca0 <HAL_RCCEx_PeriphCLKConfig+0x290>)
 8006c28:	6be1      	ldr	r1, [r4, #60]	; 0x3c
 8006c2a:	f8d2 3088 	ldr.w	r3, [r2, #136]	; 0x88
 8006c2e:	f023 5340 	bic.w	r3, r3, #805306368	; 0x30000000
 8006c32:	430b      	orrs	r3, r1
 8006c34:	f1b1 5f80 	cmp.w	r1, #268435456	; 0x10000000
 8006c38:	f8c2 3088 	str.w	r3, [r2, #136]	; 0x88
 8006c3c:	d00d      	beq.n	8006c5a <HAL_RCCEx_PeriphCLKConfig+0x24a>
 8006c3e:	b002      	add	sp, #8
 8006c40:	e8bd 81f0 	ldmia.w	sp!, {r4, r5, r6, r7, r8, pc}
 8006c44:	6d9a      	ldr	r2, [r3, #88]	; 0x58
 8006c46:	f042 5280 	orr.w	r2, r2, #268435456	; 0x10000000
 8006c4a:	659a      	str	r2, [r3, #88]	; 0x58
 8006c4c:	6d9b      	ldr	r3, [r3, #88]	; 0x58
 8006c4e:	f003 5380 	and.w	r3, r3, #268435456	; 0x10000000
 8006c52:	9301      	str	r3, [sp, #4]
 8006c54:	9b01      	ldr	r3, [sp, #4]
 8006c56:	2701      	movs	r7, #1
 8006c58:	e6e8      	b.n	8006a2c <HAL_RCCEx_PeriphCLKConfig+0x1c>
 8006c5a:	68d3      	ldr	r3, [r2, #12]
 8006c5c:	f443 3380 	orr.w	r3, r3, #65536	; 0x10000
 8006c60:	60d3      	str	r3, [r2, #12]
 8006c62:	b002      	add	sp, #8
 8006c64:	e8bd 81f0 	ldmia.w	sp!, {r4, r5, r6, r7, r8, pc}
 8006c68:	2003      	movs	r0, #3
 8006c6a:	e72a      	b.n	8006ac2 <HAL_RCCEx_PeriphCLKConfig+0xb2>
 8006c6c:	68ca      	ldr	r2, [r1, #12]
 8006c6e:	f442 1280 	orr.w	r2, r2, #1048576	; 0x100000
 8006c72:	60ca      	str	r2, [r1, #12]
 8006c74:	e79d      	b.n	8006bb2 <HAL_RCCEx_PeriphCLKConfig+0x1a2>
 8006c76:	68ca      	ldr	r2, [r1, #12]
 8006c78:	f442 1280 	orr.w	r2, r2, #1048576	; 0x100000
 8006c7c:	60ca      	str	r2, [r1, #12]
 8006c7e:	e7a6      	b.n	8006bce <HAL_RCCEx_PeriphCLKConfig+0x1be>
 8006c80:	68ca      	ldr	r2, [r1, #12]
 8006c82:	f442 1280 	orr.w	r2, r2, #1048576	; 0x100000
 8006c86:	60ca      	str	r2, [r1, #12]
 8006c88:	e7af      	b.n	8006bea <HAL_RCCEx_PeriphCLKConfig+0x1da>
 8006c8a:	68ca      	ldr	r2, [r1, #12]
 8006c8c:	f442 1280 	orr.w	r2, r2, #1048576	; 0x100000
 8006c90:	60ca      	str	r2, [r1, #12]
 8006c92:	e7b8      	b.n	8006c06 <HAL_RCCEx_PeriphCLKConfig+0x1f6>
 8006c94:	68ca      	ldr	r2, [r1, #12]
 8006c96:	f442 1280 	orr.w	r2, r2, #1048576	; 0x100000
 8006c9a:	60ca      	str	r2, [r1, #12]
 8006c9c:	e7c1      	b.n	8006c22 <HAL_RCCEx_PeriphCLKConfig+0x212>
 8006c9e:	bf00      	nop
 8006ca0:	40021000 	.word	0x40021000
 8006ca4:	40007000 	.word	0x40007000

08006ca8 <HAL_TIM_Base_Init>:
 8006ca8:	2800      	cmp	r0, #0
 8006caa:	d06b      	beq.n	8006d84 <HAL_TIM_Base_Init+0xdc>
 8006cac:	b5f8      	push	{r3, r4, r5, r6, r7, lr}
 8006cae:	f890 303d 	ldrb.w	r3, [r0, #61]	; 0x3d
 8006cb2:	4604      	mov	r4, r0
 8006cb4:	f003 02ff 	and.w	r2, r3, #255	; 0xff
 8006cb8:	b363      	cbz	r3, 8006d14 <HAL_TIM_Base_Init+0x6c>
 8006cba:	6822      	ldr	r2, [r4, #0]
 8006cbc:	4e3b      	ldr	r6, [pc, #236]	; (8006dac <HAL_TIM_Base_Init+0x104>)
 8006cbe:	69a5      	ldr	r5, [r4, #24]
 8006cc0:	68e0      	ldr	r0, [r4, #12]
 8006cc2:	6861      	ldr	r1, [r4, #4]
 8006cc4:	2302      	movs	r3, #2
 8006cc6:	f884 303d 	strb.w	r3, [r4, #61]	; 0x3d
 8006cca:	42b2      	cmp	r2, r6
 8006ccc:	6813      	ldr	r3, [r2, #0]
 8006cce:	d05b      	beq.n	8006d88 <HAL_TIM_Base_Init+0xe0>
 8006cd0:	f1b2 4f80 	cmp.w	r2, #1073741824	; 0x40000000
 8006cd4:	d03c      	beq.n	8006d50 <HAL_TIM_Base_Init+0xa8>
 8006cd6:	f5a6 3694 	sub.w	r6, r6, #75776	; 0x12800
 8006cda:	42b2      	cmp	r2, r6
 8006cdc:	d01f      	beq.n	8006d1e <HAL_TIM_Base_Init+0x76>
 8006cde:	f506 6680 	add.w	r6, r6, #1024	; 0x400
 8006ce2:	42b2      	cmp	r2, r6
 8006ce4:	d01b      	beq.n	8006d1e <HAL_TIM_Base_Init+0x76>
 8006ce6:	f506 3696 	add.w	r6, r6, #76800	; 0x12c00
 8006cea:	42b2      	cmp	r2, r6
 8006cec:	d017      	beq.n	8006d1e <HAL_TIM_Base_Init+0x76>
 8006cee:	f506 6640 	add.w	r6, r6, #3072	; 0xc00
 8006cf2:	42b2      	cmp	r2, r6
 8006cf4:	d057      	beq.n	8006da6 <HAL_TIM_Base_Init+0xfe>
 8006cf6:	f506 6680 	add.w	r6, r6, #1024	; 0x400
 8006cfa:	42b2      	cmp	r2, r6
 8006cfc:	d053      	beq.n	8006da6 <HAL_TIM_Base_Init+0xfe>
 8006cfe:	f506 6680 	add.w	r6, r6, #1024	; 0x400
 8006d02:	42b2      	cmp	r2, r6
 8006d04:	d04f      	beq.n	8006da6 <HAL_TIM_Base_Init+0xfe>
 8006d06:	f023 0380 	bic.w	r3, r3, #128	; 0x80
 8006d0a:	432b      	orrs	r3, r5
 8006d0c:	6013      	str	r3, [r2, #0]
 8006d0e:	62d0      	str	r0, [r2, #44]	; 0x2c
 8006d10:	6291      	str	r1, [r2, #40]	; 0x28
 8006d12:	e017      	b.n	8006d44 <HAL_TIM_Base_Init+0x9c>
 8006d14:	f880 203c 	strb.w	r2, [r0, #60]	; 0x3c
 8006d18:	f7fc f978 	bl	800300c <HAL_TIM_Base_MspInit>
 8006d1c:	e7cd      	b.n	8006cba <HAL_TIM_Base_Init+0x12>
 8006d1e:	68a6      	ldr	r6, [r4, #8]
 8006d20:	4f23      	ldr	r7, [pc, #140]	; (8006db0 <HAL_TIM_Base_Init+0x108>)
 8006d22:	f023 0370 	bic.w	r3, r3, #112	; 0x70
 8006d26:	4333      	orrs	r3, r6
 8006d28:	6926      	ldr	r6, [r4, #16]
 8006d2a:	f423 7340 	bic.w	r3, r3, #768	; 0x300
 8006d2e:	4333      	orrs	r3, r6
 8006d30:	f023 0380 	bic.w	r3, r3, #128	; 0x80
 8006d34:	432b      	orrs	r3, r5
 8006d36:	42ba      	cmp	r2, r7
 8006d38:	6013      	str	r3, [r2, #0]
 8006d3a:	62d0      	str	r0, [r2, #44]	; 0x2c
 8006d3c:	6291      	str	r1, [r2, #40]	; 0x28
 8006d3e:	d115      	bne.n	8006d6c <HAL_TIM_Base_Init+0xc4>
 8006d40:	6963      	ldr	r3, [r4, #20]
 8006d42:	6313      	str	r3, [r2, #48]	; 0x30
 8006d44:	2301      	movs	r3, #1
 8006d46:	6153      	str	r3, [r2, #20]
 8006d48:	2000      	movs	r0, #0
 8006d4a:	f884 303d 	strb.w	r3, [r4, #61]	; 0x3d
 8006d4e:	bdf8      	pop	{r3, r4, r5, r6, r7, pc}
 8006d50:	68a7      	ldr	r7, [r4, #8]
 8006d52:	6926      	ldr	r6, [r4, #16]
 8006d54:	f023 0370 	bic.w	r3, r3, #112	; 0x70
 8006d58:	433b      	orrs	r3, r7
 8006d5a:	f423 7340 	bic.w	r3, r3, #768	; 0x300
 8006d5e:	4333      	orrs	r3, r6
 8006d60:	f023 0380 	bic.w	r3, r3, #128	; 0x80
 8006d64:	432b      	orrs	r3, r5
 8006d66:	6013      	str	r3, [r2, #0]
 8006d68:	62d0      	str	r0, [r2, #44]	; 0x2c
 8006d6a:	6291      	str	r1, [r2, #40]	; 0x28
 8006d6c:	4b11      	ldr	r3, [pc, #68]	; (8006db4 <HAL_TIM_Base_Init+0x10c>)
 8006d6e:	429a      	cmp	r2, r3
 8006d70:	d0e6      	beq.n	8006d40 <HAL_TIM_Base_Init+0x98>
 8006d72:	f503 6380 	add.w	r3, r3, #1024	; 0x400
 8006d76:	429a      	cmp	r2, r3
 8006d78:	d0e2      	beq.n	8006d40 <HAL_TIM_Base_Init+0x98>
 8006d7a:	f503 6380 	add.w	r3, r3, #1024	; 0x400
 8006d7e:	429a      	cmp	r2, r3
 8006d80:	d1e0      	bne.n	8006d44 <HAL_TIM_Base_Init+0x9c>
 8006d82:	e7dd      	b.n	8006d40 <HAL_TIM_Base_Init+0x98>
 8006d84:	2001      	movs	r0, #1
 8006d86:	4770      	bx	lr
 8006d88:	68a7      	ldr	r7, [r4, #8]
 8006d8a:	6926      	ldr	r6, [r4, #16]
 8006d8c:	f023 0370 	bic.w	r3, r3, #112	; 0x70
 8006d90:	433b      	orrs	r3, r7
 8006d92:	f423 7340 	bic.w	r3, r3, #768	; 0x300
 8006d96:	4333      	orrs	r3, r6
 8006d98:	f023 0380 	bic.w	r3, r3, #128	; 0x80
 8006d9c:	432b      	orrs	r3, r5
 8006d9e:	6013      	str	r3, [r2, #0]
 8006da0:	62d0      	str	r0, [r2, #44]	; 0x2c
 8006da2:	6291      	str	r1, [r2, #40]	; 0x28
 8006da4:	e7cc      	b.n	8006d40 <HAL_TIM_Base_Init+0x98>
 8006da6:	6926      	ldr	r6, [r4, #16]
 8006da8:	e7f3      	b.n	8006d92 <HAL_TIM_Base_Init+0xea>
 8006daa:	bf00      	nop
 8006dac:	40012c00 	.word	0x40012c00
 8006db0:	40013400 	.word	0x40013400
 8006db4:	40014000 	.word	0x40014000

08006db8 <HAL_TIM_Base_Start_IT>:
 8006db8:	6803      	ldr	r3, [r0, #0]
 8006dba:	4a09      	ldr	r2, [pc, #36]	; (8006de0 <HAL_TIM_Base_Start_IT+0x28>)
 8006dbc:	68d9      	ldr	r1, [r3, #12]
 8006dbe:	f041 0101 	orr.w	r1, r1, #1
 8006dc2:	60d9      	str	r1, [r3, #12]
 8006dc4:	6899      	ldr	r1, [r3, #8]
 8006dc6:	400a      	ands	r2, r1
 8006dc8:	2a06      	cmp	r2, #6
 8006dca:	d006      	beq.n	8006dda <HAL_TIM_Base_Start_IT+0x22>
 8006dcc:	f5b2 3f80 	cmp.w	r2, #65536	; 0x10000
 8006dd0:	d003      	beq.n	8006dda <HAL_TIM_Base_Start_IT+0x22>
 8006dd2:	681a      	ldr	r2, [r3, #0]
 8006dd4:	f042 0201 	orr.w	r2, r2, #1
 8006dd8:	601a      	str	r2, [r3, #0]
 8006dda:	2000      	movs	r0, #0
 8006ddc:	4770      	bx	lr
 8006dde:	bf00      	nop
 8006de0:	00010007 	.word	0x00010007

08006de4 <HAL_TIM_PWM_MspInit>:
 8006de4:	4770      	bx	lr
 8006de6:	bf00      	nop

08006de8 <HAL_TIM_PWM_Init>:
 8006de8:	2800      	cmp	r0, #0
 8006dea:	d06b      	beq.n	8006ec4 <HAL_TIM_PWM_Init+0xdc>
 8006dec:	b5f8      	push	{r3, r4, r5, r6, r7, lr}
 8006dee:	f890 303d 	ldrb.w	r3, [r0, #61]	; 0x3d
 8006df2:	4604      	mov	r4, r0
 8006df4:	f003 02ff 	and.w	r2, r3, #255	; 0xff
 8006df8:	b363      	cbz	r3, 8006e54 <HAL_TIM_PWM_Init+0x6c>
 8006dfa:	6822      	ldr	r2, [r4, #0]
 8006dfc:	4e3b      	ldr	r6, [pc, #236]	; (8006eec <HAL_TIM_PWM_Init+0x104>)
 8006dfe:	69a5      	ldr	r5, [r4, #24]
 8006e00:	68e0      	ldr	r0, [r4, #12]
 8006e02:	6861      	ldr	r1, [r4, #4]
 8006e04:	2302      	movs	r3, #2
 8006e06:	f884 303d 	strb.w	r3, [r4, #61]	; 0x3d
 8006e0a:	42b2      	cmp	r2, r6
 8006e0c:	6813      	ldr	r3, [r2, #0]
 8006e0e:	d05b      	beq.n	8006ec8 <HAL_TIM_PWM_Init+0xe0>
 8006e10:	f1b2 4f80 	cmp.w	r2, #1073741824	; 0x40000000
 8006e14:	d03c      	beq.n	8006e90 <HAL_TIM_PWM_Init+0xa8>
 8006e16:	f5a6 3694 	sub.w	r6, r6, #75776	; 0x12800
 8006e1a:	42b2      	cmp	r2, r6
 8006e1c:	d01f      	beq.n	8006e5e <HAL_TIM_PWM_Init+0x76>
 8006e1e:	f506 6680 	add.w	r6, r6, #1024	; 0x400
 8006e22:	42b2      	cmp	r2, r6
 8006e24:	d01b      	beq.n	8006e5e <HAL_TIM_PWM_Init+0x76>
 8006e26:	f506 3696 	add.w	r6, r6, #76800	; 0x12c00
 8006e2a:	42b2      	cmp	r2, r6
 8006e2c:	d017      	beq.n	8006e5e <HAL_TIM_PWM_Init+0x76>
 8006e2e:	f506 6640 	add.w	r6, r6, #3072	; 0xc00
 8006e32:	42b2      	cmp	r2, r6
 8006e34:	d057      	beq.n	8006ee6 <HAL_TIM_PWM_Init+0xfe>
 8006e36:	f506 6680 	add.w	r6, r6, #1024	; 0x400
 8006e3a:	42b2      	cmp	r2, r6
 8006e3c:	d053      	beq.n	8006ee6 <HAL_TIM_PWM_Init+0xfe>
 8006e3e:	f506 6680 	add.w	r6, r6, #1024	; 0x400
 8006e42:	42b2      	cmp	r2, r6
 8006e44:	d04f      	beq.n	8006ee6 <HAL_TIM_PWM_Init+0xfe>
 8006e46:	f023 0380 	bic.w	r3, r3, #128	; 0x80
 8006e4a:	432b      	orrs	r3, r5
 8006e4c:	6013      	str	r3, [r2, #0]
 8006e4e:	62d0      	str	r0, [r2, #44]	; 0x2c
 8006e50:	6291      	str	r1, [r2, #40]	; 0x28
 8006e52:	e017      	b.n	8006e84 <HAL_TIM_PWM_Init+0x9c>
 8006e54:	f880 203c 	strb.w	r2, [r0, #60]	; 0x3c
 8006e58:	f7ff ffc4 	bl	8006de4 <HAL_TIM_PWM_MspInit>
 8006e5c:	e7cd      	b.n	8006dfa <HAL_TIM_PWM_Init+0x12>
 8006e5e:	68a6      	ldr	r6, [r4, #8]
 8006e60:	4f23      	ldr	r7, [pc, #140]	; (8006ef0 <HAL_TIM_PWM_Init+0x108>)
 8006e62:	f023 0370 	bic.w	r3, r3, #112	; 0x70
 8006e66:	4333      	orrs	r3, r6
 8006e68:	6926      	ldr	r6, [r4, #16]
 8006e6a:	f423 7340 	bic.w	r3, r3, #768	; 0x300
 8006e6e:	4333      	orrs	r3, r6
 8006e70:	f023 0380 	bic.w	r3, r3, #128	; 0x80
 8006e74:	432b      	orrs	r3, r5
 8006e76:	42ba      	cmp	r2, r7
 8006e78:	6013      	str	r3, [r2, #0]
 8006e7a:	62d0      	str	r0, [r2, #44]	; 0x2c
 8006e7c:	6291      	str	r1, [r2, #40]	; 0x28
 8006e7e:	d115      	bne.n	8006eac <HAL_TIM_PWM_Init+0xc4>
 8006e80:	6963      	ldr	r3, [r4, #20]
 8006e82:	6313      	str	r3, [r2, #48]	; 0x30
 8006e84:	2301      	movs	r3, #1
 8006e86:	6153      	str	r3, [r2, #20]
 8006e88:	2000      	movs	r0, #0
 8006e8a:	f884 303d 	strb.w	r3, [r4, #61]	; 0x3d
 8006e8e:	bdf8      	pop	{r3, r4, r5, r6, r7, pc}
 8006e90:	68a7      	ldr	r7, [r4, #8]
 8006e92:	6926      	ldr	r6, [r4, #16]
 8006e94:	f023 0370 	bic.w	r3, r3, #112	; 0x70
 8006e98:	433b      	orrs	r3, r7
 8006e9a:	f423 7340 	bic.w	r3, r3, #768	; 0x300
 8006e9e:	4333      	orrs	r3, r6
 8006ea0:	f023 0380 	bic.w	r3, r3, #128	; 0x80
 8006ea4:	432b      	orrs	r3, r5
 8006ea6:	6013      	str	r3, [r2, #0]
 8006ea8:	62d0      	str	r0, [r2, #44]	; 0x2c
 8006eaa:	6291      	str	r1, [r2, #40]	; 0x28
 8006eac:	4b11      	ldr	r3, [pc, #68]	; (8006ef4 <HAL_TIM_PWM_Init+0x10c>)
 8006eae:	429a      	cmp	r2, r3
 8006eb0:	d0e6      	beq.n	8006e80 <HAL_TIM_PWM_Init+0x98>
 8006eb2:	f503 6380 	add.w	r3, r3, #1024	; 0x400
 8006eb6:	429a      	cmp	r2, r3
 8006eb8:	d0e2      	beq.n	8006e80 <HAL_TIM_PWM_Init+0x98>
 8006eba:	f503 6380 	add.w	r3, r3, #1024	; 0x400
 8006ebe:	429a      	cmp	r2, r3
 8006ec0:	d1e0      	bne.n	8006e84 <HAL_TIM_PWM_Init+0x9c>
 8006ec2:	e7dd      	b.n	8006e80 <HAL_TIM_PWM_Init+0x98>
 8006ec4:	2001      	movs	r0, #1
 8006ec6:	4770      	bx	lr
 8006ec8:	68a7      	ldr	r7, [r4, #8]
 8006eca:	6926      	ldr	r6, [r4, #16]
 8006ecc:	f023 0370 	bic.w	r3, r3, #112	; 0x70
 8006ed0:	433b      	orrs	r3, r7
 8006ed2:	f423 7340 	bic.w	r3, r3, #768	; 0x300
 8006ed6:	4333      	orrs	r3, r6
 8006ed8:	f023 0380 	bic.w	r3, r3, #128	; 0x80
 8006edc:	432b      	orrs	r3, r5
 8006ede:	6013      	str	r3, [r2, #0]
 8006ee0:	62d0      	str	r0, [r2, #44]	; 0x2c
 8006ee2:	6291      	str	r1, [r2, #40]	; 0x28
 8006ee4:	e7cc      	b.n	8006e80 <HAL_TIM_PWM_Init+0x98>
 8006ee6:	6926      	ldr	r6, [r4, #16]
 8006ee8:	e7f3      	b.n	8006ed2 <HAL_TIM_PWM_Init+0xea>
 8006eea:	bf00      	nop
 8006eec:	40012c00 	.word	0x40012c00
 8006ef0:	40013400 	.word	0x40013400
 8006ef4:	40014000 	.word	0x40014000

08006ef8 <HAL_TIM_Encoder_Init>:
 8006ef8:	2800      	cmp	r0, #0
 8006efa:	f000 80aa 	beq.w	8007052 <HAL_TIM_Encoder_Init+0x15a>
 8006efe:	f890 303d 	ldrb.w	r3, [r0, #61]	; 0x3d
 8006f02:	e92d 41f0 	stmdb	sp!, {r4, r5, r6, r7, r8, lr}
 8006f06:	f003 02ff 	and.w	r2, r3, #255	; 0xff
 8006f0a:	4604      	mov	r4, r0
 8006f0c:	460d      	mov	r5, r1
 8006f0e:	2b00      	cmp	r3, #0
 8006f10:	d038      	beq.n	8006f84 <HAL_TIM_Encoder_Init+0x8c>
 8006f12:	6823      	ldr	r3, [r4, #0]
 8006f14:	4e59      	ldr	r6, [pc, #356]	; (800707c <HAL_TIM_Encoder_Init+0x184>)
 8006f16:	f8d4 c018 	ldr.w	ip, [r4, #24]
 8006f1a:	68e0      	ldr	r0, [r4, #12]
 8006f1c:	6861      	ldr	r1, [r4, #4]
 8006f1e:	2202      	movs	r2, #2
 8006f20:	f884 203d 	strb.w	r2, [r4, #61]	; 0x3d
 8006f24:	689a      	ldr	r2, [r3, #8]
 8006f26:	f422 32a0 	bic.w	r2, r2, #81920	; 0x14000
 8006f2a:	f022 0207 	bic.w	r2, r2, #7
 8006f2e:	609a      	str	r2, [r3, #8]
 8006f30:	42b3      	cmp	r3, r6
 8006f32:	681a      	ldr	r2, [r3, #0]
 8006f34:	f000 808f 	beq.w	8007056 <HAL_TIM_Encoder_Init+0x15e>
 8006f38:	f1b3 4f80 	cmp.w	r3, #1073741824	; 0x40000000
 8006f3c:	d06e      	beq.n	800701c <HAL_TIM_Encoder_Init+0x124>
 8006f3e:	f5a6 3694 	sub.w	r6, r6, #75776	; 0x12800
 8006f42:	42b3      	cmp	r3, r6
 8006f44:	d023      	beq.n	8006f8e <HAL_TIM_Encoder_Init+0x96>
 8006f46:	f506 6680 	add.w	r6, r6, #1024	; 0x400
 8006f4a:	42b3      	cmp	r3, r6
 8006f4c:	d01f      	beq.n	8006f8e <HAL_TIM_Encoder_Init+0x96>
 8006f4e:	f506 3696 	add.w	r6, r6, #76800	; 0x12c00
 8006f52:	42b3      	cmp	r3, r6
 8006f54:	d01b      	beq.n	8006f8e <HAL_TIM_Encoder_Init+0x96>
 8006f56:	f506 6640 	add.w	r6, r6, #3072	; 0xc00
 8006f5a:	42b3      	cmp	r3, r6
 8006f5c:	f000 808b 	beq.w	8007076 <HAL_TIM_Encoder_Init+0x17e>
 8006f60:	f506 6680 	add.w	r6, r6, #1024	; 0x400
 8006f64:	42b3      	cmp	r3, r6
 8006f66:	f000 8086 	beq.w	8007076 <HAL_TIM_Encoder_Init+0x17e>
 8006f6a:	f506 6680 	add.w	r6, r6, #1024	; 0x400
 8006f6e:	42b3      	cmp	r3, r6
 8006f70:	f000 8081 	beq.w	8007076 <HAL_TIM_Encoder_Init+0x17e>
 8006f74:	f022 0280 	bic.w	r2, r2, #128	; 0x80
 8006f78:	ea42 020c 	orr.w	r2, r2, ip
 8006f7c:	601a      	str	r2, [r3, #0]
 8006f7e:	62d8      	str	r0, [r3, #44]	; 0x2c
 8006f80:	6299      	str	r1, [r3, #40]	; 0x28
 8006f82:	e018      	b.n	8006fb6 <HAL_TIM_Encoder_Init+0xbe>
 8006f84:	f880 203c 	strb.w	r2, [r0, #60]	; 0x3c
 8006f88:	f7fc f888 	bl	800309c <HAL_TIM_Encoder_MspInit>
 8006f8c:	e7c1      	b.n	8006f12 <HAL_TIM_Encoder_Init+0x1a>
 8006f8e:	68a6      	ldr	r6, [r4, #8]
 8006f90:	4f3b      	ldr	r7, [pc, #236]	; (8007080 <HAL_TIM_Encoder_Init+0x188>)
 8006f92:	f022 0270 	bic.w	r2, r2, #112	; 0x70
 8006f96:	4332      	orrs	r2, r6
 8006f98:	6926      	ldr	r6, [r4, #16]
 8006f9a:	f422 7240 	bic.w	r2, r2, #768	; 0x300
 8006f9e:	4332      	orrs	r2, r6
 8006fa0:	f022 0280 	bic.w	r2, r2, #128	; 0x80
 8006fa4:	ea42 020c 	orr.w	r2, r2, ip
 8006fa8:	42bb      	cmp	r3, r7
 8006faa:	601a      	str	r2, [r3, #0]
 8006fac:	62d8      	str	r0, [r3, #44]	; 0x2c
 8006fae:	6299      	str	r1, [r3, #40]	; 0x28
 8006fb0:	d143      	bne.n	800703a <HAL_TIM_Encoder_Init+0x142>
 8006fb2:	6962      	ldr	r2, [r4, #20]
 8006fb4:	631a      	str	r2, [r3, #48]	; 0x30
 8006fb6:	f04f 0c01 	mov.w	ip, #1
 8006fba:	f8c3 c014 	str.w	ip, [r3, #20]
 8006fbe:	6898      	ldr	r0, [r3, #8]
 8006fc0:	699e      	ldr	r6, [r3, #24]
 8006fc2:	69af      	ldr	r7, [r5, #24]
 8006fc4:	68a9      	ldr	r1, [r5, #8]
 8006fc6:	692a      	ldr	r2, [r5, #16]
 8006fc8:	f8d5 e000 	ldr.w	lr, [r5]
 8006fcc:	f426 7840 	bic.w	r8, r6, #768	; 0x300
 8006fd0:	69ee      	ldr	r6, [r5, #28]
 8006fd2:	ea41 2107 	orr.w	r1, r1, r7, lsl #8
 8006fd6:	0112      	lsls	r2, r2, #4
 8006fd8:	68ef      	ldr	r7, [r5, #12]
 8006fda:	ea42 2206 	orr.w	r2, r2, r6, lsl #8
 8006fde:	433a      	orrs	r2, r7
 8006fe0:	6a2f      	ldr	r7, [r5, #32]
 8006fe2:	6a1e      	ldr	r6, [r3, #32]
 8006fe4:	f028 0803 	bic.w	r8, r8, #3
 8006fe8:	ea41 0108 	orr.w	r1, r1, r8
 8006fec:	ea42 3207 	orr.w	r2, r2, r7, lsl #12
 8006ff0:	696f      	ldr	r7, [r5, #20]
 8006ff2:	686d      	ldr	r5, [r5, #4]
 8006ff4:	f421 417c 	bic.w	r1, r1, #64512	; 0xfc00
 8006ff8:	f021 01fc 	bic.w	r1, r1, #252	; 0xfc
 8006ffc:	f026 06aa 	bic.w	r6, r6, #170	; 0xaa
 8007000:	ea45 1507 	orr.w	r5, r5, r7, lsl #4
 8007004:	ea40 000e 	orr.w	r0, r0, lr
 8007008:	430a      	orrs	r2, r1
 800700a:	4335      	orrs	r5, r6
 800700c:	6098      	str	r0, [r3, #8]
 800700e:	619a      	str	r2, [r3, #24]
 8007010:	2000      	movs	r0, #0
 8007012:	621d      	str	r5, [r3, #32]
 8007014:	f884 c03d 	strb.w	ip, [r4, #61]	; 0x3d
 8007018:	e8bd 81f0 	ldmia.w	sp!, {r4, r5, r6, r7, r8, pc}
 800701c:	68a7      	ldr	r7, [r4, #8]
 800701e:	6926      	ldr	r6, [r4, #16]
 8007020:	f022 0270 	bic.w	r2, r2, #112	; 0x70
 8007024:	433a      	orrs	r2, r7
 8007026:	f422 7240 	bic.w	r2, r2, #768	; 0x300
 800702a:	4332      	orrs	r2, r6
 800702c:	f022 0280 	bic.w	r2, r2, #128	; 0x80
 8007030:	ea42 020c 	orr.w	r2, r2, ip
 8007034:	601a      	str	r2, [r3, #0]
 8007036:	62d8      	str	r0, [r3, #44]	; 0x2c
 8007038:	6299      	str	r1, [r3, #40]	; 0x28
 800703a:	4a12      	ldr	r2, [pc, #72]	; (8007084 <HAL_TIM_Encoder_Init+0x18c>)
 800703c:	4293      	cmp	r3, r2
 800703e:	d0b8      	beq.n	8006fb2 <HAL_TIM_Encoder_Init+0xba>
 8007040:	f502 6280 	add.w	r2, r2, #1024	; 0x400
 8007044:	4293      	cmp	r3, r2
 8007046:	d0b4      	beq.n	8006fb2 <HAL_TIM_Encoder_Init+0xba>
 8007048:	f502 6280 	add.w	r2, r2, #1024	; 0x400
 800704c:	4293      	cmp	r3, r2
 800704e:	d1b2      	bne.n	8006fb6 <HAL_TIM_Encoder_Init+0xbe>
 8007050:	e7af      	b.n	8006fb2 <HAL_TIM_Encoder_Init+0xba>
 8007052:	2001      	movs	r0, #1
 8007054:	4770      	bx	lr
 8007056:	68a7      	ldr	r7, [r4, #8]
 8007058:	6926      	ldr	r6, [r4, #16]
 800705a:	f022 0270 	bic.w	r2, r2, #112	; 0x70
 800705e:	433a      	orrs	r2, r7
 8007060:	f422 7240 	bic.w	r2, r2, #768	; 0x300
 8007064:	4332      	orrs	r2, r6
 8007066:	f022 0280 	bic.w	r2, r2, #128	; 0x80
 800706a:	ea42 020c 	orr.w	r2, r2, ip
 800706e:	601a      	str	r2, [r3, #0]
 8007070:	62d8      	str	r0, [r3, #44]	; 0x2c
 8007072:	6299      	str	r1, [r3, #40]	; 0x28
 8007074:	e79d      	b.n	8006fb2 <HAL_TIM_Encoder_Init+0xba>
 8007076:	6926      	ldr	r6, [r4, #16]
 8007078:	e7f2      	b.n	8007060 <HAL_TIM_Encoder_Init+0x168>
 800707a:	bf00      	nop
 800707c:	40012c00 	.word	0x40012c00
 8007080:	40013400 	.word	0x40013400
 8007084:	40014000 	.word	0x40014000

08007088 <HAL_TIM_PWM_ConfigChannel>:
 8007088:	f890 303c 	ldrb.w	r3, [r0, #60]	; 0x3c
 800708c:	2b01      	cmp	r3, #1
 800708e:	f000 81b2 	beq.w	80073f6 <HAL_TIM_PWM_ConfigChannel+0x36e>
 8007092:	b4f0      	push	{r4, r5, r6, r7}
 8007094:	2302      	movs	r3, #2
 8007096:	2401      	movs	r4, #1
 8007098:	f880 403c 	strb.w	r4, [r0, #60]	; 0x3c
 800709c:	f880 303d 	strb.w	r3, [r0, #61]	; 0x3d
 80070a0:	2a14      	cmp	r2, #20
 80070a2:	d854      	bhi.n	800714e <HAL_TIM_PWM_ConfigChannel+0xc6>
 80070a4:	e8df f012 	tbh	[pc, r2, lsl #1]
 80070a8:	00530015 	.word	0x00530015
 80070ac:	00530053 	.word	0x00530053
 80070b0:	0053009c 	.word	0x0053009c
 80070b4:	00530053 	.word	0x00530053
 80070b8:	00530166 	.word	0x00530166
 80070bc:	00530053 	.word	0x00530053
 80070c0:	005300e0 	.word	0x005300e0
 80070c4:	00530053 	.word	0x00530053
 80070c8:	00530124 	.word	0x00530124
 80070cc:	00530053 	.word	0x00530053
 80070d0:	005c      	.short	0x005c
 80070d2:	6803      	ldr	r3, [r0, #0]
 80070d4:	f8d1 c008 	ldr.w	ip, [r1, #8]
 80070d8:	6a1d      	ldr	r5, [r3, #32]
 80070da:	680f      	ldr	r7, [r1, #0]
 80070dc:	4ea4      	ldr	r6, [pc, #656]	; (8007370 <HAL_TIM_PWM_ConfigChannel+0x2e8>)
 80070de:	f025 0501 	bic.w	r5, r5, #1
 80070e2:	621d      	str	r5, [r3, #32]
 80070e4:	6a1a      	ldr	r2, [r3, #32]
 80070e6:	685d      	ldr	r5, [r3, #4]
 80070e8:	699c      	ldr	r4, [r3, #24]
 80070ea:	f424 3480 	bic.w	r4, r4, #65536	; 0x10000
 80070ee:	f022 0202 	bic.w	r2, r2, #2
 80070f2:	f024 0473 	bic.w	r4, r4, #115	; 0x73
 80070f6:	42b3      	cmp	r3, r6
 80070f8:	ea42 020c 	orr.w	r2, r2, ip
 80070fc:	ea44 0407 	orr.w	r4, r4, r7
 8007100:	d008      	beq.n	8007114 <HAL_TIM_PWM_ConfigChannel+0x8c>
 8007102:	f506 6600 	add.w	r6, r6, #2048	; 0x800
 8007106:	42b3      	cmp	r3, r6
 8007108:	d004      	beq.n	8007114 <HAL_TIM_PWM_ConfigChannel+0x8c>
 800710a:	f506 6640 	add.w	r6, r6, #3072	; 0xc00
 800710e:	42b3      	cmp	r3, r6
 8007110:	f040 818b 	bne.w	800742a <HAL_TIM_PWM_ConfigChannel+0x3a2>
 8007114:	68ce      	ldr	r6, [r1, #12]
 8007116:	f022 0208 	bic.w	r2, r2, #8
 800711a:	4332      	orrs	r2, r6
 800711c:	e9d1 6705 	ldrd	r6, r7, [r1, #20]
 8007120:	f425 7540 	bic.w	r5, r5, #768	; 0x300
 8007124:	433e      	orrs	r6, r7
 8007126:	f022 0204 	bic.w	r2, r2, #4
 800712a:	4335      	orrs	r5, r6
 800712c:	684e      	ldr	r6, [r1, #4]
 800712e:	605d      	str	r5, [r3, #4]
 8007130:	619c      	str	r4, [r3, #24]
 8007132:	635e      	str	r6, [r3, #52]	; 0x34
 8007134:	621a      	str	r2, [r3, #32]
 8007136:	699c      	ldr	r4, [r3, #24]
 8007138:	690d      	ldr	r5, [r1, #16]
 800713a:	f044 0408 	orr.w	r4, r4, #8
 800713e:	619c      	str	r4, [r3, #24]
 8007140:	6999      	ldr	r1, [r3, #24]
 8007142:	f021 0104 	bic.w	r1, r1, #4
 8007146:	6199      	str	r1, [r3, #24]
 8007148:	699a      	ldr	r2, [r3, #24]
 800714a:	432a      	orrs	r2, r5
 800714c:	619a      	str	r2, [r3, #24]
 800714e:	2300      	movs	r3, #0
 8007150:	2201      	movs	r2, #1
 8007152:	f880 203d 	strb.w	r2, [r0, #61]	; 0x3d
 8007156:	f880 303c 	strb.w	r3, [r0, #60]	; 0x3c
 800715a:	bcf0      	pop	{r4, r5, r6, r7}
 800715c:	4618      	mov	r0, r3
 800715e:	4770      	bx	lr
 8007160:	6803      	ldr	r3, [r0, #0]
 8007162:	f8d1 c008 	ldr.w	ip, [r1, #8]
 8007166:	6a1d      	ldr	r5, [r3, #32]
 8007168:	680f      	ldr	r7, [r1, #0]
 800716a:	4e81      	ldr	r6, [pc, #516]	; (8007370 <HAL_TIM_PWM_ConfigChannel+0x2e8>)
 800716c:	f425 1580 	bic.w	r5, r5, #1048576	; 0x100000
 8007170:	621d      	str	r5, [r3, #32]
 8007172:	6a1c      	ldr	r4, [r3, #32]
 8007174:	685d      	ldr	r5, [r3, #4]
 8007176:	6d1a      	ldr	r2, [r3, #80]	; 0x50
 8007178:	f022 7280 	bic.w	r2, r2, #16777216	; 0x1000000
 800717c:	f424 1400 	bic.w	r4, r4, #2097152	; 0x200000
 8007180:	f422 42e0 	bic.w	r2, r2, #28672	; 0x7000
 8007184:	42b3      	cmp	r3, r6
 8007186:	ea44 540c 	orr.w	r4, r4, ip, lsl #20
 800718a:	ea42 2207 	orr.w	r2, r2, r7, lsl #8
 800718e:	d00f      	beq.n	80071b0 <HAL_TIM_PWM_ConfigChannel+0x128>
 8007190:	f506 6600 	add.w	r6, r6, #2048	; 0x800
 8007194:	42b3      	cmp	r3, r6
 8007196:	d00b      	beq.n	80071b0 <HAL_TIM_PWM_ConfigChannel+0x128>
 8007198:	f506 6640 	add.w	r6, r6, #3072	; 0xc00
 800719c:	42b3      	cmp	r3, r6
 800719e:	d007      	beq.n	80071b0 <HAL_TIM_PWM_ConfigChannel+0x128>
 80071a0:	f506 6680 	add.w	r6, r6, #1024	; 0x400
 80071a4:	42b3      	cmp	r3, r6
 80071a6:	d003      	beq.n	80071b0 <HAL_TIM_PWM_ConfigChannel+0x128>
 80071a8:	f506 6680 	add.w	r6, r6, #1024	; 0x400
 80071ac:	42b3      	cmp	r3, r6
 80071ae:	d104      	bne.n	80071ba <HAL_TIM_PWM_ConfigChannel+0x132>
 80071b0:	694e      	ldr	r6, [r1, #20]
 80071b2:	f425 2580 	bic.w	r5, r5, #262144	; 0x40000
 80071b6:	ea45 2586 	orr.w	r5, r5, r6, lsl #10
 80071ba:	684e      	ldr	r6, [r1, #4]
 80071bc:	605d      	str	r5, [r3, #4]
 80071be:	651a      	str	r2, [r3, #80]	; 0x50
 80071c0:	64de      	str	r6, [r3, #76]	; 0x4c
 80071c2:	621c      	str	r4, [r3, #32]
 80071c4:	6d1c      	ldr	r4, [r3, #80]	; 0x50
 80071c6:	690d      	ldr	r5, [r1, #16]
 80071c8:	f444 6400 	orr.w	r4, r4, #2048	; 0x800
 80071cc:	651c      	str	r4, [r3, #80]	; 0x50
 80071ce:	6d19      	ldr	r1, [r3, #80]	; 0x50
 80071d0:	f421 6180 	bic.w	r1, r1, #1024	; 0x400
 80071d4:	6519      	str	r1, [r3, #80]	; 0x50
 80071d6:	6d1a      	ldr	r2, [r3, #80]	; 0x50
 80071d8:	ea42 2205 	orr.w	r2, r2, r5, lsl #8
 80071dc:	651a      	str	r2, [r3, #80]	; 0x50
 80071de:	e7b6      	b.n	800714e <HAL_TIM_PWM_ConfigChannel+0xc6>
 80071e0:	6803      	ldr	r3, [r0, #0]
 80071e2:	f8d1 c008 	ldr.w	ip, [r1, #8]
 80071e6:	6a1d      	ldr	r5, [r3, #32]
 80071e8:	680f      	ldr	r7, [r1, #0]
 80071ea:	4e61      	ldr	r6, [pc, #388]	; (8007370 <HAL_TIM_PWM_ConfigChannel+0x2e8>)
 80071ec:	f025 0510 	bic.w	r5, r5, #16
 80071f0:	621d      	str	r5, [r3, #32]
 80071f2:	6a1c      	ldr	r4, [r3, #32]
 80071f4:	685d      	ldr	r5, [r3, #4]
 80071f6:	699a      	ldr	r2, [r3, #24]
 80071f8:	f022 7280 	bic.w	r2, r2, #16777216	; 0x1000000
 80071fc:	f024 0420 	bic.w	r4, r4, #32
 8007200:	f422 42e6 	bic.w	r2, r2, #29440	; 0x7300
 8007204:	42b3      	cmp	r3, r6
 8007206:	ea44 140c 	orr.w	r4, r4, ip, lsl #4
 800720a:	ea42 2207 	orr.w	r2, r2, r7, lsl #8
 800720e:	f000 80f4 	beq.w	80073fa <HAL_TIM_PWM_ConfigChannel+0x372>
 8007212:	f506 6600 	add.w	r6, r6, #2048	; 0x800
 8007216:	42b3      	cmp	r3, r6
 8007218:	f000 80ef 	beq.w	80073fa <HAL_TIM_PWM_ConfigChannel+0x372>
 800721c:	f506 6640 	add.w	r6, r6, #3072	; 0xc00
 8007220:	42b3      	cmp	r3, r6
 8007222:	d007      	beq.n	8007234 <HAL_TIM_PWM_ConfigChannel+0x1ac>
 8007224:	f506 6680 	add.w	r6, r6, #1024	; 0x400
 8007228:	42b3      	cmp	r3, r6
 800722a:	d003      	beq.n	8007234 <HAL_TIM_PWM_ConfigChannel+0x1ac>
 800722c:	f506 6680 	add.w	r6, r6, #1024	; 0x400
 8007230:	42b3      	cmp	r3, r6
 8007232:	d106      	bne.n	8007242 <HAL_TIM_PWM_ConfigChannel+0x1ba>
 8007234:	e9d1 6705 	ldrd	r6, r7, [r1, #20]
 8007238:	f425 6540 	bic.w	r5, r5, #3072	; 0xc00
 800723c:	433e      	orrs	r6, r7
 800723e:	ea45 0586 	orr.w	r5, r5, r6, lsl #2
 8007242:	684e      	ldr	r6, [r1, #4]
 8007244:	605d      	str	r5, [r3, #4]
 8007246:	619a      	str	r2, [r3, #24]
 8007248:	639e      	str	r6, [r3, #56]	; 0x38
 800724a:	621c      	str	r4, [r3, #32]
 800724c:	699c      	ldr	r4, [r3, #24]
 800724e:	690d      	ldr	r5, [r1, #16]
 8007250:	f444 6400 	orr.w	r4, r4, #2048	; 0x800
 8007254:	619c      	str	r4, [r3, #24]
 8007256:	6999      	ldr	r1, [r3, #24]
 8007258:	f421 6180 	bic.w	r1, r1, #1024	; 0x400
 800725c:	6199      	str	r1, [r3, #24]
 800725e:	699a      	ldr	r2, [r3, #24]
 8007260:	ea42 2205 	orr.w	r2, r2, r5, lsl #8
 8007264:	619a      	str	r2, [r3, #24]
 8007266:	e772      	b.n	800714e <HAL_TIM_PWM_ConfigChannel+0xc6>
 8007268:	6803      	ldr	r3, [r0, #0]
 800726a:	f8d1 c008 	ldr.w	ip, [r1, #8]
 800726e:	6a1d      	ldr	r5, [r3, #32]
 8007270:	680f      	ldr	r7, [r1, #0]
 8007272:	4e3f      	ldr	r6, [pc, #252]	; (8007370 <HAL_TIM_PWM_ConfigChannel+0x2e8>)
 8007274:	f425 5580 	bic.w	r5, r5, #4096	; 0x1000
 8007278:	621d      	str	r5, [r3, #32]
 800727a:	6a1c      	ldr	r4, [r3, #32]
 800727c:	685d      	ldr	r5, [r3, #4]
 800727e:	69da      	ldr	r2, [r3, #28]
 8007280:	f022 7280 	bic.w	r2, r2, #16777216	; 0x1000000
 8007284:	f424 5400 	bic.w	r4, r4, #8192	; 0x2000
 8007288:	f422 42e6 	bic.w	r2, r2, #29440	; 0x7300
 800728c:	42b3      	cmp	r3, r6
 800728e:	ea44 340c 	orr.w	r4, r4, ip, lsl #12
 8007292:	ea42 2207 	orr.w	r2, r2, r7, lsl #8
 8007296:	f000 80c0 	beq.w	800741a <HAL_TIM_PWM_ConfigChannel+0x392>
 800729a:	f506 6600 	add.w	r6, r6, #2048	; 0x800
 800729e:	42b3      	cmp	r3, r6
 80072a0:	f000 80bb 	beq.w	800741a <HAL_TIM_PWM_ConfigChannel+0x392>
 80072a4:	f506 6640 	add.w	r6, r6, #3072	; 0xc00
 80072a8:	42b3      	cmp	r3, r6
 80072aa:	d007      	beq.n	80072bc <HAL_TIM_PWM_ConfigChannel+0x234>
 80072ac:	f506 6680 	add.w	r6, r6, #1024	; 0x400
 80072b0:	42b3      	cmp	r3, r6
 80072b2:	d003      	beq.n	80072bc <HAL_TIM_PWM_ConfigChannel+0x234>
 80072b4:	f506 6680 	add.w	r6, r6, #1024	; 0x400
 80072b8:	42b3      	cmp	r3, r6
 80072ba:	d106      	bne.n	80072ca <HAL_TIM_PWM_ConfigChannel+0x242>
 80072bc:	e9d1 6705 	ldrd	r6, r7, [r1, #20]
 80072c0:	f425 4540 	bic.w	r5, r5, #49152	; 0xc000
 80072c4:	433e      	orrs	r6, r7
 80072c6:	ea45 1586 	orr.w	r5, r5, r6, lsl #6
 80072ca:	684e      	ldr	r6, [r1, #4]
 80072cc:	605d      	str	r5, [r3, #4]
 80072ce:	61da      	str	r2, [r3, #28]
 80072d0:	641e      	str	r6, [r3, #64]	; 0x40
 80072d2:	621c      	str	r4, [r3, #32]
 80072d4:	69dc      	ldr	r4, [r3, #28]
 80072d6:	690d      	ldr	r5, [r1, #16]
 80072d8:	f444 6400 	orr.w	r4, r4, #2048	; 0x800
 80072dc:	61dc      	str	r4, [r3, #28]
 80072de:	69d9      	ldr	r1, [r3, #28]
 80072e0:	f421 6180 	bic.w	r1, r1, #1024	; 0x400
 80072e4:	61d9      	str	r1, [r3, #28]
 80072e6:	69da      	ldr	r2, [r3, #28]
 80072e8:	ea42 2205 	orr.w	r2, r2, r5, lsl #8
 80072ec:	61da      	str	r2, [r3, #28]
 80072ee:	e72e      	b.n	800714e <HAL_TIM_PWM_ConfigChannel+0xc6>
 80072f0:	6803      	ldr	r3, [r0, #0]
 80072f2:	f8d1 c008 	ldr.w	ip, [r1, #8]
 80072f6:	6a1d      	ldr	r5, [r3, #32]
 80072f8:	680f      	ldr	r7, [r1, #0]
 80072fa:	4e1d      	ldr	r6, [pc, #116]	; (8007370 <HAL_TIM_PWM_ConfigChannel+0x2e8>)
 80072fc:	f425 3580 	bic.w	r5, r5, #65536	; 0x10000
 8007300:	621d      	str	r5, [r3, #32]
 8007302:	6a1c      	ldr	r4, [r3, #32]
 8007304:	685d      	ldr	r5, [r3, #4]
 8007306:	6d1a      	ldr	r2, [r3, #80]	; 0x50
 8007308:	f422 3280 	bic.w	r2, r2, #65536	; 0x10000
 800730c:	f424 3400 	bic.w	r4, r4, #131072	; 0x20000
 8007310:	f022 0270 	bic.w	r2, r2, #112	; 0x70
 8007314:	42b3      	cmp	r3, r6
 8007316:	ea44 440c 	orr.w	r4, r4, ip, lsl #16
 800731a:	ea42 0207 	orr.w	r2, r2, r7
 800731e:	d00f      	beq.n	8007340 <HAL_TIM_PWM_ConfigChannel+0x2b8>
 8007320:	f506 6600 	add.w	r6, r6, #2048	; 0x800
 8007324:	42b3      	cmp	r3, r6
 8007326:	d00b      	beq.n	8007340 <HAL_TIM_PWM_ConfigChannel+0x2b8>
 8007328:	f506 6640 	add.w	r6, r6, #3072	; 0xc00
 800732c:	42b3      	cmp	r3, r6
 800732e:	d007      	beq.n	8007340 <HAL_TIM_PWM_ConfigChannel+0x2b8>
 8007330:	f506 6680 	add.w	r6, r6, #1024	; 0x400
 8007334:	42b3      	cmp	r3, r6
 8007336:	d003      	beq.n	8007340 <HAL_TIM_PWM_ConfigChannel+0x2b8>
 8007338:	f506 6680 	add.w	r6, r6, #1024	; 0x400
 800733c:	42b3      	cmp	r3, r6
 800733e:	d104      	bne.n	800734a <HAL_TIM_PWM_ConfigChannel+0x2c2>
 8007340:	694e      	ldr	r6, [r1, #20]
 8007342:	f425 3580 	bic.w	r5, r5, #65536	; 0x10000
 8007346:	ea45 2506 	orr.w	r5, r5, r6, lsl #8
 800734a:	684e      	ldr	r6, [r1, #4]
 800734c:	605d      	str	r5, [r3, #4]
 800734e:	651a      	str	r2, [r3, #80]	; 0x50
 8007350:	649e      	str	r6, [r3, #72]	; 0x48
 8007352:	621c      	str	r4, [r3, #32]
 8007354:	6d1c      	ldr	r4, [r3, #80]	; 0x50
 8007356:	690d      	ldr	r5, [r1, #16]
 8007358:	f044 0408 	orr.w	r4, r4, #8
 800735c:	651c      	str	r4, [r3, #80]	; 0x50
 800735e:	6d19      	ldr	r1, [r3, #80]	; 0x50
 8007360:	f021 0104 	bic.w	r1, r1, #4
 8007364:	6519      	str	r1, [r3, #80]	; 0x50
 8007366:	6d1a      	ldr	r2, [r3, #80]	; 0x50
 8007368:	432a      	orrs	r2, r5
 800736a:	651a      	str	r2, [r3, #80]	; 0x50
 800736c:	e6ef      	b.n	800714e <HAL_TIM_PWM_ConfigChannel+0xc6>
 800736e:	bf00      	nop
 8007370:	40012c00 	.word	0x40012c00
 8007374:	6803      	ldr	r3, [r0, #0]
 8007376:	f8d1 c008 	ldr.w	ip, [r1, #8]
 800737a:	6a1d      	ldr	r5, [r3, #32]
 800737c:	680f      	ldr	r7, [r1, #0]
 800737e:	4e30      	ldr	r6, [pc, #192]	; (8007440 <HAL_TIM_PWM_ConfigChannel+0x3b8>)
 8007380:	f425 7580 	bic.w	r5, r5, #256	; 0x100
 8007384:	621d      	str	r5, [r3, #32]
 8007386:	6a1c      	ldr	r4, [r3, #32]
 8007388:	685d      	ldr	r5, [r3, #4]
 800738a:	69da      	ldr	r2, [r3, #28]
 800738c:	f422 3280 	bic.w	r2, r2, #65536	; 0x10000
 8007390:	f424 7400 	bic.w	r4, r4, #512	; 0x200
 8007394:	f022 0273 	bic.w	r2, r2, #115	; 0x73
 8007398:	42b3      	cmp	r3, r6
 800739a:	ea44 240c 	orr.w	r4, r4, ip, lsl #8
 800739e:	ea42 0207 	orr.w	r2, r2, r7
 80073a2:	d032      	beq.n	800740a <HAL_TIM_PWM_ConfigChannel+0x382>
 80073a4:	f506 6600 	add.w	r6, r6, #2048	; 0x800
 80073a8:	42b3      	cmp	r3, r6
 80073aa:	d02e      	beq.n	800740a <HAL_TIM_PWM_ConfigChannel+0x382>
 80073ac:	f506 6640 	add.w	r6, r6, #3072	; 0xc00
 80073b0:	42b3      	cmp	r3, r6
 80073b2:	d007      	beq.n	80073c4 <HAL_TIM_PWM_ConfigChannel+0x33c>
 80073b4:	f506 6680 	add.w	r6, r6, #1024	; 0x400
 80073b8:	42b3      	cmp	r3, r6
 80073ba:	d003      	beq.n	80073c4 <HAL_TIM_PWM_ConfigChannel+0x33c>
 80073bc:	f506 6680 	add.w	r6, r6, #1024	; 0x400
 80073c0:	42b3      	cmp	r3, r6
 80073c2:	d106      	bne.n	80073d2 <HAL_TIM_PWM_ConfigChannel+0x34a>
 80073c4:	e9d1 6705 	ldrd	r6, r7, [r1, #20]
 80073c8:	f425 5540 	bic.w	r5, r5, #12288	; 0x3000
 80073cc:	433e      	orrs	r6, r7
 80073ce:	ea45 1506 	orr.w	r5, r5, r6, lsl #4
 80073d2:	684e      	ldr	r6, [r1, #4]
 80073d4:	605d      	str	r5, [r3, #4]
 80073d6:	61da      	str	r2, [r3, #28]
 80073d8:	63de      	str	r6, [r3, #60]	; 0x3c
 80073da:	621c      	str	r4, [r3, #32]
 80073dc:	69dc      	ldr	r4, [r3, #28]
 80073de:	690d      	ldr	r5, [r1, #16]
 80073e0:	f044 0408 	orr.w	r4, r4, #8
 80073e4:	61dc      	str	r4, [r3, #28]
 80073e6:	69d9      	ldr	r1, [r3, #28]
 80073e8:	f021 0104 	bic.w	r1, r1, #4
 80073ec:	61d9      	str	r1, [r3, #28]
 80073ee:	69da      	ldr	r2, [r3, #28]
 80073f0:	432a      	orrs	r2, r5
 80073f2:	61da      	str	r2, [r3, #28]
 80073f4:	e6ab      	b.n	800714e <HAL_TIM_PWM_ConfigChannel+0xc6>
 80073f6:	2002      	movs	r0, #2
 80073f8:	4770      	bx	lr
 80073fa:	68ce      	ldr	r6, [r1, #12]
 80073fc:	f024 0480 	bic.w	r4, r4, #128	; 0x80
 8007400:	ea44 1406 	orr.w	r4, r4, r6, lsl #4
 8007404:	f024 0440 	bic.w	r4, r4, #64	; 0x40
 8007408:	e714      	b.n	8007234 <HAL_TIM_PWM_ConfigChannel+0x1ac>
 800740a:	68ce      	ldr	r6, [r1, #12]
 800740c:	f424 6400 	bic.w	r4, r4, #2048	; 0x800
 8007410:	ea44 2406 	orr.w	r4, r4, r6, lsl #8
 8007414:	f424 6480 	bic.w	r4, r4, #1024	; 0x400
 8007418:	e7d4      	b.n	80073c4 <HAL_TIM_PWM_ConfigChannel+0x33c>
 800741a:	68ce      	ldr	r6, [r1, #12]
 800741c:	f424 4400 	bic.w	r4, r4, #32768	; 0x8000
 8007420:	ea44 3406 	orr.w	r4, r4, r6, lsl #12
 8007424:	f424 4480 	bic.w	r4, r4, #16384	; 0x4000
 8007428:	e748      	b.n	80072bc <HAL_TIM_PWM_ConfigChannel+0x234>
 800742a:	f506 6680 	add.w	r6, r6, #1024	; 0x400
 800742e:	42b3      	cmp	r3, r6
 8007430:	f43f ae70 	beq.w	8007114 <HAL_TIM_PWM_ConfigChannel+0x8c>
 8007434:	f506 6680 	add.w	r6, r6, #1024	; 0x400
 8007438:	42b3      	cmp	r3, r6
 800743a:	f47f ae77 	bne.w	800712c <HAL_TIM_PWM_ConfigChannel+0xa4>
 800743e:	e669      	b.n	8007114 <HAL_TIM_PWM_ConfigChannel+0x8c>
 8007440:	40012c00 	.word	0x40012c00

08007444 <HAL_TIM_ConfigClockSource>:
 8007444:	f890 303c 	ldrb.w	r3, [r0, #60]	; 0x3c
 8007448:	2b01      	cmp	r3, #1
 800744a:	f000 808a 	beq.w	8007562 <HAL_TIM_ConfigClockSource+0x11e>
 800744e:	2202      	movs	r2, #2
 8007450:	6803      	ldr	r3, [r0, #0]
 8007452:	b4f0      	push	{r4, r5, r6, r7}
 8007454:	f880 203d 	strb.w	r2, [r0, #61]	; 0x3d
 8007458:	689d      	ldr	r5, [r3, #8]
 800745a:	680a      	ldr	r2, [r1, #0]
 800745c:	4c5a      	ldr	r4, [pc, #360]	; (80075c8 <HAL_TIM_ConfigClockSource+0x184>)
 800745e:	2a70      	cmp	r2, #112	; 0x70
 8007460:	ea04 0405 	and.w	r4, r4, r5
 8007464:	f04f 0501 	mov.w	r5, #1
 8007468:	f880 503c 	strb.w	r5, [r0, #60]	; 0x3c
 800746c:	609c      	str	r4, [r3, #8]
 800746e:	d07a      	beq.n	8007566 <HAL_TIM_ConfigClockSource+0x122>
 8007470:	d824      	bhi.n	80074bc <HAL_TIM_ConfigClockSource+0x78>
 8007472:	2a30      	cmp	r2, #48	; 0x30
 8007474:	d06b      	beq.n	800754e <HAL_TIM_ConfigClockSource+0x10a>
 8007476:	f240 80a0 	bls.w	80075ba <HAL_TIM_ConfigClockSource+0x176>
 800747a:	2a50      	cmp	r2, #80	; 0x50
 800747c:	f000 8083 	beq.w	8007586 <HAL_TIM_ConfigClockSource+0x142>
 8007480:	2a60      	cmp	r2, #96	; 0x60
 8007482:	d040      	beq.n	8007506 <HAL_TIM_ConfigClockSource+0xc2>
 8007484:	2a40      	cmp	r2, #64	; 0x40
 8007486:	d135      	bne.n	80074f4 <HAL_TIM_ConfigClockSource+0xb0>
 8007488:	6a1d      	ldr	r5, [r3, #32]
 800748a:	6a1e      	ldr	r6, [r3, #32]
 800748c:	684c      	ldr	r4, [r1, #4]
 800748e:	68cf      	ldr	r7, [r1, #12]
 8007490:	f026 0601 	bic.w	r6, r6, #1
 8007494:	621e      	str	r6, [r3, #32]
 8007496:	699a      	ldr	r2, [r3, #24]
 8007498:	f025 010a 	bic.w	r1, r5, #10
 800749c:	f022 02f0 	bic.w	r2, r2, #240	; 0xf0
 80074a0:	ea42 1207 	orr.w	r2, r2, r7, lsl #4
 80074a4:	4321      	orrs	r1, r4
 80074a6:	619a      	str	r2, [r3, #24]
 80074a8:	6219      	str	r1, [r3, #32]
 80074aa:	689a      	ldr	r2, [r3, #8]
 80074ac:	f422 1240 	bic.w	r2, r2, #3145728	; 0x300000
 80074b0:	f022 0270 	bic.w	r2, r2, #112	; 0x70
 80074b4:	f042 0247 	orr.w	r2, r2, #71	; 0x47
 80074b8:	609a      	str	r2, [r3, #8]
 80074ba:	e01b      	b.n	80074f4 <HAL_TIM_ConfigClockSource+0xb0>
 80074bc:	4c43      	ldr	r4, [pc, #268]	; (80075cc <HAL_TIM_ConfigClockSource+0x188>)
 80074be:	42a2      	cmp	r2, r4
 80074c0:	d045      	beq.n	800754e <HAL_TIM_ConfigClockSource+0x10a>
 80074c2:	d83b      	bhi.n	800753c <HAL_TIM_ConfigClockSource+0xf8>
 80074c4:	f1b2 1f10 	cmp.w	r2, #1048592	; 0x100010
 80074c8:	d041      	beq.n	800754e <HAL_TIM_ConfigClockSource+0x10a>
 80074ca:	3c10      	subs	r4, #16
 80074cc:	42a2      	cmp	r2, r4
 80074ce:	d03e      	beq.n	800754e <HAL_TIM_ConfigClockSource+0x10a>
 80074d0:	f5b2 5f00 	cmp.w	r2, #8192	; 0x2000
 80074d4:	d10e      	bne.n	80074f4 <HAL_TIM_ConfigClockSource+0xb0>
 80074d6:	e9d1 5201 	ldrd	r5, r2, [r1, #4]
 80074da:	68cc      	ldr	r4, [r1, #12]
 80074dc:	6899      	ldr	r1, [r3, #8]
 80074de:	432a      	orrs	r2, r5
 80074e0:	ea42 2204 	orr.w	r2, r2, r4, lsl #8
 80074e4:	f421 417f 	bic.w	r1, r1, #65280	; 0xff00
 80074e8:	430a      	orrs	r2, r1
 80074ea:	609a      	str	r2, [r3, #8]
 80074ec:	689a      	ldr	r2, [r3, #8]
 80074ee:	f442 4280 	orr.w	r2, r2, #16384	; 0x4000
 80074f2:	609a      	str	r2, [r3, #8]
 80074f4:	2300      	movs	r3, #0
 80074f6:	2201      	movs	r2, #1
 80074f8:	f880 203d 	strb.w	r2, [r0, #61]	; 0x3d
 80074fc:	f880 303c 	strb.w	r3, [r0, #60]	; 0x3c
 8007500:	bcf0      	pop	{r4, r5, r6, r7}
 8007502:	4618      	mov	r0, r3
 8007504:	4770      	bx	lr
 8007506:	6a1c      	ldr	r4, [r3, #32]
 8007508:	684d      	ldr	r5, [r1, #4]
 800750a:	68ce      	ldr	r6, [r1, #12]
 800750c:	f024 0410 	bic.w	r4, r4, #16
 8007510:	621c      	str	r4, [r3, #32]
 8007512:	6999      	ldr	r1, [r3, #24]
 8007514:	6a1a      	ldr	r2, [r3, #32]
 8007516:	f421 4170 	bic.w	r1, r1, #61440	; 0xf000
 800751a:	f022 02a0 	bic.w	r2, r2, #160	; 0xa0
 800751e:	ea42 1205 	orr.w	r2, r2, r5, lsl #4
 8007522:	ea41 3106 	orr.w	r1, r1, r6, lsl #12
 8007526:	6199      	str	r1, [r3, #24]
 8007528:	621a      	str	r2, [r3, #32]
 800752a:	689a      	ldr	r2, [r3, #8]
 800752c:	f422 1240 	bic.w	r2, r2, #3145728	; 0x300000
 8007530:	f022 0270 	bic.w	r2, r2, #112	; 0x70
 8007534:	f042 0267 	orr.w	r2, r2, #103	; 0x67
 8007538:	609a      	str	r2, [r3, #8]
 800753a:	e7db      	b.n	80074f4 <HAL_TIM_ConfigClockSource+0xb0>
 800753c:	4924      	ldr	r1, [pc, #144]	; (80075d0 <HAL_TIM_ConfigClockSource+0x18c>)
 800753e:	428a      	cmp	r2, r1
 8007540:	d005      	beq.n	800754e <HAL_TIM_ConfigClockSource+0x10a>
 8007542:	3110      	adds	r1, #16
 8007544:	428a      	cmp	r2, r1
 8007546:	d002      	beq.n	800754e <HAL_TIM_ConfigClockSource+0x10a>
 8007548:	3930      	subs	r1, #48	; 0x30
 800754a:	428a      	cmp	r2, r1
 800754c:	d1d2      	bne.n	80074f4 <HAL_TIM_ConfigClockSource+0xb0>
 800754e:	6899      	ldr	r1, [r3, #8]
 8007550:	f421 1140 	bic.w	r1, r1, #3145728	; 0x300000
 8007554:	f042 0207 	orr.w	r2, r2, #7
 8007558:	f021 0170 	bic.w	r1, r1, #112	; 0x70
 800755c:	430a      	orrs	r2, r1
 800755e:	609a      	str	r2, [r3, #8]
 8007560:	e7c8      	b.n	80074f4 <HAL_TIM_ConfigClockSource+0xb0>
 8007562:	2002      	movs	r0, #2
 8007564:	4770      	bx	lr
 8007566:	e9d1 5201 	ldrd	r5, r2, [r1, #4]
 800756a:	68cc      	ldr	r4, [r1, #12]
 800756c:	6899      	ldr	r1, [r3, #8]
 800756e:	432a      	orrs	r2, r5
 8007570:	ea42 2204 	orr.w	r2, r2, r4, lsl #8
 8007574:	f421 417f 	bic.w	r1, r1, #65280	; 0xff00
 8007578:	430a      	orrs	r2, r1
 800757a:	609a      	str	r2, [r3, #8]
 800757c:	689a      	ldr	r2, [r3, #8]
 800757e:	f042 0277 	orr.w	r2, r2, #119	; 0x77
 8007582:	609a      	str	r2, [r3, #8]
 8007584:	e7b6      	b.n	80074f4 <HAL_TIM_ConfigClockSource+0xb0>
 8007586:	6a1d      	ldr	r5, [r3, #32]
 8007588:	6a1e      	ldr	r6, [r3, #32]
 800758a:	684c      	ldr	r4, [r1, #4]
 800758c:	68cf      	ldr	r7, [r1, #12]
 800758e:	f026 0601 	bic.w	r6, r6, #1
 8007592:	621e      	str	r6, [r3, #32]
 8007594:	699a      	ldr	r2, [r3, #24]
 8007596:	f025 010a 	bic.w	r1, r5, #10
 800759a:	f022 02f0 	bic.w	r2, r2, #240	; 0xf0
 800759e:	ea42 1207 	orr.w	r2, r2, r7, lsl #4
 80075a2:	4321      	orrs	r1, r4
 80075a4:	619a      	str	r2, [r3, #24]
 80075a6:	6219      	str	r1, [r3, #32]
 80075a8:	689a      	ldr	r2, [r3, #8]
 80075aa:	f422 1240 	bic.w	r2, r2, #3145728	; 0x300000
 80075ae:	f022 0270 	bic.w	r2, r2, #112	; 0x70
 80075b2:	f042 0257 	orr.w	r2, r2, #87	; 0x57
 80075b6:	609a      	str	r2, [r3, #8]
 80075b8:	e79c      	b.n	80074f4 <HAL_TIM_ConfigClockSource+0xb0>
 80075ba:	2a10      	cmp	r2, #16
 80075bc:	d0c7      	beq.n	800754e <HAL_TIM_ConfigClockSource+0x10a>
 80075be:	2a20      	cmp	r2, #32
 80075c0:	d0c5      	beq.n	800754e <HAL_TIM_ConfigClockSource+0x10a>
 80075c2:	2a00      	cmp	r2, #0
 80075c4:	d196      	bne.n	80074f4 <HAL_TIM_ConfigClockSource+0xb0>
 80075c6:	e7c2      	b.n	800754e <HAL_TIM_ConfigClockSource+0x10a>
 80075c8:	ffce0088 	.word	0xffce0088
 80075cc:	00100030 	.word	0x00100030
 80075d0:	00100060 	.word	0x00100060

080075d4 <HAL_TIM_SlaveConfigSynchro>:
 80075d4:	f890 303c 	ldrb.w	r3, [r0, #60]	; 0x3c
 80075d8:	2b01      	cmp	r3, #1
 80075da:	d04e      	beq.n	800767a <HAL_TIM_SlaveConfigSynchro+0xa6>
 80075dc:	6802      	ldr	r2, [r0, #0]
 80075de:	2302      	movs	r3, #2
 80075e0:	b4f0      	push	{r4, r5, r6, r7}
 80075e2:	f880 303d 	strb.w	r3, [r0, #61]	; 0x3d
 80075e6:	6893      	ldr	r3, [r2, #8]
 80075e8:	4604      	mov	r4, r0
 80075ea:	e9d1 5000 	ldrd	r5, r0, [r1]
 80075ee:	f423 1340 	bic.w	r3, r3, #3145728	; 0x300000
 80075f2:	f023 0370 	bic.w	r3, r3, #112	; 0x70
 80075f6:	4303      	orrs	r3, r0
 80075f8:	f423 3380 	bic.w	r3, r3, #65536	; 0x10000
 80075fc:	f023 0307 	bic.w	r3, r3, #7
 8007600:	432b      	orrs	r3, r5
 8007602:	2601      	movs	r6, #1
 8007604:	2850      	cmp	r0, #80	; 0x50
 8007606:	f884 603c 	strb.w	r6, [r4, #60]	; 0x3c
 800760a:	6093      	str	r3, [r2, #8]
 800760c:	d052      	beq.n	80076b4 <HAL_TIM_SlaveConfigSynchro+0xe0>
 800760e:	d91f      	bls.n	8007650 <HAL_TIM_SlaveConfigSynchro+0x7c>
 8007610:	2860      	cmp	r0, #96	; 0x60
 8007612:	d03c      	beq.n	800768e <HAL_TIM_SlaveConfigSynchro+0xba>
 8007614:	2870      	cmp	r0, #112	; 0x70
 8007616:	d10a      	bne.n	800762e <HAL_TIM_SlaveConfigSynchro+0x5a>
 8007618:	e9d1 5302 	ldrd	r5, r3, [r1, #8]
 800761c:	6908      	ldr	r0, [r1, #16]
 800761e:	6891      	ldr	r1, [r2, #8]
 8007620:	432b      	orrs	r3, r5
 8007622:	ea43 2300 	orr.w	r3, r3, r0, lsl #8
 8007626:	f421 417f 	bic.w	r1, r1, #65280	; 0xff00
 800762a:	430b      	orrs	r3, r1
 800762c:	6093      	str	r3, [r2, #8]
 800762e:	68d3      	ldr	r3, [r2, #12]
 8007630:	f023 0340 	bic.w	r3, r3, #64	; 0x40
 8007634:	60d3      	str	r3, [r2, #12]
 8007636:	68d3      	ldr	r3, [r2, #12]
 8007638:	2501      	movs	r5, #1
 800763a:	2100      	movs	r1, #0
 800763c:	f423 4380 	bic.w	r3, r3, #16384	; 0x4000
 8007640:	60d3      	str	r3, [r2, #12]
 8007642:	4608      	mov	r0, r1
 8007644:	f884 503d 	strb.w	r5, [r4, #61]	; 0x3d
 8007648:	f884 103c 	strb.w	r1, [r4, #60]	; 0x3c
 800764c:	bcf0      	pop	{r4, r5, r6, r7}
 800764e:	4770      	bx	lr
 8007650:	2840      	cmp	r0, #64	; 0x40
 8007652:	d1ec      	bne.n	800762e <HAL_TIM_SlaveConfigSynchro+0x5a>
 8007654:	2d05      	cmp	r5, #5
 8007656:	d012      	beq.n	800767e <HAL_TIM_SlaveConfigSynchro+0xaa>
 8007658:	f1b5 1f01 	cmp.w	r5, #65537	; 0x10001
 800765c:	d00f      	beq.n	800767e <HAL_TIM_SlaveConfigSynchro+0xaa>
 800765e:	6a15      	ldr	r5, [r2, #32]
 8007660:	6a10      	ldr	r0, [r2, #32]
 8007662:	690e      	ldr	r6, [r1, #16]
 8007664:	f020 0001 	bic.w	r0, r0, #1
 8007668:	6210      	str	r0, [r2, #32]
 800766a:	6993      	ldr	r3, [r2, #24]
 800766c:	f023 03f0 	bic.w	r3, r3, #240	; 0xf0
 8007670:	ea43 1306 	orr.w	r3, r3, r6, lsl #4
 8007674:	6193      	str	r3, [r2, #24]
 8007676:	6215      	str	r5, [r2, #32]
 8007678:	e7d9      	b.n	800762e <HAL_TIM_SlaveConfigSynchro+0x5a>
 800767a:	2002      	movs	r0, #2
 800767c:	4770      	bx	lr
 800767e:	2001      	movs	r0, #1
 8007680:	2300      	movs	r3, #0
 8007682:	f884 003d 	strb.w	r0, [r4, #61]	; 0x3d
 8007686:	f884 303c 	strb.w	r3, [r4, #60]	; 0x3c
 800768a:	bcf0      	pop	{r4, r5, r6, r7}
 800768c:	4770      	bx	lr
 800768e:	6a10      	ldr	r0, [r2, #32]
 8007690:	688d      	ldr	r5, [r1, #8]
 8007692:	690e      	ldr	r6, [r1, #16]
 8007694:	f020 0010 	bic.w	r0, r0, #16
 8007698:	6210      	str	r0, [r2, #32]
 800769a:	6991      	ldr	r1, [r2, #24]
 800769c:	6a13      	ldr	r3, [r2, #32]
 800769e:	f421 4170 	bic.w	r1, r1, #61440	; 0xf000
 80076a2:	f023 03a0 	bic.w	r3, r3, #160	; 0xa0
 80076a6:	ea41 3106 	orr.w	r1, r1, r6, lsl #12
 80076aa:	ea43 1305 	orr.w	r3, r3, r5, lsl #4
 80076ae:	6191      	str	r1, [r2, #24]
 80076b0:	6213      	str	r3, [r2, #32]
 80076b2:	e7bc      	b.n	800762e <HAL_TIM_SlaveConfigSynchro+0x5a>
 80076b4:	6a15      	ldr	r5, [r2, #32]
 80076b6:	6a16      	ldr	r6, [r2, #32]
 80076b8:	6888      	ldr	r0, [r1, #8]
 80076ba:	690f      	ldr	r7, [r1, #16]
 80076bc:	f026 0601 	bic.w	r6, r6, #1
 80076c0:	6216      	str	r6, [r2, #32]
 80076c2:	6993      	ldr	r3, [r2, #24]
 80076c4:	f025 010a 	bic.w	r1, r5, #10
 80076c8:	f023 03f0 	bic.w	r3, r3, #240	; 0xf0
 80076cc:	4301      	orrs	r1, r0
 80076ce:	ea43 1307 	orr.w	r3, r3, r7, lsl #4
 80076d2:	6193      	str	r3, [r2, #24]
 80076d4:	6211      	str	r1, [r2, #32]
 80076d6:	e7aa      	b.n	800762e <HAL_TIM_SlaveConfigSynchro+0x5a>

080076d8 <HAL_TIM_PeriodElapsedCallback>:
 80076d8:	4770      	bx	lr
 80076da:	bf00      	nop

080076dc <HAL_TIM_OC_DelayElapsedCallback>:
 80076dc:	4770      	bx	lr
 80076de:	bf00      	nop

080076e0 <HAL_TIM_IC_CaptureCallback>:
 80076e0:	4770      	bx	lr
 80076e2:	bf00      	nop

080076e4 <HAL_TIM_PWM_PulseFinishedCallback>:
 80076e4:	4770      	bx	lr
 80076e6:	bf00      	nop

080076e8 <HAL_TIM_TriggerCallback>:
 80076e8:	4770      	bx	lr
 80076ea:	bf00      	nop

080076ec <HAL_TIM_IRQHandler>:
 80076ec:	6803      	ldr	r3, [r0, #0]
 80076ee:	691a      	ldr	r2, [r3, #16]
 80076f0:	0791      	lsls	r1, r2, #30
 80076f2:	b510      	push	{r4, lr}
 80076f4:	4604      	mov	r4, r0
 80076f6:	d503      	bpl.n	8007700 <HAL_TIM_IRQHandler+0x14>
 80076f8:	68da      	ldr	r2, [r3, #12]
 80076fa:	0792      	lsls	r2, r2, #30
 80076fc:	f100 808a 	bmi.w	8007814 <HAL_TIM_IRQHandler+0x128>
 8007700:	691a      	ldr	r2, [r3, #16]
 8007702:	0752      	lsls	r2, r2, #29
 8007704:	d502      	bpl.n	800770c <HAL_TIM_IRQHandler+0x20>
 8007706:	68da      	ldr	r2, [r3, #12]
 8007708:	0750      	lsls	r0, r2, #29
 800770a:	d470      	bmi.n	80077ee <HAL_TIM_IRQHandler+0x102>
 800770c:	691a      	ldr	r2, [r3, #16]
 800770e:	0711      	lsls	r1, r2, #28
 8007710:	d502      	bpl.n	8007718 <HAL_TIM_IRQHandler+0x2c>
 8007712:	68da      	ldr	r2, [r3, #12]
 8007714:	0712      	lsls	r2, r2, #28
 8007716:	d458      	bmi.n	80077ca <HAL_TIM_IRQHandler+0xde>
 8007718:	691a      	ldr	r2, [r3, #16]
 800771a:	06d1      	lsls	r1, r2, #27
 800771c:	d502      	bpl.n	8007724 <HAL_TIM_IRQHandler+0x38>
 800771e:	68da      	ldr	r2, [r3, #12]
 8007720:	06d2      	lsls	r2, r2, #27
 8007722:	d43e      	bmi.n	80077a2 <HAL_TIM_IRQHandler+0xb6>
 8007724:	691a      	ldr	r2, [r3, #16]
 8007726:	07d0      	lsls	r0, r2, #31
 8007728:	d503      	bpl.n	8007732 <HAL_TIM_IRQHandler+0x46>
 800772a:	68da      	ldr	r2, [r3, #12]
 800772c:	07d1      	lsls	r1, r2, #31
 800772e:	f100 808a 	bmi.w	8007846 <HAL_TIM_IRQHandler+0x15a>
 8007732:	691a      	ldr	r2, [r3, #16]
 8007734:	0612      	lsls	r2, r2, #24
 8007736:	d503      	bpl.n	8007740 <HAL_TIM_IRQHandler+0x54>
 8007738:	68da      	ldr	r2, [r3, #12]
 800773a:	0610      	lsls	r0, r2, #24
 800773c:	f100 808b 	bmi.w	8007856 <HAL_TIM_IRQHandler+0x16a>
 8007740:	691a      	ldr	r2, [r3, #16]
 8007742:	05d1      	lsls	r1, r2, #23
 8007744:	d503      	bpl.n	800774e <HAL_TIM_IRQHandler+0x62>
 8007746:	68da      	ldr	r2, [r3, #12]
 8007748:	0612      	lsls	r2, r2, #24
 800774a:	f100 808c 	bmi.w	8007866 <HAL_TIM_IRQHandler+0x17a>
 800774e:	691a      	ldr	r2, [r3, #16]
 8007750:	0650      	lsls	r0, r2, #25
 8007752:	d503      	bpl.n	800775c <HAL_TIM_IRQHandler+0x70>
 8007754:	68da      	ldr	r2, [r3, #12]
 8007756:	0651      	lsls	r1, r2, #25
 8007758:	f100 808d 	bmi.w	8007876 <HAL_TIM_IRQHandler+0x18a>
 800775c:	691a      	ldr	r2, [r3, #16]
 800775e:	0692      	lsls	r2, r2, #26
 8007760:	d503      	bpl.n	800776a <HAL_TIM_IRQHandler+0x7e>
 8007762:	68da      	ldr	r2, [r3, #12]
 8007764:	0690      	lsls	r0, r2, #26
 8007766:	f100 808e 	bmi.w	8007886 <HAL_TIM_IRQHandler+0x19a>
 800776a:	691a      	ldr	r2, [r3, #16]
 800776c:	02d1      	lsls	r1, r2, #11
 800776e:	d503      	bpl.n	8007778 <HAL_TIM_IRQHandler+0x8c>
 8007770:	68da      	ldr	r2, [r3, #12]
 8007772:	02d2      	lsls	r2, r2, #11
 8007774:	f100 808f 	bmi.w	8007896 <HAL_TIM_IRQHandler+0x1aa>
 8007778:	691a      	ldr	r2, [r3, #16]
 800777a:	0290      	lsls	r0, r2, #10
 800777c:	d503      	bpl.n	8007786 <HAL_TIM_IRQHandler+0x9a>
 800777e:	68da      	ldr	r2, [r3, #12]
 8007780:	0291      	lsls	r1, r2, #10
 8007782:	f100 8090 	bmi.w	80078a6 <HAL_TIM_IRQHandler+0x1ba>
 8007786:	691a      	ldr	r2, [r3, #16]
 8007788:	0252      	lsls	r2, r2, #9
 800778a:	d503      	bpl.n	8007794 <HAL_TIM_IRQHandler+0xa8>
 800778c:	68da      	ldr	r2, [r3, #12]
 800778e:	0250      	lsls	r0, r2, #9
 8007790:	f100 8091 	bmi.w	80078b6 <HAL_TIM_IRQHandler+0x1ca>
 8007794:	691a      	ldr	r2, [r3, #16]
 8007796:	0211      	lsls	r1, r2, #8
 8007798:	d502      	bpl.n	80077a0 <HAL_TIM_IRQHandler+0xb4>
 800779a:	68da      	ldr	r2, [r3, #12]
 800779c:	0212      	lsls	r2, r2, #8
 800779e:	d44a      	bmi.n	8007836 <HAL_TIM_IRQHandler+0x14a>
 80077a0:	bd10      	pop	{r4, pc}
 80077a2:	f06f 0210 	mvn.w	r2, #16
 80077a6:	611a      	str	r2, [r3, #16]
 80077a8:	69db      	ldr	r3, [r3, #28]
 80077aa:	2208      	movs	r2, #8
 80077ac:	f413 7f40 	tst.w	r3, #768	; 0x300
 80077b0:	7722      	strb	r2, [r4, #28]
 80077b2:	4620      	mov	r0, r4
 80077b4:	f040 8090 	bne.w	80078d8 <HAL_TIM_IRQHandler+0x1ec>
 80077b8:	f7ff ff90 	bl	80076dc <HAL_TIM_OC_DelayElapsedCallback>
 80077bc:	4620      	mov	r0, r4
 80077be:	f7ff ff91 	bl	80076e4 <HAL_TIM_PWM_PulseFinishedCallback>
 80077c2:	2200      	movs	r2, #0
 80077c4:	6823      	ldr	r3, [r4, #0]
 80077c6:	7722      	strb	r2, [r4, #28]
 80077c8:	e7ac      	b.n	8007724 <HAL_TIM_IRQHandler+0x38>
 80077ca:	f06f 0208 	mvn.w	r2, #8
 80077ce:	611a      	str	r2, [r3, #16]
 80077d0:	69db      	ldr	r3, [r3, #28]
 80077d2:	2204      	movs	r2, #4
 80077d4:	079b      	lsls	r3, r3, #30
 80077d6:	7722      	strb	r2, [r4, #28]
 80077d8:	4620      	mov	r0, r4
 80077da:	d17a      	bne.n	80078d2 <HAL_TIM_IRQHandler+0x1e6>
 80077dc:	f7ff ff7e 	bl	80076dc <HAL_TIM_OC_DelayElapsedCallback>
 80077e0:	4620      	mov	r0, r4
 80077e2:	f7ff ff7f 	bl	80076e4 <HAL_TIM_PWM_PulseFinishedCallback>
 80077e6:	2200      	movs	r2, #0
 80077e8:	6823      	ldr	r3, [r4, #0]
 80077ea:	7722      	strb	r2, [r4, #28]
 80077ec:	e794      	b.n	8007718 <HAL_TIM_IRQHandler+0x2c>
 80077ee:	f06f 0204 	mvn.w	r2, #4
 80077f2:	611a      	str	r2, [r3, #16]
 80077f4:	699b      	ldr	r3, [r3, #24]
 80077f6:	2202      	movs	r2, #2
 80077f8:	f413 7f40 	tst.w	r3, #768	; 0x300
 80077fc:	7722      	strb	r2, [r4, #28]
 80077fe:	4620      	mov	r0, r4
 8007800:	d164      	bne.n	80078cc <HAL_TIM_IRQHandler+0x1e0>
 8007802:	f7ff ff6b 	bl	80076dc <HAL_TIM_OC_DelayElapsedCallback>
 8007806:	4620      	mov	r0, r4
 8007808:	f7ff ff6c 	bl	80076e4 <HAL_TIM_PWM_PulseFinishedCallback>
 800780c:	2200      	movs	r2, #0
 800780e:	6823      	ldr	r3, [r4, #0]
 8007810:	7722      	strb	r2, [r4, #28]
 8007812:	e77b      	b.n	800770c <HAL_TIM_IRQHandler+0x20>
 8007814:	f06f 0202 	mvn.w	r2, #2
 8007818:	611a      	str	r2, [r3, #16]
 800781a:	699b      	ldr	r3, [r3, #24]
 800781c:	2201      	movs	r2, #1
 800781e:	0799      	lsls	r1, r3, #30
 8007820:	7702      	strb	r2, [r0, #28]
 8007822:	d150      	bne.n	80078c6 <HAL_TIM_IRQHandler+0x1da>
 8007824:	f7ff ff5a 	bl	80076dc <HAL_TIM_OC_DelayElapsedCallback>
 8007828:	4620      	mov	r0, r4
 800782a:	f7ff ff5b 	bl	80076e4 <HAL_TIM_PWM_PulseFinishedCallback>
 800782e:	2200      	movs	r2, #0
 8007830:	6823      	ldr	r3, [r4, #0]
 8007832:	7722      	strb	r2, [r4, #28]
 8007834:	e764      	b.n	8007700 <HAL_TIM_IRQHandler+0x14>
 8007836:	f46f 0200 	mvn.w	r2, #8388608	; 0x800000
 800783a:	4620      	mov	r0, r4
 800783c:	611a      	str	r2, [r3, #16]
 800783e:	e8bd 4010 	ldmia.w	sp!, {r4, lr}
 8007842:	f000 b933 	b.w	8007aac <HAL_TIMEx_TransitionErrorCallback>
 8007846:	f06f 0201 	mvn.w	r2, #1
 800784a:	611a      	str	r2, [r3, #16]
 800784c:	4620      	mov	r0, r4
 800784e:	f7ff ff43 	bl	80076d8 <HAL_TIM_PeriodElapsedCallback>
 8007852:	6823      	ldr	r3, [r4, #0]
 8007854:	e76d      	b.n	8007732 <HAL_TIM_IRQHandler+0x46>
 8007856:	f06f 0280 	mvn.w	r2, #128	; 0x80
 800785a:	611a      	str	r2, [r3, #16]
 800785c:	4620      	mov	r0, r4
 800785e:	f000 f91b 	bl	8007a98 <HAL_TIMEx_BreakCallback>
 8007862:	6823      	ldr	r3, [r4, #0]
 8007864:	e76c      	b.n	8007740 <HAL_TIM_IRQHandler+0x54>
 8007866:	f46f 7280 	mvn.w	r2, #256	; 0x100
 800786a:	611a      	str	r2, [r3, #16]
 800786c:	4620      	mov	r0, r4
 800786e:	f000 f915 	bl	8007a9c <HAL_TIMEx_Break2Callback>
 8007872:	6823      	ldr	r3, [r4, #0]
 8007874:	e76b      	b.n	800774e <HAL_TIM_IRQHandler+0x62>
 8007876:	f06f 0240 	mvn.w	r2, #64	; 0x40
 800787a:	611a      	str	r2, [r3, #16]
 800787c:	4620      	mov	r0, r4
 800787e:	f7ff ff33 	bl	80076e8 <HAL_TIM_TriggerCallback>
 8007882:	6823      	ldr	r3, [r4, #0]
 8007884:	e76a      	b.n	800775c <HAL_TIM_IRQHandler+0x70>
 8007886:	f06f 0220 	mvn.w	r2, #32
 800788a:	611a      	str	r2, [r3, #16]
 800788c:	4620      	mov	r0, r4
 800788e:	f000 f901 	bl	8007a94 <HAL_TIMEx_CommutCallback>
 8007892:	6823      	ldr	r3, [r4, #0]
 8007894:	e769      	b.n	800776a <HAL_TIM_IRQHandler+0x7e>
 8007896:	f46f 1280 	mvn.w	r2, #1048576	; 0x100000
 800789a:	611a      	str	r2, [r3, #16]
 800789c:	4620      	mov	r0, r4
 800789e:	f000 f8ff 	bl	8007aa0 <HAL_TIMEx_EncoderIndexCallback>
 80078a2:	6823      	ldr	r3, [r4, #0]
 80078a4:	e768      	b.n	8007778 <HAL_TIM_IRQHandler+0x8c>
 80078a6:	f46f 1200 	mvn.w	r2, #2097152	; 0x200000
 80078aa:	611a      	str	r2, [r3, #16]
 80078ac:	4620      	mov	r0, r4
 80078ae:	f000 f8f9 	bl	8007aa4 <HAL_TIMEx_DirectionChangeCallback>
 80078b2:	6823      	ldr	r3, [r4, #0]
 80078b4:	e767      	b.n	8007786 <HAL_TIM_IRQHandler+0x9a>
 80078b6:	f46f 0280 	mvn.w	r2, #4194304	; 0x400000
 80078ba:	611a      	str	r2, [r3, #16]
 80078bc:	4620      	mov	r0, r4
 80078be:	f000 f8f3 	bl	8007aa8 <HAL_TIMEx_IndexErrorCallback>
 80078c2:	6823      	ldr	r3, [r4, #0]
 80078c4:	e766      	b.n	8007794 <HAL_TIM_IRQHandler+0xa8>
 80078c6:	f7ff ff0b 	bl	80076e0 <HAL_TIM_IC_CaptureCallback>
 80078ca:	e7b0      	b.n	800782e <HAL_TIM_IRQHandler+0x142>
 80078cc:	f7ff ff08 	bl	80076e0 <HAL_TIM_IC_CaptureCallback>
 80078d0:	e79c      	b.n	800780c <HAL_TIM_IRQHandler+0x120>
 80078d2:	f7ff ff05 	bl	80076e0 <HAL_TIM_IC_CaptureCallback>
 80078d6:	e786      	b.n	80077e6 <HAL_TIM_IRQHandler+0xfa>
 80078d8:	f7ff ff02 	bl	80076e0 <HAL_TIM_IC_CaptureCallback>
 80078dc:	e771      	b.n	80077c2 <HAL_TIM_IRQHandler+0xd6>
 80078de:	bf00      	nop

080078e0 <HAL_TIMEx_MasterConfigSynchronization>:
 80078e0:	f890 303c 	ldrb.w	r3, [r0, #60]	; 0x3c
 80078e4:	2b01      	cmp	r3, #1
 80078e6:	d027      	beq.n	8007938 <HAL_TIMEx_MasterConfigSynchronization+0x58>
 80078e8:	b470      	push	{r4, r5, r6}
 80078ea:	6802      	ldr	r2, [r0, #0]
 80078ec:	4d14      	ldr	r5, [pc, #80]	; (8007940 <HAL_TIMEx_MasterConfigSynchronization+0x60>)
 80078ee:	2302      	movs	r3, #2
 80078f0:	f880 303d 	strb.w	r3, [r0, #61]	; 0x3d
 80078f4:	42aa      	cmp	r2, r5
 80078f6:	6853      	ldr	r3, [r2, #4]
 80078f8:	6894      	ldr	r4, [r2, #8]
 80078fa:	d018      	beq.n	800792e <HAL_TIMEx_MasterConfigSynchronization+0x4e>
 80078fc:	f505 6500 	add.w	r5, r5, #2048	; 0x800
 8007900:	42aa      	cmp	r2, r5
 8007902:	d014      	beq.n	800792e <HAL_TIMEx_MasterConfigSynchronization+0x4e>
 8007904:	680e      	ldr	r6, [r1, #0]
 8007906:	688d      	ldr	r5, [r1, #8]
 8007908:	f023 7300 	bic.w	r3, r3, #33554432	; 0x2000000
 800790c:	f024 0180 	bic.w	r1, r4, #128	; 0x80
 8007910:	f023 0370 	bic.w	r3, r3, #112	; 0x70
 8007914:	2400      	movs	r4, #0
 8007916:	4333      	orrs	r3, r6
 8007918:	4329      	orrs	r1, r5
 800791a:	2501      	movs	r5, #1
 800791c:	6053      	str	r3, [r2, #4]
 800791e:	6091      	str	r1, [r2, #8]
 8007920:	f880 503d 	strb.w	r5, [r0, #61]	; 0x3d
 8007924:	f880 403c 	strb.w	r4, [r0, #60]	; 0x3c
 8007928:	4620      	mov	r0, r4
 800792a:	bc70      	pop	{r4, r5, r6}
 800792c:	4770      	bx	lr
 800792e:	684d      	ldr	r5, [r1, #4]
 8007930:	f423 0370 	bic.w	r3, r3, #15728640	; 0xf00000
 8007934:	432b      	orrs	r3, r5
 8007936:	e7e5      	b.n	8007904 <HAL_TIMEx_MasterConfigSynchronization+0x24>
 8007938:	2302      	movs	r3, #2
 800793a:	4618      	mov	r0, r3
 800793c:	4770      	bx	lr
 800793e:	bf00      	nop
 8007940:	40012c00 	.word	0x40012c00

08007944 <HAL_TIMEx_ConfigBreakDeadTime>:
 8007944:	f890 303c 	ldrb.w	r3, [r0, #60]	; 0x3c
 8007948:	2b01      	cmp	r3, #1
 800794a:	d044      	beq.n	80079d6 <HAL_TIMEx_ConfigBreakDeadTime+0x92>
 800794c:	b430      	push	{r4, r5}
 800794e:	e9d1 5302 	ldrd	r5, r3, [r1, #8]
 8007952:	4602      	mov	r2, r0
 8007954:	f423 7340 	bic.w	r3, r3, #768	; 0x300
 8007958:	e9d1 0400 	ldrd	r0, r4, [r1]
 800795c:	432b      	orrs	r3, r5
 800795e:	f423 6380 	bic.w	r3, r3, #1024	; 0x400
 8007962:	4323      	orrs	r3, r4
 8007964:	f423 6300 	bic.w	r3, r3, #2048	; 0x800
 8007968:	e9d1 5404 	ldrd	r5, r4, [r1, #16]
 800796c:	4303      	orrs	r3, r0
 800796e:	f423 5380 	bic.w	r3, r3, #4096	; 0x1000
 8007972:	432b      	orrs	r3, r5
 8007974:	f423 5300 	bic.w	r3, r3, #8192	; 0x2000
 8007978:	6b08      	ldr	r0, [r1, #48]	; 0x30
 800797a:	698d      	ldr	r5, [r1, #24]
 800797c:	4323      	orrs	r3, r4
 800797e:	f423 4380 	bic.w	r3, r3, #16384	; 0x4000
 8007982:	4303      	orrs	r3, r0
 8007984:	4c15      	ldr	r4, [pc, #84]	; (80079dc <HAL_TIMEx_ConfigBreakDeadTime+0x98>)
 8007986:	6810      	ldr	r0, [r2, #0]
 8007988:	f423 2370 	bic.w	r3, r3, #983040	; 0xf0000
 800798c:	42a0      	cmp	r0, r4
 800798e:	ea43 4305 	orr.w	r3, r3, r5, lsl #16
 8007992:	d00a      	beq.n	80079aa <HAL_TIMEx_ConfigBreakDeadTime+0x66>
 8007994:	f504 6400 	add.w	r4, r4, #2048	; 0x800
 8007998:	42a0      	cmp	r0, r4
 800799a:	d006      	beq.n	80079aa <HAL_TIMEx_ConfigBreakDeadTime+0x66>
 800799c:	2100      	movs	r1, #0
 800799e:	6443      	str	r3, [r0, #68]	; 0x44
 80079a0:	bc30      	pop	{r4, r5}
 80079a2:	4608      	mov	r0, r1
 80079a4:	f882 103c 	strb.w	r1, [r2, #60]	; 0x3c
 80079a8:	4770      	bx	lr
 80079aa:	69cd      	ldr	r5, [r1, #28]
 80079ac:	6a8c      	ldr	r4, [r1, #40]	; 0x28
 80079ae:	f023 5380 	bic.w	r3, r3, #268435456	; 0x10000000
 80079b2:	432b      	orrs	r3, r5
 80079b4:	f423 0370 	bic.w	r3, r3, #15728640	; 0xf00000
 80079b8:	ea43 5304 	orr.w	r3, r3, r4, lsl #20
 80079bc:	e9d1 5408 	ldrd	r5, r4, [r1, #32]
 80079c0:	f023 7380 	bic.w	r3, r3, #16777216	; 0x1000000
 80079c4:	432b      	orrs	r3, r5
 80079c6:	f023 7300 	bic.w	r3, r3, #33554432	; 0x2000000
 80079ca:	4323      	orrs	r3, r4
 80079cc:	6ac9      	ldr	r1, [r1, #44]	; 0x2c
 80079ce:	f023 5300 	bic.w	r3, r3, #536870912	; 0x20000000
 80079d2:	430b      	orrs	r3, r1
 80079d4:	e7e2      	b.n	800799c <HAL_TIMEx_ConfigBreakDeadTime+0x58>
 80079d6:	2002      	movs	r0, #2
 80079d8:	4770      	bx	lr
 80079da:	bf00      	nop
 80079dc:	40012c00 	.word	0x40012c00

080079e0 <HAL_TIMEx_ConfigBreakInput>:
 80079e0:	f890 303c 	ldrb.w	r3, [r0, #60]	; 0x3c
 80079e4:	2b01      	cmp	r3, #1
 80079e6:	d04a      	beq.n	8007a7e <HAL_TIMEx_ConfigBreakInput+0x9e>
 80079e8:	6813      	ldr	r3, [r2, #0]
 80079ea:	3b01      	subs	r3, #1
 80079ec:	b4f0      	push	{r4, r5, r6, r7}
 80079ee:	2b0f      	cmp	r3, #15
 80079f0:	f04f 0401 	mov.w	r4, #1
 80079f4:	f880 403c 	strb.w	r4, [r0, #60]	; 0x3c
 80079f8:	d91d      	bls.n	8007a36 <HAL_TIMEx_ConfigBreakInput+0x56>
 80079fa:	2500      	movs	r5, #0
 80079fc:	2901      	cmp	r1, #1
 80079fe:	462f      	mov	r7, r5
 8007a00:	462c      	mov	r4, r5
 8007a02:	462e      	mov	r6, r5
 8007a04:	d025      	beq.n	8007a52 <HAL_TIMEx_ConfigBreakInput+0x72>
 8007a06:	2902      	cmp	r1, #2
 8007a08:	d10f      	bne.n	8007a2a <HAL_TIMEx_ConfigBreakInput+0x4a>
 8007a0a:	6801      	ldr	r1, [r0, #0]
 8007a0c:	6853      	ldr	r3, [r2, #4]
 8007a0e:	f8d1 c064 	ldr.w	ip, [r1, #100]	; 0x64
 8007a12:	6892      	ldr	r2, [r2, #8]
 8007a14:	40bb      	lsls	r3, r7
 8007a16:	ea83 030c 	eor.w	r3, r3, ip
 8007a1a:	4033      	ands	r3, r6
 8007a1c:	ea83 030c 	eor.w	r3, r3, ip
 8007a20:	40aa      	lsls	r2, r5
 8007a22:	405a      	eors	r2, r3
 8007a24:	4022      	ands	r2, r4
 8007a26:	4053      	eors	r3, r2
 8007a28:	664b      	str	r3, [r1, #100]	; 0x64
 8007a2a:	2300      	movs	r3, #0
 8007a2c:	f880 303c 	strb.w	r3, [r0, #60]	; 0x3c
 8007a30:	bcf0      	pop	{r4, r5, r6, r7}
 8007a32:	4618      	mov	r0, r3
 8007a34:	4770      	bx	lr
 8007a36:	4e13      	ldr	r6, [pc, #76]	; (8007a84 <HAL_TIMEx_ConfigBreakInput+0xa4>)
 8007a38:	4c13      	ldr	r4, [pc, #76]	; (8007a88 <HAL_TIMEx_ConfigBreakInput+0xa8>)
 8007a3a:	4f14      	ldr	r7, [pc, #80]	; (8007a8c <HAL_TIMEx_ConfigBreakInput+0xac>)
 8007a3c:	4d14      	ldr	r5, [pc, #80]	; (8007a90 <HAL_TIMEx_ConfigBreakInput+0xb0>)
 8007a3e:	f856 6023 	ldr.w	r6, [r6, r3, lsl #2]
 8007a42:	f854 4023 	ldr.w	r4, [r4, r3, lsl #2]
 8007a46:	f857 7023 	ldr.w	r7, [r7, r3, lsl #2]
 8007a4a:	f855 5023 	ldr.w	r5, [r5, r3, lsl #2]
 8007a4e:	2901      	cmp	r1, #1
 8007a50:	d1d9      	bne.n	8007a06 <HAL_TIMEx_ConfigBreakInput+0x26>
 8007a52:	6801      	ldr	r1, [r0, #0]
 8007a54:	6853      	ldr	r3, [r2, #4]
 8007a56:	f8d1 c060 	ldr.w	ip, [r1, #96]	; 0x60
 8007a5a:	6892      	ldr	r2, [r2, #8]
 8007a5c:	40bb      	lsls	r3, r7
 8007a5e:	ea83 030c 	eor.w	r3, r3, ip
 8007a62:	4033      	ands	r3, r6
 8007a64:	ea83 030c 	eor.w	r3, r3, ip
 8007a68:	40aa      	lsls	r2, r5
 8007a6a:	405a      	eors	r2, r3
 8007a6c:	4022      	ands	r2, r4
 8007a6e:	4053      	eors	r3, r2
 8007a70:	660b      	str	r3, [r1, #96]	; 0x60
 8007a72:	2300      	movs	r3, #0
 8007a74:	f880 303c 	strb.w	r3, [r0, #60]	; 0x3c
 8007a78:	bcf0      	pop	{r4, r5, r6, r7}
 8007a7a:	4618      	mov	r0, r3
 8007a7c:	4770      	bx	lr
 8007a7e:	2002      	movs	r0, #2
 8007a80:	4770      	bx	lr
 8007a82:	bf00      	nop
 8007a84:	0800ae84 	.word	0x0800ae84
 8007a88:	0800aec4 	.word	0x0800aec4
 8007a8c:	0800af04 	.word	0x0800af04
 8007a90:	0800af44 	.word	0x0800af44

08007a94 <HAL_TIMEx_CommutCallback>:
 8007a94:	4770      	bx	lr
 8007a96:	bf00      	nop

08007a98 <HAL_TIMEx_BreakCallback>:
 8007a98:	4770      	bx	lr
 8007a9a:	bf00      	nop

08007a9c <HAL_TIMEx_Break2Callback>:
 8007a9c:	4770      	bx	lr
 8007a9e:	bf00      	nop

08007aa0 <HAL_TIMEx_EncoderIndexCallback>:
 8007aa0:	4770      	bx	lr
 8007aa2:	bf00      	nop

08007aa4 <HAL_TIMEx_DirectionChangeCallback>:
 8007aa4:	4770      	bx	lr
 8007aa6:	bf00      	nop

08007aa8 <HAL_TIMEx_IndexErrorCallback>:
 8007aa8:	4770      	bx	lr
 8007aaa:	bf00      	nop

08007aac <HAL_TIMEx_TransitionErrorCallback>:
 8007aac:	4770      	bx	lr
 8007aae:	bf00      	nop

08007ab0 <HAL_UART_DeInit>:
 8007ab0:	b1c8      	cbz	r0, 8007ae6 <HAL_UART_DeInit+0x36>
 8007ab2:	b538      	push	{r3, r4, r5, lr}
 8007ab4:	2224      	movs	r2, #36	; 0x24
 8007ab6:	6803      	ldr	r3, [r0, #0]
 8007ab8:	f8c0 2080 	str.w	r2, [r0, #128]	; 0x80
 8007abc:	681a      	ldr	r2, [r3, #0]
 8007abe:	2500      	movs	r5, #0
 8007ac0:	4604      	mov	r4, r0
 8007ac2:	f022 0201 	bic.w	r2, r2, #1
 8007ac6:	601a      	str	r2, [r3, #0]
 8007ac8:	601d      	str	r5, [r3, #0]
 8007aca:	605d      	str	r5, [r3, #4]
 8007acc:	609d      	str	r5, [r3, #8]
 8007ace:	f7fb fbdd 	bl	800328c <HAL_UART_MspDeInit>
 8007ad2:	f8c4 5088 	str.w	r5, [r4, #136]	; 0x88
 8007ad6:	f884 507c 	strb.w	r5, [r4, #124]	; 0x7c
 8007ada:	f8c4 5080 	str.w	r5, [r4, #128]	; 0x80
 8007ade:	4628      	mov	r0, r5
 8007ae0:	f8c4 5084 	str.w	r5, [r4, #132]	; 0x84
 8007ae4:	bd38      	pop	{r3, r4, r5, pc}
 8007ae6:	2001      	movs	r0, #1
 8007ae8:	4770      	bx	lr
 8007aea:	bf00      	nop

08007aec <HAL_UART_Receive>:
 8007aec:	e92d 43f0 	stmdb	sp!, {r4, r5, r6, r7, r8, r9, lr}
 8007af0:	460e      	mov	r6, r1
 8007af2:	f8d0 1084 	ldr.w	r1, [r0, #132]	; 0x84
 8007af6:	2920      	cmp	r1, #32
 8007af8:	b083      	sub	sp, #12
 8007afa:	d13f      	bne.n	8007b7c <HAL_UART_Receive+0x90>
 8007afc:	2e00      	cmp	r6, #0
 8007afe:	d041      	beq.n	8007b84 <HAL_UART_Receive+0x98>
 8007b00:	9201      	str	r2, [sp, #4]
 8007b02:	2a00      	cmp	r2, #0
 8007b04:	d03e      	beq.n	8007b84 <HAL_UART_Receive+0x98>
 8007b06:	461d      	mov	r5, r3
 8007b08:	f890 307c 	ldrb.w	r3, [r0, #124]	; 0x7c
 8007b0c:	2b01      	cmp	r3, #1
 8007b0e:	4604      	mov	r4, r0
 8007b10:	d034      	beq.n	8007b7c <HAL_UART_Receive+0x90>
 8007b12:	2322      	movs	r3, #34	; 0x22
 8007b14:	2101      	movs	r1, #1
 8007b16:	2700      	movs	r7, #0
 8007b18:	f8c0 7088 	str.w	r7, [r0, #136]	; 0x88
 8007b1c:	f880 107c 	strb.w	r1, [r0, #124]	; 0x7c
 8007b20:	f8c0 3084 	str.w	r3, [r0, #132]	; 0x84
 8007b24:	f7fc f9a2 	bl	8003e6c <HAL_GetTick>
 8007b28:	68a3      	ldr	r3, [r4, #8]
 8007b2a:	9a01      	ldr	r2, [sp, #4]
 8007b2c:	f8a4 205c 	strh.w	r2, [r4, #92]	; 0x5c
 8007b30:	f5b3 5f80 	cmp.w	r3, #4096	; 0x1000
 8007b34:	4681      	mov	r9, r0
 8007b36:	f8a4 205e 	strh.w	r2, [r4, #94]	; 0x5e
 8007b3a:	d060      	beq.n	8007bfe <HAL_UART_Receive+0x112>
 8007b3c:	b333      	cbz	r3, 8007b8c <HAL_UART_Receive+0xa0>
 8007b3e:	f1b3 5f80 	cmp.w	r3, #268435456	; 0x10000000
 8007b42:	d06f      	beq.n	8007c24 <HAL_UART_Receive+0x138>
 8007b44:	f8a4 7060 	strh.w	r7, [r4, #96]	; 0x60
 8007b48:	f04f 0800 	mov.w	r8, #0
 8007b4c:	f8b4 305e 	ldrh.w	r3, [r4, #94]	; 0x5e
 8007b50:	b29b      	uxth	r3, r3
 8007b52:	2b00      	cmp	r3, #0
 8007b54:	d04c      	beq.n	8007bf0 <HAL_UART_Receive+0x104>
 8007b56:	6820      	ldr	r0, [r4, #0]
 8007b58:	1c69      	adds	r1, r5, #1
 8007b5a:	d11e      	bne.n	8007b9a <HAL_UART_Receive+0xae>
 8007b5c:	69c2      	ldr	r2, [r0, #28]
 8007b5e:	0692      	lsls	r2, r2, #26
 8007b60:	d5fc      	bpl.n	8007b5c <HAL_UART_Receive+0x70>
 8007b62:	6a43      	ldr	r3, [r0, #36]	; 0x24
 8007b64:	403b      	ands	r3, r7
 8007b66:	2e00      	cmp	r6, #0
 8007b68:	d035      	beq.n	8007bd6 <HAL_UART_Receive+0xea>
 8007b6a:	f806 3b01 	strb.w	r3, [r6], #1
 8007b6e:	f8b4 305e 	ldrh.w	r3, [r4, #94]	; 0x5e
 8007b72:	3b01      	subs	r3, #1
 8007b74:	b29b      	uxth	r3, r3
 8007b76:	f8a4 305e 	strh.w	r3, [r4, #94]	; 0x5e
 8007b7a:	e7e7      	b.n	8007b4c <HAL_UART_Receive+0x60>
 8007b7c:	2002      	movs	r0, #2
 8007b7e:	b003      	add	sp, #12
 8007b80:	e8bd 83f0 	ldmia.w	sp!, {r4, r5, r6, r7, r8, r9, pc}
 8007b84:	2001      	movs	r0, #1
 8007b86:	b003      	add	sp, #12
 8007b88:	e8bd 83f0 	ldmia.w	sp!, {r4, r5, r6, r7, r8, r9, pc}
 8007b8c:	6923      	ldr	r3, [r4, #16]
 8007b8e:	2b00      	cmp	r3, #0
 8007b90:	d13e      	bne.n	8007c10 <HAL_UART_Receive+0x124>
 8007b92:	27ff      	movs	r7, #255	; 0xff
 8007b94:	f8a4 7060 	strh.w	r7, [r4, #96]	; 0x60
 8007b98:	e7d6      	b.n	8007b48 <HAL_UART_Receive+0x5c>
 8007b9a:	69c3      	ldr	r3, [r0, #28]
 8007b9c:	069b      	lsls	r3, r3, #26
 8007b9e:	d4e0      	bmi.n	8007b62 <HAL_UART_Receive+0x76>
 8007ba0:	f7fc f964 	bl	8003e6c <HAL_GetTick>
 8007ba4:	eba0 0009 	sub.w	r0, r0, r9
 8007ba8:	4285      	cmp	r5, r0
 8007baa:	d301      	bcc.n	8007bb0 <HAL_UART_Receive+0xc4>
 8007bac:	2d00      	cmp	r5, #0
 8007bae:	d1d2      	bne.n	8007b56 <HAL_UART_Receive+0x6a>
 8007bb0:	6823      	ldr	r3, [r4, #0]
 8007bb2:	681a      	ldr	r2, [r3, #0]
 8007bb4:	f422 72d0 	bic.w	r2, r2, #416	; 0x1a0
 8007bb8:	601a      	str	r2, [r3, #0]
 8007bba:	689a      	ldr	r2, [r3, #8]
 8007bbc:	2120      	movs	r1, #32
 8007bbe:	f022 0201 	bic.w	r2, r2, #1
 8007bc2:	2500      	movs	r5, #0
 8007bc4:	609a      	str	r2, [r3, #8]
 8007bc6:	2003      	movs	r0, #3
 8007bc8:	f8c4 1080 	str.w	r1, [r4, #128]	; 0x80
 8007bcc:	f884 507c 	strb.w	r5, [r4, #124]	; 0x7c
 8007bd0:	f8c4 1084 	str.w	r1, [r4, #132]	; 0x84
 8007bd4:	e7d3      	b.n	8007b7e <HAL_UART_Receive+0x92>
 8007bd6:	f828 3b02 	strh.w	r3, [r8], #2
 8007bda:	f8b4 305e 	ldrh.w	r3, [r4, #94]	; 0x5e
 8007bde:	3b01      	subs	r3, #1
 8007be0:	b29b      	uxth	r3, r3
 8007be2:	f8a4 305e 	strh.w	r3, [r4, #94]	; 0x5e
 8007be6:	f8b4 305e 	ldrh.w	r3, [r4, #94]	; 0x5e
 8007bea:	b29b      	uxth	r3, r3
 8007bec:	2b00      	cmp	r3, #0
 8007bee:	d1b3      	bne.n	8007b58 <HAL_UART_Receive+0x6c>
 8007bf0:	2320      	movs	r3, #32
 8007bf2:	2000      	movs	r0, #0
 8007bf4:	f8c4 3084 	str.w	r3, [r4, #132]	; 0x84
 8007bf8:	f884 007c 	strb.w	r0, [r4, #124]	; 0x7c
 8007bfc:	e7bf      	b.n	8007b7e <HAL_UART_Receive+0x92>
 8007bfe:	6923      	ldr	r3, [r4, #16]
 8007c00:	b953      	cbnz	r3, 8007c18 <HAL_UART_Receive+0x12c>
 8007c02:	f240 17ff 	movw	r7, #511	; 0x1ff
 8007c06:	46b0      	mov	r8, r6
 8007c08:	f8a4 7060 	strh.w	r7, [r4, #96]	; 0x60
 8007c0c:	461e      	mov	r6, r3
 8007c0e:	e79d      	b.n	8007b4c <HAL_UART_Receive+0x60>
 8007c10:	277f      	movs	r7, #127	; 0x7f
 8007c12:	f8a4 7060 	strh.w	r7, [r4, #96]	; 0x60
 8007c16:	e797      	b.n	8007b48 <HAL_UART_Receive+0x5c>
 8007c18:	23ff      	movs	r3, #255	; 0xff
 8007c1a:	46b8      	mov	r8, r7
 8007c1c:	f8a4 3060 	strh.w	r3, [r4, #96]	; 0x60
 8007c20:	461f      	mov	r7, r3
 8007c22:	e793      	b.n	8007b4c <HAL_UART_Receive+0x60>
 8007c24:	6923      	ldr	r3, [r4, #16]
 8007c26:	2b00      	cmp	r3, #0
 8007c28:	d0f2      	beq.n	8007c10 <HAL_UART_Receive+0x124>
 8007c2a:	273f      	movs	r7, #63	; 0x3f
 8007c2c:	f8a4 7060 	strh.w	r7, [r4, #96]	; 0x60
 8007c30:	e78a      	b.n	8007b48 <HAL_UART_Receive+0x5c>
 8007c32:	bf00      	nop

08007c34 <HAL_UART_Transmit_DMA>:
 8007c34:	e92d 41f0 	stmdb	sp!, {r4, r5, r6, r7, r8, lr}
 8007c38:	f8d0 6080 	ldr.w	r6, [r0, #128]	; 0x80
 8007c3c:	2e20      	cmp	r6, #32
 8007c3e:	d132      	bne.n	8007ca6 <HAL_UART_Transmit_DMA+0x72>
 8007c40:	b3a1      	cbz	r1, 8007cac <HAL_UART_Transmit_DMA+0x78>
 8007c42:	b39a      	cbz	r2, 8007cac <HAL_UART_Transmit_DMA+0x78>
 8007c44:	f890 407c 	ldrb.w	r4, [r0, #124]	; 0x7c
 8007c48:	2c01      	cmp	r4, #1
 8007c4a:	d02c      	beq.n	8007ca6 <HAL_UART_Transmit_DMA+0x72>
 8007c4c:	4605      	mov	r5, r0
 8007c4e:	6f40      	ldr	r0, [r0, #116]	; 0x74
 8007c50:	f8a5 2056 	strh.w	r2, [r5, #86]	; 0x56
 8007c54:	4613      	mov	r3, r2
 8007c56:	f04f 0800 	mov.w	r8, #0
 8007c5a:	2221      	movs	r2, #33	; 0x21
 8007c5c:	2401      	movs	r4, #1
 8007c5e:	f8c5 8088 	str.w	r8, [r5, #136]	; 0x88
 8007c62:	6529      	str	r1, [r5, #80]	; 0x50
 8007c64:	f8c5 2080 	str.w	r2, [r5, #128]	; 0x80
 8007c68:	f8a5 3054 	strh.w	r3, [r5, #84]	; 0x54
 8007c6c:	f885 407c 	strb.w	r4, [r5, #124]	; 0x7c
 8007c70:	682a      	ldr	r2, [r5, #0]
 8007c72:	b168      	cbz	r0, 8007c90 <HAL_UART_Transmit_DMA+0x5c>
 8007c74:	4f13      	ldr	r7, [pc, #76]	; (8007cc4 <HAL_UART_Transmit_DMA+0x90>)
 8007c76:	f8df c054 	ldr.w	ip, [pc, #84]	; 8007ccc <HAL_UART_Transmit_DMA+0x98>
 8007c7a:	62c7      	str	r7, [r0, #44]	; 0x2c
 8007c7c:	4f12      	ldr	r7, [pc, #72]	; (8007cc8 <HAL_UART_Transmit_DMA+0x94>)
 8007c7e:	f8c0 8038 	str.w	r8, [r0, #56]	; 0x38
 8007c82:	3228      	adds	r2, #40	; 0x28
 8007c84:	e9c0 c70c 	strd	ip, r7, [r0, #48]	; 0x30
 8007c88:	f7fd fa8e 	bl	80051a8 <HAL_DMA_Start_IT>
 8007c8c:	b988      	cbnz	r0, 8007cb2 <HAL_UART_Transmit_DMA+0x7e>
 8007c8e:	682a      	ldr	r2, [r5, #0]
 8007c90:	2340      	movs	r3, #64	; 0x40
 8007c92:	6213      	str	r3, [r2, #32]
 8007c94:	6893      	ldr	r3, [r2, #8]
 8007c96:	2000      	movs	r0, #0
 8007c98:	f043 0380 	orr.w	r3, r3, #128	; 0x80
 8007c9c:	f885 007c 	strb.w	r0, [r5, #124]	; 0x7c
 8007ca0:	6093      	str	r3, [r2, #8]
 8007ca2:	e8bd 81f0 	ldmia.w	sp!, {r4, r5, r6, r7, r8, pc}
 8007ca6:	2002      	movs	r0, #2
 8007ca8:	e8bd 81f0 	ldmia.w	sp!, {r4, r5, r6, r7, r8, pc}
 8007cac:	2001      	movs	r0, #1
 8007cae:	e8bd 81f0 	ldmia.w	sp!, {r4, r5, r6, r7, r8, pc}
 8007cb2:	2310      	movs	r3, #16
 8007cb4:	f8c5 3088 	str.w	r3, [r5, #136]	; 0x88
 8007cb8:	f885 807c 	strb.w	r8, [r5, #124]	; 0x7c
 8007cbc:	4620      	mov	r0, r4
 8007cbe:	f8c5 6080 	str.w	r6, [r5, #128]	; 0x80
 8007cc2:	e7f1      	b.n	8007ca8 <HAL_UART_Transmit_DMA+0x74>
 8007cc4:	08007d7d 	.word	0x08007d7d
 8007cc8:	08007dbd 	.word	0x08007dbd
 8007ccc:	08007dad 	.word	0x08007dad

08007cd0 <HAL_UART_DMAStop>:
 8007cd0:	b538      	push	{r3, r4, r5, lr}
 8007cd2:	6803      	ldr	r3, [r0, #0]
 8007cd4:	f8d0 1080 	ldr.w	r1, [r0, #128]	; 0x80
 8007cd8:	f8d0 5084 	ldr.w	r5, [r0, #132]	; 0x84
 8007cdc:	689a      	ldr	r2, [r3, #8]
 8007cde:	0612      	lsls	r2, r2, #24
 8007ce0:	4604      	mov	r4, r0
 8007ce2:	d501      	bpl.n	8007ce8 <HAL_UART_DMAStop+0x18>
 8007ce4:	2921      	cmp	r1, #33	; 0x21
 8007ce6:	d022      	beq.n	8007d2e <HAL_UART_DMAStop+0x5e>
 8007ce8:	6898      	ldr	r0, [r3, #8]
 8007cea:	f010 0040 	ands.w	r0, r0, #64	; 0x40
 8007cee:	d002      	beq.n	8007cf6 <HAL_UART_DMAStop+0x26>
 8007cf0:	2d22      	cmp	r5, #34	; 0x22
 8007cf2:	d001      	beq.n	8007cf8 <HAL_UART_DMAStop+0x28>
 8007cf4:	2000      	movs	r0, #0
 8007cf6:	bd38      	pop	{r3, r4, r5, pc}
 8007cf8:	689a      	ldr	r2, [r3, #8]
 8007cfa:	6fa0      	ldr	r0, [r4, #120]	; 0x78
 8007cfc:	f022 0240 	bic.w	r2, r2, #64	; 0x40
 8007d00:	609a      	str	r2, [r3, #8]
 8007d02:	b118      	cbz	r0, 8007d0c <HAL_UART_DMAStop+0x3c>
 8007d04:	f7fd faac 	bl	8005260 <HAL_DMA_Abort>
 8007d08:	bb38      	cbnz	r0, 8007d5a <HAL_UART_DMAStop+0x8a>
 8007d0a:	6823      	ldr	r3, [r4, #0]
 8007d0c:	681a      	ldr	r2, [r3, #0]
 8007d0e:	f422 7290 	bic.w	r2, r2, #288	; 0x120
 8007d12:	601a      	str	r2, [r3, #0]
 8007d14:	689a      	ldr	r2, [r3, #8]
 8007d16:	f022 5280 	bic.w	r2, r2, #268435456	; 0x10000000
 8007d1a:	2100      	movs	r1, #0
 8007d1c:	f022 0201 	bic.w	r2, r2, #1
 8007d20:	2520      	movs	r5, #32
 8007d22:	609a      	str	r2, [r3, #8]
 8007d24:	4608      	mov	r0, r1
 8007d26:	f8c4 5084 	str.w	r5, [r4, #132]	; 0x84
 8007d2a:	66e1      	str	r1, [r4, #108]	; 0x6c
 8007d2c:	bd38      	pop	{r3, r4, r5, pc}
 8007d2e:	689a      	ldr	r2, [r3, #8]
 8007d30:	6f40      	ldr	r0, [r0, #116]	; 0x74
 8007d32:	f022 0280 	bic.w	r2, r2, #128	; 0x80
 8007d36:	609a      	str	r2, [r3, #8]
 8007d38:	b118      	cbz	r0, 8007d42 <HAL_UART_DMAStop+0x72>
 8007d3a:	f7fd fa91 	bl	8005260 <HAL_DMA_Abort>
 8007d3e:	b9b0      	cbnz	r0, 8007d6e <HAL_UART_DMAStop+0x9e>
 8007d40:	6823      	ldr	r3, [r4, #0]
 8007d42:	681a      	ldr	r2, [r3, #0]
 8007d44:	f022 02c0 	bic.w	r2, r2, #192	; 0xc0
 8007d48:	601a      	str	r2, [r3, #0]
 8007d4a:	689a      	ldr	r2, [r3, #8]
 8007d4c:	2120      	movs	r1, #32
 8007d4e:	f422 0200 	bic.w	r2, r2, #8388608	; 0x800000
 8007d52:	609a      	str	r2, [r3, #8]
 8007d54:	f8c4 1080 	str.w	r1, [r4, #128]	; 0x80
 8007d58:	e7c6      	b.n	8007ce8 <HAL_UART_DMAStop+0x18>
 8007d5a:	6fa0      	ldr	r0, [r4, #120]	; 0x78
 8007d5c:	f7fd fb0a 	bl	8005374 <HAL_DMA_GetError>
 8007d60:	2820      	cmp	r0, #32
 8007d62:	d1d2      	bne.n	8007d0a <HAL_UART_DMAStop+0x3a>
 8007d64:	2310      	movs	r3, #16
 8007d66:	f8c4 3088 	str.w	r3, [r4, #136]	; 0x88
 8007d6a:	2003      	movs	r0, #3
 8007d6c:	bd38      	pop	{r3, r4, r5, pc}
 8007d6e:	6f60      	ldr	r0, [r4, #116]	; 0x74
 8007d70:	f7fd fb00 	bl	8005374 <HAL_DMA_GetError>
 8007d74:	2820      	cmp	r0, #32
 8007d76:	d1e3      	bne.n	8007d40 <HAL_UART_DMAStop+0x70>
 8007d78:	e7f4      	b.n	8007d64 <HAL_UART_DMAStop+0x94>
 8007d7a:	bf00      	nop

08007d7c <UART_DMATransmitCplt>:
 8007d7c:	b508      	push	{r3, lr}
 8007d7e:	6803      	ldr	r3, [r0, #0]
 8007d80:	6a80      	ldr	r0, [r0, #40]	; 0x28
 8007d82:	681b      	ldr	r3, [r3, #0]
 8007d84:	f013 0320 	ands.w	r3, r3, #32
 8007d88:	d10b      	bne.n	8007da2 <UART_DMATransmitCplt+0x26>
 8007d8a:	6802      	ldr	r2, [r0, #0]
 8007d8c:	f8a0 3056 	strh.w	r3, [r0, #86]	; 0x56
 8007d90:	6893      	ldr	r3, [r2, #8]
 8007d92:	f023 0380 	bic.w	r3, r3, #128	; 0x80
 8007d96:	6093      	str	r3, [r2, #8]
 8007d98:	6813      	ldr	r3, [r2, #0]
 8007d9a:	f043 0340 	orr.w	r3, r3, #64	; 0x40
 8007d9e:	6013      	str	r3, [r2, #0]
 8007da0:	bd08      	pop	{r3, pc}
 8007da2:	f7fb fac5 	bl	8003330 <HAL_UART_TxCpltCallback>
 8007da6:	bd08      	pop	{r3, pc}

08007da8 <HAL_UART_TxHalfCpltCallback>:
 8007da8:	4770      	bx	lr
 8007daa:	bf00      	nop

08007dac <UART_DMATxHalfCplt>:
 8007dac:	b508      	push	{r3, lr}
 8007dae:	6a80      	ldr	r0, [r0, #40]	; 0x28
 8007db0:	f7ff fffa 	bl	8007da8 <HAL_UART_TxHalfCpltCallback>
 8007db4:	bd08      	pop	{r3, pc}
 8007db6:	bf00      	nop

08007db8 <HAL_UART_ErrorCallback>:
 8007db8:	4770      	bx	lr
 8007dba:	bf00      	nop

08007dbc <UART_DMAError>:
 8007dbc:	6a80      	ldr	r0, [r0, #40]	; 0x28
 8007dbe:	6803      	ldr	r3, [r0, #0]
 8007dc0:	b510      	push	{r4, lr}
 8007dc2:	f8d0 4080 	ldr.w	r4, [r0, #128]	; 0x80
 8007dc6:	f8d0 1084 	ldr.w	r1, [r0, #132]	; 0x84
 8007dca:	689a      	ldr	r2, [r3, #8]
 8007dcc:	0612      	lsls	r2, r2, #24
 8007dce:	d501      	bpl.n	8007dd4 <UART_DMAError+0x18>
 8007dd0:	2c21      	cmp	r4, #33	; 0x21
 8007dd2:	d01f      	beq.n	8007e14 <UART_DMAError+0x58>
 8007dd4:	689a      	ldr	r2, [r3, #8]
 8007dd6:	0652      	lsls	r2, r2, #25
 8007dd8:	d501      	bpl.n	8007dde <UART_DMAError+0x22>
 8007dda:	2922      	cmp	r1, #34	; 0x22
 8007ddc:	d008      	beq.n	8007df0 <UART_DMAError+0x34>
 8007dde:	f8d0 3088 	ldr.w	r3, [r0, #136]	; 0x88
 8007de2:	f043 0310 	orr.w	r3, r3, #16
 8007de6:	f8c0 3088 	str.w	r3, [r0, #136]	; 0x88
 8007dea:	f7ff ffe5 	bl	8007db8 <HAL_UART_ErrorCallback>
 8007dee:	bd10      	pop	{r4, pc}
 8007df0:	2100      	movs	r1, #0
 8007df2:	f8a0 105e 	strh.w	r1, [r0, #94]	; 0x5e
 8007df6:	681a      	ldr	r2, [r3, #0]
 8007df8:	f422 7290 	bic.w	r2, r2, #288	; 0x120
 8007dfc:	601a      	str	r2, [r3, #0]
 8007dfe:	689a      	ldr	r2, [r3, #8]
 8007e00:	f022 5280 	bic.w	r2, r2, #268435456	; 0x10000000
 8007e04:	f022 0201 	bic.w	r2, r2, #1
 8007e08:	2420      	movs	r4, #32
 8007e0a:	609a      	str	r2, [r3, #8]
 8007e0c:	66c1      	str	r1, [r0, #108]	; 0x6c
 8007e0e:	f8c0 4084 	str.w	r4, [r0, #132]	; 0x84
 8007e12:	e7e4      	b.n	8007dde <UART_DMAError+0x22>
 8007e14:	2200      	movs	r2, #0
 8007e16:	f8a0 2056 	strh.w	r2, [r0, #86]	; 0x56
 8007e1a:	681a      	ldr	r2, [r3, #0]
 8007e1c:	f022 02c0 	bic.w	r2, r2, #192	; 0xc0
 8007e20:	601a      	str	r2, [r3, #0]
 8007e22:	689a      	ldr	r2, [r3, #8]
 8007e24:	2420      	movs	r4, #32
 8007e26:	f422 0200 	bic.w	r2, r2, #8388608	; 0x800000
 8007e2a:	609a      	str	r2, [r3, #8]
 8007e2c:	f8c0 4080 	str.w	r4, [r0, #128]	; 0x80
 8007e30:	e7d0      	b.n	8007dd4 <UART_DMAError+0x18>
 8007e32:	bf00      	nop

08007e34 <UART_AdvFeatureConfig>:
 8007e34:	6a83      	ldr	r3, [r0, #40]	; 0x28
 8007e36:	07da      	lsls	r2, r3, #31
 8007e38:	b410      	push	{r4}
 8007e3a:	d506      	bpl.n	8007e4a <UART_AdvFeatureConfig+0x16>
 8007e3c:	6801      	ldr	r1, [r0, #0]
 8007e3e:	6ac4      	ldr	r4, [r0, #44]	; 0x2c
 8007e40:	684a      	ldr	r2, [r1, #4]
 8007e42:	f422 3200 	bic.w	r2, r2, #131072	; 0x20000
 8007e46:	4322      	orrs	r2, r4
 8007e48:	604a      	str	r2, [r1, #4]
 8007e4a:	079c      	lsls	r4, r3, #30
 8007e4c:	d506      	bpl.n	8007e5c <UART_AdvFeatureConfig+0x28>
 8007e4e:	6801      	ldr	r1, [r0, #0]
 8007e50:	6b04      	ldr	r4, [r0, #48]	; 0x30
 8007e52:	684a      	ldr	r2, [r1, #4]
 8007e54:	f422 3280 	bic.w	r2, r2, #65536	; 0x10000
 8007e58:	4322      	orrs	r2, r4
 8007e5a:	604a      	str	r2, [r1, #4]
 8007e5c:	0759      	lsls	r1, r3, #29
 8007e5e:	d506      	bpl.n	8007e6e <UART_AdvFeatureConfig+0x3a>
 8007e60:	6801      	ldr	r1, [r0, #0]
 8007e62:	6b44      	ldr	r4, [r0, #52]	; 0x34
 8007e64:	684a      	ldr	r2, [r1, #4]
 8007e66:	f422 2280 	bic.w	r2, r2, #262144	; 0x40000
 8007e6a:	4322      	orrs	r2, r4
 8007e6c:	604a      	str	r2, [r1, #4]
 8007e6e:	071a      	lsls	r2, r3, #28
 8007e70:	d506      	bpl.n	8007e80 <UART_AdvFeatureConfig+0x4c>
 8007e72:	6801      	ldr	r1, [r0, #0]
 8007e74:	6b84      	ldr	r4, [r0, #56]	; 0x38
 8007e76:	684a      	ldr	r2, [r1, #4]
 8007e78:	f422 4200 	bic.w	r2, r2, #32768	; 0x8000
 8007e7c:	4322      	orrs	r2, r4
 8007e7e:	604a      	str	r2, [r1, #4]
 8007e80:	06dc      	lsls	r4, r3, #27
 8007e82:	d506      	bpl.n	8007e92 <UART_AdvFeatureConfig+0x5e>
 8007e84:	6801      	ldr	r1, [r0, #0]
 8007e86:	6bc4      	ldr	r4, [r0, #60]	; 0x3c
 8007e88:	688a      	ldr	r2, [r1, #8]
 8007e8a:	f422 5280 	bic.w	r2, r2, #4096	; 0x1000
 8007e8e:	4322      	orrs	r2, r4
 8007e90:	608a      	str	r2, [r1, #8]
 8007e92:	0699      	lsls	r1, r3, #26
 8007e94:	d506      	bpl.n	8007ea4 <UART_AdvFeatureConfig+0x70>
 8007e96:	6801      	ldr	r1, [r0, #0]
 8007e98:	6c04      	ldr	r4, [r0, #64]	; 0x40
 8007e9a:	688a      	ldr	r2, [r1, #8]
 8007e9c:	f422 5200 	bic.w	r2, r2, #8192	; 0x2000
 8007ea0:	4322      	orrs	r2, r4
 8007ea2:	608a      	str	r2, [r1, #8]
 8007ea4:	065a      	lsls	r2, r3, #25
 8007ea6:	d509      	bpl.n	8007ebc <UART_AdvFeatureConfig+0x88>
 8007ea8:	6801      	ldr	r1, [r0, #0]
 8007eaa:	6c44      	ldr	r4, [r0, #68]	; 0x44
 8007eac:	684a      	ldr	r2, [r1, #4]
 8007eae:	f422 1280 	bic.w	r2, r2, #1048576	; 0x100000
 8007eb2:	4322      	orrs	r2, r4
 8007eb4:	f5b4 1f80 	cmp.w	r4, #1048576	; 0x100000
 8007eb8:	604a      	str	r2, [r1, #4]
 8007eba:	d00b      	beq.n	8007ed4 <UART_AdvFeatureConfig+0xa0>
 8007ebc:	061b      	lsls	r3, r3, #24
 8007ebe:	d506      	bpl.n	8007ece <UART_AdvFeatureConfig+0x9a>
 8007ec0:	6802      	ldr	r2, [r0, #0]
 8007ec2:	6cc1      	ldr	r1, [r0, #76]	; 0x4c
 8007ec4:	6853      	ldr	r3, [r2, #4]
 8007ec6:	f423 2300 	bic.w	r3, r3, #524288	; 0x80000
 8007eca:	430b      	orrs	r3, r1
 8007ecc:	6053      	str	r3, [r2, #4]
 8007ece:	f85d 4b04 	ldr.w	r4, [sp], #4
 8007ed2:	4770      	bx	lr
 8007ed4:	684a      	ldr	r2, [r1, #4]
 8007ed6:	6c84      	ldr	r4, [r0, #72]	; 0x48
 8007ed8:	f422 02c0 	bic.w	r2, r2, #6291456	; 0x600000
 8007edc:	4322      	orrs	r2, r4
 8007ede:	604a      	str	r2, [r1, #4]
 8007ee0:	e7ec      	b.n	8007ebc <UART_AdvFeatureConfig+0x88>
 8007ee2:	bf00      	nop
 8007ee4:	0000      	movs	r0, r0
	...

08007ee8 <HAL_UART_Init>:
 8007ee8:	2800      	cmp	r0, #0
 8007eea:	f000 8267 	beq.w	80083bc <HAL_UART_Init+0x4d4>
 8007eee:	f8d0 3080 	ldr.w	r3, [r0, #128]	; 0x80
 8007ef2:	e92d 48f0 	stmdb	sp!, {r4, r5, r6, r7, fp, lr}
 8007ef6:	4604      	mov	r4, r0
 8007ef8:	2b00      	cmp	r3, #0
 8007efa:	d046      	beq.n	8007f8a <HAL_UART_Init+0xa2>
 8007efc:	6823      	ldr	r3, [r4, #0]
 8007efe:	48b8      	ldr	r0, [pc, #736]	; (80081e0 <HAL_UART_Init+0x2f8>)
 8007f00:	2224      	movs	r2, #36	; 0x24
 8007f02:	f8c4 2080 	str.w	r2, [r4, #128]	; 0x80
 8007f06:	e9d4 6504 	ldrd	r6, r5, [r4, #16]
 8007f0a:	6819      	ldr	r1, [r3, #0]
 8007f0c:	68a2      	ldr	r2, [r4, #8]
 8007f0e:	f021 0101 	bic.w	r1, r1, #1
 8007f12:	6019      	str	r1, [r3, #0]
 8007f14:	4332      	orrs	r2, r6
 8007f16:	69e1      	ldr	r1, [r4, #28]
 8007f18:	681e      	ldr	r6, [r3, #0]
 8007f1a:	432a      	orrs	r2, r5
 8007f1c:	6e65      	ldr	r5, [r4, #100]	; 0x64
 8007f1e:	430a      	orrs	r2, r1
 8007f20:	4030      	ands	r0, r6
 8007f22:	432a      	orrs	r2, r5
 8007f24:	4302      	orrs	r2, r0
 8007f26:	601a      	str	r2, [r3, #0]
 8007f28:	685a      	ldr	r2, [r3, #4]
 8007f2a:	68e5      	ldr	r5, [r4, #12]
 8007f2c:	48ad      	ldr	r0, [pc, #692]	; (80081e4 <HAL_UART_Init+0x2fc>)
 8007f2e:	69a6      	ldr	r6, [r4, #24]
 8007f30:	f422 5240 	bic.w	r2, r2, #12288	; 0x3000
 8007f34:	432a      	orrs	r2, r5
 8007f36:	4283      	cmp	r3, r0
 8007f38:	605a      	str	r2, [r3, #4]
 8007f3a:	6a65      	ldr	r5, [r4, #36]	; 0x24
 8007f3c:	d02a      	beq.n	8007f94 <HAL_UART_Init+0xac>
 8007f3e:	6898      	ldr	r0, [r3, #8]
 8007f40:	6a22      	ldr	r2, [r4, #32]
 8007f42:	4fa9      	ldr	r7, [pc, #676]	; (80081e8 <HAL_UART_Init+0x300>)
 8007f44:	f020 406e 	bic.w	r0, r0, #3992977408	; 0xee000000
 8007f48:	f420 6030 	bic.w	r0, r0, #2816	; 0xb00
 8007f4c:	4332      	orrs	r2, r6
 8007f4e:	4302      	orrs	r2, r0
 8007f50:	609a      	str	r2, [r3, #8]
 8007f52:	6ada      	ldr	r2, [r3, #44]	; 0x2c
 8007f54:	f022 020f 	bic.w	r2, r2, #15
 8007f58:	432a      	orrs	r2, r5
 8007f5a:	42bb      	cmp	r3, r7
 8007f5c:	62da      	str	r2, [r3, #44]	; 0x2c
 8007f5e:	d07d      	beq.n	800805c <HAL_UART_Init+0x174>
 8007f60:	4aa2      	ldr	r2, [pc, #648]	; (80081ec <HAL_UART_Init+0x304>)
 8007f62:	4293      	cmp	r3, r2
 8007f64:	f000 8093 	beq.w	800808e <HAL_UART_Init+0x1a6>
 8007f68:	4aa1      	ldr	r2, [pc, #644]	; (80081f0 <HAL_UART_Init+0x308>)
 8007f6a:	4293      	cmp	r3, r2
 8007f6c:	f000 814a 	beq.w	8008204 <HAL_UART_Init+0x31c>
 8007f70:	4aa0      	ldr	r2, [pc, #640]	; (80081f4 <HAL_UART_Init+0x30c>)
 8007f72:	4293      	cmp	r3, r2
 8007f74:	f000 8184 	beq.w	8008280 <HAL_UART_Init+0x398>
 8007f78:	2300      	movs	r3, #0
 8007f7a:	f04f 1201 	mov.w	r2, #65537	; 0x10001
 8007f7e:	e9c4 231a 	strd	r2, r3, [r4, #104]	; 0x68
 8007f82:	6723      	str	r3, [r4, #112]	; 0x70
 8007f84:	2001      	movs	r0, #1
 8007f86:	e8bd 88f0 	ldmia.w	sp!, {r4, r5, r6, r7, fp, pc}
 8007f8a:	f880 307c 	strb.w	r3, [r0, #124]	; 0x7c
 8007f8e:	f7fb f913 	bl	80031b8 <HAL_UART_MspInit>
 8007f92:	e7b3      	b.n	8007efc <HAL_UART_Init+0x14>
 8007f94:	6899      	ldr	r1, [r3, #8]
 8007f96:	4898      	ldr	r0, [pc, #608]	; (80081f8 <HAL_UART_Init+0x310>)
 8007f98:	f021 416e 	bic.w	r1, r1, #3992977408	; 0xee000000
 8007f9c:	f421 6130 	bic.w	r1, r1, #2816	; 0xb00
 8007fa0:	4331      	orrs	r1, r6
 8007fa2:	6099      	str	r1, [r3, #8]
 8007fa4:	6ada      	ldr	r2, [r3, #44]	; 0x2c
 8007fa6:	f022 020f 	bic.w	r2, r2, #15
 8007faa:	432a      	orrs	r2, r5
 8007fac:	62da      	str	r2, [r3, #44]	; 0x2c
 8007fae:	f8d0 3088 	ldr.w	r3, [r0, #136]	; 0x88
 8007fb2:	f403 6340 	and.w	r3, r3, #3072	; 0xc00
 8007fb6:	f5b3 6f80 	cmp.w	r3, #1024	; 0x400
 8007fba:	f000 8233 	beq.w	8008424 <HAL_UART_Init+0x53c>
 8007fbe:	f240 81ff 	bls.w	80083c0 <HAL_UART_Init+0x4d8>
 8007fc2:	f5b3 6f00 	cmp.w	r3, #2048	; 0x800
 8007fc6:	f000 8370 	beq.w	80086aa <HAL_UART_Init+0x7c2>
 8007fca:	f5b3 6f40 	cmp.w	r3, #3072	; 0xc00
 8007fce:	d1d3      	bne.n	8007f78 <HAL_UART_Init+0x90>
 8007fd0:	2d00      	cmp	r5, #0
 8007fd2:	f000 8394 	beq.w	80086fe <HAL_UART_Init+0x816>
 8007fd6:	2d01      	cmp	r5, #1
 8007fd8:	f000 83b5 	beq.w	8008746 <HAL_UART_Init+0x85e>
 8007fdc:	2d02      	cmp	r5, #2
 8007fde:	f000 83c4 	beq.w	800876a <HAL_UART_Init+0x882>
 8007fe2:	2d03      	cmp	r5, #3
 8007fe4:	f000 83e6 	beq.w	80087b4 <HAL_UART_Init+0x8cc>
 8007fe8:	2d04      	cmp	r5, #4
 8007fea:	f000 83fa 	beq.w	80087e2 <HAL_UART_Init+0x8fa>
 8007fee:	2d05      	cmp	r5, #5
 8007ff0:	f000 8412 	beq.w	8008818 <HAL_UART_Init+0x930>
 8007ff4:	2d06      	cmp	r5, #6
 8007ff6:	f000 843b 	beq.w	8008870 <HAL_UART_Init+0x988>
 8007ffa:	2d07      	cmp	r5, #7
 8007ffc:	f000 8484 	beq.w	8008908 <HAL_UART_Init+0xa20>
 8008000:	2d08      	cmp	r5, #8
 8008002:	f000 84a8 	beq.w	8008956 <HAL_UART_Init+0xa6e>
 8008006:	2d09      	cmp	r5, #9
 8008008:	f000 84ae 	beq.w	8008968 <HAL_UART_Init+0xa80>
 800800c:	2d0a      	cmp	r5, #10
 800800e:	f000 84ef 	beq.w	80089f0 <HAL_UART_Init+0xb08>
 8008012:	2d0b      	cmp	r5, #11
 8008014:	bf0c      	ite	eq
 8008016:	2080      	moveq	r0, #128	; 0x80
 8008018:	f44f 4000 	movne.w	r0, #32768	; 0x8000
 800801c:	2308      	movs	r3, #8
 800801e:	6862      	ldr	r2, [r4, #4]
 8008020:	eb02 0142 	add.w	r1, r2, r2, lsl #1
 8008024:	4281      	cmp	r1, r0
 8008026:	d8a7      	bhi.n	8007f78 <HAL_UART_Init+0x90>
 8008028:	ebb0 3f02 	cmp.w	r0, r2, lsl #12
 800802c:	d8a4      	bhi.n	8007f78 <HAL_UART_Init+0x90>
 800802e:	2b08      	cmp	r3, #8
 8008030:	d8a2      	bhi.n	8007f78 <HAL_UART_Init+0x90>
 8008032:	a101      	add	r1, pc, #4	; (adr r1, 8008038 <HAL_UART_Init+0x150>)
 8008034:	f851 f023 	ldr.w	pc, [r1, r3, lsl #2]
 8008038:	0800862d 	.word	0x0800862d
 800803c:	08007f79 	.word	0x08007f79
 8008040:	080085e1 	.word	0x080085e1
 8008044:	08007f79 	.word	0x08007f79
 8008048:	0800869f 	.word	0x0800869f
 800804c:	08007f79 	.word	0x08007f79
 8008050:	08007f79 	.word	0x08007f79
 8008054:	08007f79 	.word	0x08007f79
 8008058:	08008569 	.word	0x08008569
 800805c:	4b66      	ldr	r3, [pc, #408]	; (80081f8 <HAL_UART_Init+0x310>)
 800805e:	4a67      	ldr	r2, [pc, #412]	; (80081fc <HAL_UART_Init+0x314>)
 8008060:	f8d3 3088 	ldr.w	r3, [r3, #136]	; 0x88
 8008064:	f003 0303 	and.w	r3, r3, #3
 8008068:	5cd3      	ldrb	r3, [r2, r3]
 800806a:	f5b1 4f00 	cmp.w	r1, #32768	; 0x8000
 800806e:	f000 818c 	beq.w	800838a <HAL_UART_Init+0x4a2>
 8008072:	2b08      	cmp	r3, #8
 8008074:	f200 8316 	bhi.w	80086a4 <HAL_UART_Init+0x7bc>
 8008078:	e8df f013 	tbh	[pc, r3, lsl #1]
 800807c:	001100ab 	.word	0x001100ab
 8008080:	031400d3 	.word	0x031400d3
 8008084:	03140084 	.word	0x03140084
 8008088:	03140314 	.word	0x03140314
 800808c:	0114      	.short	0x0114
 800808e:	4b5a      	ldr	r3, [pc, #360]	; (80081f8 <HAL_UART_Init+0x310>)
 8008090:	4a5b      	ldr	r2, [pc, #364]	; (8008200 <HAL_UART_Init+0x318>)
 8008092:	f8d3 3088 	ldr.w	r3, [r3, #136]	; 0x88
 8008096:	f003 030c 	and.w	r3, r3, #12
 800809a:	5cd3      	ldrb	r3, [r2, r3]
 800809c:	e7e5      	b.n	800806a <HAL_UART_Init+0x182>
 800809e:	f7fe fca5 	bl	80069ec <HAL_RCC_GetPCLK2Freq>
 80080a2:	6a63      	ldr	r3, [r4, #36]	; 0x24
 80080a4:	2b00      	cmp	r3, #0
 80080a6:	d172      	bne.n	800818e <HAL_UART_Init+0x2a6>
 80080a8:	6861      	ldr	r1, [r4, #4]
 80080aa:	2200      	movs	r2, #0
 80080ac:	eb00 0351 	add.w	r3, r0, r1, lsr #1
 80080b0:	fbb3 f3f1 	udiv	r3, r3, r1
 80080b4:	b29b      	uxth	r3, r3
 80080b6:	f1a3 0010 	sub.w	r0, r3, #16
 80080ba:	f64f 71ef 	movw	r1, #65519	; 0xffef
 80080be:	4288      	cmp	r0, r1
 80080c0:	f63f af5a 	bhi.w	8007f78 <HAL_UART_Init+0x90>
 80080c4:	6825      	ldr	r5, [r4, #0]
 80080c6:	2100      	movs	r1, #0
 80080c8:	f04f 1001 	mov.w	r0, #65537	; 0x10001
 80080cc:	60eb      	str	r3, [r5, #12]
 80080ce:	e9c4 011a 	strd	r0, r1, [r4, #104]	; 0x68
 80080d2:	6721      	str	r1, [r4, #112]	; 0x70
 80080d4:	2a00      	cmp	r2, #0
 80080d6:	f47f af55 	bne.w	8007f84 <HAL_UART_Init+0x9c>
 80080da:	6aa3      	ldr	r3, [r4, #40]	; 0x28
 80080dc:	2b00      	cmp	r3, #0
 80080de:	f040 8150 	bne.w	8008382 <HAL_UART_Init+0x49a>
 80080e2:	6823      	ldr	r3, [r4, #0]
 80080e4:	685a      	ldr	r2, [r3, #4]
 80080e6:	f422 4290 	bic.w	r2, r2, #18432	; 0x4800
 80080ea:	605a      	str	r2, [r3, #4]
 80080ec:	689a      	ldr	r2, [r3, #8]
 80080ee:	f022 022a 	bic.w	r2, r2, #42	; 0x2a
 80080f2:	609a      	str	r2, [r3, #8]
 80080f4:	681a      	ldr	r2, [r3, #0]
 80080f6:	2100      	movs	r1, #0
 80080f8:	f042 0201 	orr.w	r2, r2, #1
 80080fc:	601a      	str	r2, [r3, #0]
 80080fe:	f8c4 1088 	str.w	r1, [r4, #136]	; 0x88
 8008102:	f7fb feb3 	bl	8003e6c <HAL_GetTick>
 8008106:	6823      	ldr	r3, [r4, #0]
 8008108:	681a      	ldr	r2, [r3, #0]
 800810a:	0711      	lsls	r1, r2, #28
 800810c:	4606      	mov	r6, r0
 800810e:	d40c      	bmi.n	800812a <HAL_UART_Init+0x242>
 8008110:	681a      	ldr	r2, [r3, #0]
 8008112:	0752      	lsls	r2, r2, #29
 8008114:	d426      	bmi.n	8008164 <HAL_UART_Init+0x27c>
 8008116:	2320      	movs	r3, #32
 8008118:	2000      	movs	r0, #0
 800811a:	f8c4 3080 	str.w	r3, [r4, #128]	; 0x80
 800811e:	f884 007c 	strb.w	r0, [r4, #124]	; 0x7c
 8008122:	f8c4 3084 	str.w	r3, [r4, #132]	; 0x84
 8008126:	e8bd 88f0 	ldmia.w	sp!, {r4, r5, r6, r7, fp, pc}
 800812a:	69dd      	ldr	r5, [r3, #28]
 800812c:	f415 1500 	ands.w	r5, r5, #2097152	; 0x200000
 8008130:	d1ee      	bne.n	8008110 <HAL_UART_Init+0x228>
 8008132:	f7fb fe9b 	bl	8003e6c <HAL_GetTick>
 8008136:	1b80      	subs	r0, r0, r6
 8008138:	f1b0 7f00 	cmp.w	r0, #33554432	; 0x2000000
 800813c:	6823      	ldr	r3, [r4, #0]
 800813e:	d3f4      	bcc.n	800812a <HAL_UART_Init+0x242>
 8008140:	681a      	ldr	r2, [r3, #0]
 8008142:	f422 72d0 	bic.w	r2, r2, #416	; 0x1a0
 8008146:	601a      	str	r2, [r3, #0]
 8008148:	689a      	ldr	r2, [r3, #8]
 800814a:	2120      	movs	r1, #32
 800814c:	f022 0201 	bic.w	r2, r2, #1
 8008150:	609a      	str	r2, [r3, #8]
 8008152:	2003      	movs	r0, #3
 8008154:	f8c4 1080 	str.w	r1, [r4, #128]	; 0x80
 8008158:	f884 507c 	strb.w	r5, [r4, #124]	; 0x7c
 800815c:	f8c4 1084 	str.w	r1, [r4, #132]	; 0x84
 8008160:	e8bd 88f0 	ldmia.w	sp!, {r4, r5, r6, r7, fp, pc}
 8008164:	69dd      	ldr	r5, [r3, #28]
 8008166:	f415 0580 	ands.w	r5, r5, #4194304	; 0x400000
 800816a:	d1d4      	bne.n	8008116 <HAL_UART_Init+0x22e>
 800816c:	f7fb fe7e 	bl	8003e6c <HAL_GetTick>
 8008170:	1b80      	subs	r0, r0, r6
 8008172:	f1b0 7f00 	cmp.w	r0, #33554432	; 0x2000000
 8008176:	6823      	ldr	r3, [r4, #0]
 8008178:	d3f4      	bcc.n	8008164 <HAL_UART_Init+0x27c>
 800817a:	e7e1      	b.n	8008140 <HAL_UART_Init+0x258>
 800817c:	f5b1 4f00 	cmp.w	r1, #32768	; 0x8000
 8008180:	f000 818c 	beq.w	800849c <HAL_UART_Init+0x5b4>
 8008184:	f7fe fbe2 	bl	800694c <HAL_RCC_GetSysClockFreq>
 8008188:	6a63      	ldr	r3, [r4, #36]	; 0x24
 800818a:	2b00      	cmp	r3, #0
 800818c:	d08c      	beq.n	80080a8 <HAL_UART_Init+0x1c0>
 800818e:	2b01      	cmp	r3, #1
 8008190:	f000 82b0 	beq.w	80086f4 <HAL_UART_Init+0x80c>
 8008194:	2b02      	cmp	r3, #2
 8008196:	f000 817f 	beq.w	8008498 <HAL_UART_Init+0x5b0>
 800819a:	2b03      	cmp	r3, #3
 800819c:	f000 8179 	beq.w	8008492 <HAL_UART_Init+0x5aa>
 80081a0:	2b04      	cmp	r3, #4
 80081a2:	f000 82ba 	beq.w	800871a <HAL_UART_Init+0x832>
 80081a6:	2b05      	cmp	r3, #5
 80081a8:	f000 82b4 	beq.w	8008714 <HAL_UART_Init+0x82c>
 80081ac:	2b06      	cmp	r3, #6
 80081ae:	f000 82ef 	beq.w	8008790 <HAL_UART_Init+0x8a8>
 80081b2:	2b07      	cmp	r3, #7
 80081b4:	f000 8310 	beq.w	80087d8 <HAL_UART_Init+0x8f0>
 80081b8:	2b08      	cmp	r3, #8
 80081ba:	f000 8328 	beq.w	800880e <HAL_UART_Init+0x926>
 80081be:	2b09      	cmp	r3, #9
 80081c0:	f000 8360 	beq.w	8008884 <HAL_UART_Init+0x99c>
 80081c4:	2b0a      	cmp	r3, #10
 80081c6:	f000 835b 	beq.w	8008880 <HAL_UART_Init+0x998>
 80081ca:	2b0b      	cmp	r3, #11
 80081cc:	bf08      	it	eq
 80081ce:	0a00      	lsreq	r0, r0, #8
 80081d0:	e76a      	b.n	80080a8 <HAL_UART_Init+0x1c0>
 80081d2:	f7fe fbf9 	bl	80069c8 <HAL_RCC_GetPCLK1Freq>
 80081d6:	6a63      	ldr	r3, [r4, #36]	; 0x24
 80081d8:	2b00      	cmp	r3, #0
 80081da:	f43f af65 	beq.w	80080a8 <HAL_UART_Init+0x1c0>
 80081de:	e7d6      	b.n	800818e <HAL_UART_Init+0x2a6>
 80081e0:	cfff69f3 	.word	0xcfff69f3
 80081e4:	40008000 	.word	0x40008000
 80081e8:	40013800 	.word	0x40013800
 80081ec:	40004400 	.word	0x40004400
 80081f0:	40004800 	.word	0x40004800
 80081f4:	40004c00 	.word	0x40004c00
 80081f8:	40021000 	.word	0x40021000
 80081fc:	0800af84 	.word	0x0800af84
 8008200:	0800af88 	.word	0x0800af88
 8008204:	4bd3      	ldr	r3, [pc, #844]	; (8008554 <HAL_UART_Init+0x66c>)
 8008206:	f8d3 3088 	ldr.w	r3, [r3, #136]	; 0x88
 800820a:	f003 0330 	and.w	r3, r3, #48	; 0x30
 800820e:	2b10      	cmp	r3, #16
 8008210:	d0b4      	beq.n	800817c <HAL_UART_Init+0x294>
 8008212:	d96e      	bls.n	80082f2 <HAL_UART_Init+0x40a>
 8008214:	2b20      	cmp	r3, #32
 8008216:	f040 812c 	bne.w	8008472 <HAL_UART_Init+0x58a>
 800821a:	f5b1 4f00 	cmp.w	r1, #32768	; 0x8000
 800821e:	f000 8144 	beq.w	80084aa <HAL_UART_Init+0x5c2>
 8008222:	2d00      	cmp	r5, #0
 8008224:	f000 812c 	beq.w	8008480 <HAL_UART_Init+0x598>
 8008228:	2d01      	cmp	r5, #1
 800822a:	f000 827a 	beq.w	8008722 <HAL_UART_Init+0x83a>
 800822e:	2d02      	cmp	r5, #2
 8008230:	f000 8296 	beq.w	8008760 <HAL_UART_Init+0x878>
 8008234:	2d03      	cmp	r5, #3
 8008236:	f000 82a6 	beq.w	8008786 <HAL_UART_Init+0x89e>
 800823a:	2d04      	cmp	r5, #4
 800823c:	f000 82ca 	beq.w	80087d4 <HAL_UART_Init+0x8ec>
 8008240:	2d05      	cmp	r5, #5
 8008242:	f000 82db 	beq.w	80087fc <HAL_UART_Init+0x914>
 8008246:	2d06      	cmp	r5, #6
 8008248:	f000 82f0 	beq.w	800882c <HAL_UART_Init+0x944>
 800824c:	2d07      	cmp	r5, #7
 800824e:	f000 831b 	beq.w	8008888 <HAL_UART_Init+0x9a0>
 8008252:	2d08      	cmp	r5, #8
 8008254:	f000 832b 	beq.w	80088ae <HAL_UART_Init+0x9c6>
 8008258:	2d09      	cmp	r5, #9
 800825a:	f000 83a9 	beq.w	80089b0 <HAL_UART_Init+0xac8>
 800825e:	2d0a      	cmp	r5, #10
 8008260:	f000 83a4 	beq.w	80089ac <HAL_UART_Init+0xac4>
 8008264:	4bbc      	ldr	r3, [pc, #752]	; (8008558 <HAL_UART_Init+0x670>)
 8008266:	f24f 4224 	movw	r2, #62500	; 0xf424
 800826a:	2d0b      	cmp	r5, #11
 800826c:	bf08      	it	eq
 800826e:	4613      	moveq	r3, r2
 8008270:	6861      	ldr	r1, [r4, #4]
 8008272:	2200      	movs	r2, #0
 8008274:	eb03 0351 	add.w	r3, r3, r1, lsr #1
 8008278:	fbb3 f3f1 	udiv	r3, r3, r1
 800827c:	b29b      	uxth	r3, r3
 800827e:	e71a      	b.n	80080b6 <HAL_UART_Init+0x1ce>
 8008280:	4bb4      	ldr	r3, [pc, #720]	; (8008554 <HAL_UART_Init+0x66c>)
 8008282:	f8d3 3088 	ldr.w	r3, [r3, #136]	; 0x88
 8008286:	f003 03c0 	and.w	r3, r3, #192	; 0xc0
 800828a:	2b40      	cmp	r3, #64	; 0x40
 800828c:	f43f af76 	beq.w	800817c <HAL_UART_Init+0x294>
 8008290:	d92f      	bls.n	80082f2 <HAL_UART_Init+0x40a>
 8008292:	2b80      	cmp	r3, #128	; 0x80
 8008294:	d0c1      	beq.n	800821a <HAL_UART_Init+0x332>
 8008296:	2bc0      	cmp	r3, #192	; 0xc0
 8008298:	f47f ae6e 	bne.w	8007f78 <HAL_UART_Init+0x90>
 800829c:	f5b1 4f00 	cmp.w	r1, #32768	; 0x8000
 80082a0:	f000 8130 	beq.w	8008504 <HAL_UART_Init+0x61c>
 80082a4:	2d00      	cmp	r5, #0
 80082a6:	f000 80e8 	beq.w	800847a <HAL_UART_Init+0x592>
 80082aa:	2d01      	cmp	r5, #1
 80082ac:	f000 823b 	beq.w	8008726 <HAL_UART_Init+0x83e>
 80082b0:	2d02      	cmp	r5, #2
 80082b2:	f000 8257 	beq.w	8008764 <HAL_UART_Init+0x87c>
 80082b6:	2d03      	cmp	r5, #3
 80082b8:	f000 8267 	beq.w	800878a <HAL_UART_Init+0x8a2>
 80082bc:	2d04      	cmp	r5, #4
 80082be:	f000 8286 	beq.w	80087ce <HAL_UART_Init+0x8e6>
 80082c2:	2d05      	cmp	r5, #5
 80082c4:	f000 829c 	beq.w	8008800 <HAL_UART_Init+0x918>
 80082c8:	2d06      	cmp	r5, #6
 80082ca:	f000 82b1 	beq.w	8008830 <HAL_UART_Init+0x948>
 80082ce:	2d07      	cmp	r5, #7
 80082d0:	f000 82d3 	beq.w	800887a <HAL_UART_Init+0x992>
 80082d4:	2d08      	cmp	r5, #8
 80082d6:	f000 831c 	beq.w	8008912 <HAL_UART_Init+0xa2a>
 80082da:	2d09      	cmp	r5, #9
 80082dc:	f000 836d 	beq.w	80089ba <HAL_UART_Init+0xad2>
 80082e0:	2d0a      	cmp	r5, #10
 80082e2:	f000 8367 	beq.w	80089b4 <HAL_UART_Init+0xacc>
 80082e6:	2d0b      	cmp	r5, #11
 80082e8:	bf14      	ite	ne
 80082ea:	f44f 4300 	movne.w	r3, #32768	; 0x8000
 80082ee:	2380      	moveq	r3, #128	; 0x80
 80082f0:	e7be      	b.n	8008270 <HAL_UART_Init+0x388>
 80082f2:	2b00      	cmp	r3, #0
 80082f4:	f47f ae40 	bne.w	8007f78 <HAL_UART_Init+0x90>
 80082f8:	f5b1 4f00 	cmp.w	r1, #32768	; 0x8000
 80082fc:	f47f af69 	bne.w	80081d2 <HAL_UART_Init+0x2ea>
 8008300:	f7fe fb62 	bl	80069c8 <HAL_RCC_GetPCLK1Freq>
 8008304:	6a62      	ldr	r2, [r4, #36]	; 0x24
 8008306:	b302      	cbz	r2, 800834a <HAL_UART_Init+0x462>
 8008308:	2a01      	cmp	r2, #1
 800830a:	f000 81fc 	beq.w	8008706 <HAL_UART_Init+0x81e>
 800830e:	2a02      	cmp	r2, #2
 8008310:	f000 8205 	beq.w	800871e <HAL_UART_Init+0x836>
 8008314:	2a03      	cmp	r2, #3
 8008316:	f000 821e 	beq.w	8008756 <HAL_UART_Init+0x86e>
 800831a:	2a04      	cmp	r2, #4
 800831c:	f000 8231 	beq.w	8008782 <HAL_UART_Init+0x89a>
 8008320:	2a05      	cmp	r2, #5
 8008322:	f000 8250 	beq.w	80087c6 <HAL_UART_Init+0x8de>
 8008326:	2a06      	cmp	r2, #6
 8008328:	f000 826d 	beq.w	8008806 <HAL_UART_Init+0x91e>
 800832c:	2a07      	cmp	r2, #7
 800832e:	f000 8282 	beq.w	8008836 <HAL_UART_Init+0x94e>
 8008332:	2a08      	cmp	r2, #8
 8008334:	f000 82aa 	beq.w	800888c <HAL_UART_Init+0x9a4>
 8008338:	2a09      	cmp	r2, #9
 800833a:	f000 82fe 	beq.w	800893a <HAL_UART_Init+0xa52>
 800833e:	2a0a      	cmp	r2, #10
 8008340:	f000 82f9 	beq.w	8008936 <HAL_UART_Init+0xa4e>
 8008344:	2a0b      	cmp	r2, #11
 8008346:	bf08      	it	eq
 8008348:	0a00      	lsreq	r0, r0, #8
 800834a:	6862      	ldr	r2, [r4, #4]
 800834c:	0853      	lsrs	r3, r2, #1
 800834e:	eb03 0340 	add.w	r3, r3, r0, lsl #1
 8008352:	fbb3 f3f2 	udiv	r3, r3, r2
 8008356:	b29b      	uxth	r3, r3
 8008358:	f1a3 0110 	sub.w	r1, r3, #16
 800835c:	f64f 72ef 	movw	r2, #65519	; 0xffef
 8008360:	4291      	cmp	r1, r2
 8008362:	f63f ae09 	bhi.w	8007f78 <HAL_UART_Init+0x90>
 8008366:	f023 020f 	bic.w	r2, r3, #15
 800836a:	6820      	ldr	r0, [r4, #0]
 800836c:	f3c3 0342 	ubfx	r3, r3, #1, #3
 8008370:	4313      	orrs	r3, r2
 8008372:	f04f 1101 	mov.w	r1, #65537	; 0x10001
 8008376:	2200      	movs	r2, #0
 8008378:	60c3      	str	r3, [r0, #12]
 800837a:	e9c4 121a 	strd	r1, r2, [r4, #104]	; 0x68
 800837e:	6722      	str	r2, [r4, #112]	; 0x70
 8008380:	e6ab      	b.n	80080da <HAL_UART_Init+0x1f2>
 8008382:	4620      	mov	r0, r4
 8008384:	f7ff fd56 	bl	8007e34 <UART_AdvFeatureConfig>
 8008388:	e6ab      	b.n	80080e2 <HAL_UART_Init+0x1fa>
 800838a:	2b08      	cmp	r3, #8
 800838c:	f63f adf4 	bhi.w	8007f78 <HAL_UART_Init+0x90>
 8008390:	a201      	add	r2, pc, #4	; (adr r2, 8008398 <HAL_UART_Init+0x4b0>)
 8008392:	f852 f023 	ldr.w	pc, [r2, r3, lsl #2]
 8008396:	bf00      	nop
 8008398:	08008301 	.word	0x08008301
 800839c:	08008485 	.word	0x08008485
 80083a0:	080084ab 	.word	0x080084ab
 80083a4:	08007f79 	.word	0x08007f79
 80083a8:	0800849d 	.word	0x0800849d
 80083ac:	08007f79 	.word	0x08007f79
 80083b0:	08007f79 	.word	0x08007f79
 80083b4:	08007f79 	.word	0x08007f79
 80083b8:	08008505 	.word	0x08008505
 80083bc:	2001      	movs	r0, #1
 80083be:	4770      	bx	lr
 80083c0:	2b00      	cmp	r3, #0
 80083c2:	f47f add9 	bne.w	8007f78 <HAL_UART_Init+0x90>
 80083c6:	f7fe faff 	bl	80069c8 <HAL_RCC_GetPCLK1Freq>
 80083ca:	6a63      	ldr	r3, [r4, #36]	; 0x24
 80083cc:	b303      	cbz	r3, 8008410 <HAL_UART_Init+0x528>
 80083ce:	2b01      	cmp	r3, #1
 80083d0:	f000 81bd 	beq.w	800874e <HAL_UART_Init+0x866>
 80083d4:	2b02      	cmp	r3, #2
 80083d6:	f000 81ac 	beq.w	8008732 <HAL_UART_Init+0x84a>
 80083da:	2b03      	cmp	r3, #3
 80083dc:	f000 81a6 	beq.w	800872c <HAL_UART_Init+0x844>
 80083e0:	2b04      	cmp	r3, #4
 80083e2:	f000 81dd 	beq.w	80087a0 <HAL_UART_Init+0x8b8>
 80083e6:	2b05      	cmp	r3, #5
 80083e8:	f000 81d7 	beq.w	800879a <HAL_UART_Init+0x8b2>
 80083ec:	2b06      	cmp	r3, #6
 80083ee:	f000 8238 	beq.w	8008862 <HAL_UART_Init+0x97a>
 80083f2:	2b07      	cmp	r3, #7
 80083f4:	f000 8286 	beq.w	8008904 <HAL_UART_Init+0xa1c>
 80083f8:	2b08      	cmp	r3, #8
 80083fa:	f000 8294 	beq.w	8008926 <HAL_UART_Init+0xa3e>
 80083fe:	2b09      	cmp	r3, #9
 8008400:	f000 82c3 	beq.w	800898a <HAL_UART_Init+0xaa2>
 8008404:	2b0a      	cmp	r3, #10
 8008406:	f000 82ef 	beq.w	80089e8 <HAL_UART_Init+0xb00>
 800840a:	2b0b      	cmp	r3, #11
 800840c:	bf08      	it	eq
 800840e:	0a00      	lsreq	r0, r0, #8
 8008410:	2300      	movs	r3, #0
 8008412:	2800      	cmp	r0, #0
 8008414:	f47f ae03 	bne.w	800801e <HAL_UART_Init+0x136>
 8008418:	f04f 1301 	mov.w	r3, #65537	; 0x10001
 800841c:	e9c4 001b 	strd	r0, r0, [r4, #108]	; 0x6c
 8008420:	66a3      	str	r3, [r4, #104]	; 0x68
 8008422:	e65a      	b.n	80080da <HAL_UART_Init+0x1f2>
 8008424:	f7fe fa92 	bl	800694c <HAL_RCC_GetSysClockFreq>
 8008428:	6a63      	ldr	r3, [r4, #36]	; 0x24
 800842a:	b303      	cbz	r3, 800846e <HAL_UART_Init+0x586>
 800842c:	2b01      	cmp	r3, #1
 800842e:	f000 8190 	beq.w	8008752 <HAL_UART_Init+0x86a>
 8008432:	2b02      	cmp	r3, #2
 8008434:	f000 8182 	beq.w	800873c <HAL_UART_Init+0x854>
 8008438:	2b03      	cmp	r3, #3
 800843a:	f000 817c 	beq.w	8008736 <HAL_UART_Init+0x84e>
 800843e:	2b04      	cmp	r3, #4
 8008440:	f000 81b3 	beq.w	80087aa <HAL_UART_Init+0x8c2>
 8008444:	2b05      	cmp	r3, #5
 8008446:	f000 81ad 	beq.w	80087a4 <HAL_UART_Init+0x8bc>
 800844a:	2b06      	cmp	r3, #6
 800844c:	f000 81fe 	beq.w	800884c <HAL_UART_Init+0x964>
 8008450:	2b07      	cmp	r3, #7
 8008452:	f000 8263 	beq.w	800891c <HAL_UART_Init+0xa34>
 8008456:	2b08      	cmp	r3, #8
 8008458:	f000 8271 	beq.w	800893e <HAL_UART_Init+0xa56>
 800845c:	2b09      	cmp	r3, #9
 800845e:	f000 8296 	beq.w	800898e <HAL_UART_Init+0xaa6>
 8008462:	2b0a      	cmp	r3, #10
 8008464:	f000 82c2 	beq.w	80089ec <HAL_UART_Init+0xb04>
 8008468:	2b0b      	cmp	r3, #11
 800846a:	bf08      	it	eq
 800846c:	0a00      	lsreq	r0, r0, #8
 800846e:	2304      	movs	r3, #4
 8008470:	e7cf      	b.n	8008412 <HAL_UART_Init+0x52a>
 8008472:	2b30      	cmp	r3, #48	; 0x30
 8008474:	f43f af12 	beq.w	800829c <HAL_UART_Init+0x3b4>
 8008478:	e57e      	b.n	8007f78 <HAL_UART_Init+0x90>
 800847a:	f44f 4300 	mov.w	r3, #32768	; 0x8000
 800847e:	e6f7      	b.n	8008270 <HAL_UART_Init+0x388>
 8008480:	4b35      	ldr	r3, [pc, #212]	; (8008558 <HAL_UART_Init+0x670>)
 8008482:	e6f5      	b.n	8008270 <HAL_UART_Init+0x388>
 8008484:	f7fe fab2 	bl	80069ec <HAL_RCC_GetPCLK2Freq>
 8008488:	6a62      	ldr	r2, [r4, #36]	; 0x24
 800848a:	2a00      	cmp	r2, #0
 800848c:	f43f af5d 	beq.w	800834a <HAL_UART_Init+0x462>
 8008490:	e73a      	b.n	8008308 <HAL_UART_Init+0x420>
 8008492:	4b32      	ldr	r3, [pc, #200]	; (800855c <HAL_UART_Init+0x674>)
 8008494:	fba3 3000 	umull	r3, r0, r3, r0
 8008498:	0880      	lsrs	r0, r0, #2
 800849a:	e605      	b.n	80080a8 <HAL_UART_Init+0x1c0>
 800849c:	f7fe fa56 	bl	800694c <HAL_RCC_GetSysClockFreq>
 80084a0:	6a62      	ldr	r2, [r4, #36]	; 0x24
 80084a2:	2a00      	cmp	r2, #0
 80084a4:	f43f af51 	beq.w	800834a <HAL_UART_Init+0x462>
 80084a8:	e72e      	b.n	8008308 <HAL_UART_Init+0x420>
 80084aa:	2d00      	cmp	r5, #0
 80084ac:	f000 8130 	beq.w	8008710 <HAL_UART_Init+0x828>
 80084b0:	2d01      	cmp	r5, #1
 80084b2:	f000 815e 	beq.w	8008772 <HAL_UART_Init+0x88a>
 80084b6:	2d02      	cmp	r5, #2
 80084b8:	f000 8183 	beq.w	80087c2 <HAL_UART_Init+0x8da>
 80084bc:	2d03      	cmp	r5, #3
 80084be:	f000 8197 	beq.w	80087f0 <HAL_UART_Init+0x908>
 80084c2:	2d04      	cmp	r5, #4
 80084c4:	f000 81b0 	beq.w	8008828 <HAL_UART_Init+0x940>
 80084c8:	2d05      	cmp	r5, #5
 80084ca:	f000 81b9 	beq.w	8008840 <HAL_UART_Init+0x958>
 80084ce:	2d06      	cmp	r5, #6
 80084d0:	f000 8222 	beq.w	8008918 <HAL_UART_Init+0xa30>
 80084d4:	2d07      	cmp	r5, #7
 80084d6:	f000 8228 	beq.w	800892a <HAL_UART_Init+0xa42>
 80084da:	2d08      	cmp	r5, #8
 80084dc:	f000 824c 	beq.w	8008978 <HAL_UART_Init+0xa90>
 80084e0:	2d09      	cmp	r5, #9
 80084e2:	f000 8291 	beq.w	8008a08 <HAL_UART_Init+0xb20>
 80084e6:	2d0a      	cmp	r5, #10
 80084e8:	f000 8290 	beq.w	8008a0c <HAL_UART_Init+0xb24>
 80084ec:	4b1c      	ldr	r3, [pc, #112]	; (8008560 <HAL_UART_Init+0x678>)
 80084ee:	4a1d      	ldr	r2, [pc, #116]	; (8008564 <HAL_UART_Init+0x67c>)
 80084f0:	2d0b      	cmp	r5, #11
 80084f2:	bf08      	it	eq
 80084f4:	4613      	moveq	r3, r2
 80084f6:	6862      	ldr	r2, [r4, #4]
 80084f8:	eb03 0352 	add.w	r3, r3, r2, lsr #1
 80084fc:	fbb3 f3f2 	udiv	r3, r3, r2
 8008500:	b29b      	uxth	r3, r3
 8008502:	e729      	b.n	8008358 <HAL_UART_Init+0x470>
 8008504:	2d00      	cmp	r5, #0
 8008506:	f000 8100 	beq.w	800870a <HAL_UART_Init+0x822>
 800850a:	2d01      	cmp	r5, #1
 800850c:	f000 8133 	beq.w	8008776 <HAL_UART_Init+0x88e>
 8008510:	2d02      	cmp	r5, #2
 8008512:	f000 814c 	beq.w	80087ae <HAL_UART_Init+0x8c6>
 8008516:	2d03      	cmp	r5, #3
 8008518:	f000 8167 	beq.w	80087ea <HAL_UART_Init+0x902>
 800851c:	2d04      	cmp	r5, #4
 800851e:	f000 8180 	beq.w	8008822 <HAL_UART_Init+0x93a>
 8008522:	2d05      	cmp	r5, #5
 8008524:	f000 81a1 	beq.w	800886a <HAL_UART_Init+0x982>
 8008528:	2d06      	cmp	r5, #6
 800852a:	f000 81f9 	beq.w	8008920 <HAL_UART_Init+0xa38>
 800852e:	2d07      	cmp	r5, #7
 8008530:	f000 8207 	beq.w	8008942 <HAL_UART_Init+0xa5a>
 8008534:	2d08      	cmp	r5, #8
 8008536:	f000 821c 	beq.w	8008972 <HAL_UART_Init+0xa8a>
 800853a:	2d09      	cmp	r5, #9
 800853c:	f000 8261 	beq.w	8008a02 <HAL_UART_Init+0xb1a>
 8008540:	2d0a      	cmp	r5, #10
 8008542:	f000 8265 	beq.w	8008a10 <HAL_UART_Init+0xb28>
 8008546:	2d0b      	cmp	r5, #11
 8008548:	bf14      	ite	ne
 800854a:	f44f 3380 	movne.w	r3, #65536	; 0x10000
 800854e:	f44f 7380 	moveq.w	r3, #256	; 0x100
 8008552:	e7d0      	b.n	80084f6 <HAL_UART_Init+0x60e>
 8008554:	40021000 	.word	0x40021000
 8008558:	00f42400 	.word	0x00f42400
 800855c:	aaaaaaab 	.word	0xaaaaaaab
 8008560:	01e84800 	.word	0x01e84800
 8008564:	0001e848 	.word	0x0001e848
 8008568:	6a63      	ldr	r3, [r4, #36]	; 0x24
 800856a:	b303      	cbz	r3, 80085ae <HAL_UART_Init+0x6c6>
 800856c:	2b01      	cmp	r3, #1
 800856e:	f000 8171 	beq.w	8008854 <HAL_UART_Init+0x96c>
 8008572:	2b02      	cmp	r3, #2
 8008574:	f000 8194 	beq.w	80088a0 <HAL_UART_Init+0x9b8>
 8008578:	2b03      	cmp	r3, #3
 800857a:	f000 81e5 	beq.w	8008948 <HAL_UART_Init+0xa60>
 800857e:	2b04      	cmp	r3, #4
 8008580:	f000 81ff 	beq.w	8008982 <HAL_UART_Init+0xa9a>
 8008584:	2b05      	cmp	r3, #5
 8008586:	f000 8222 	beq.w	80089ce <HAL_UART_Init+0xae6>
 800858a:	2b06      	cmp	r3, #6
 800858c:	f000 821c 	beq.w	80089c8 <HAL_UART_Init+0xae0>
 8008590:	2b07      	cmp	r3, #7
 8008592:	f000 8215 	beq.w	80089c0 <HAL_UART_Init+0xad8>
 8008596:	2b08      	cmp	r3, #8
 8008598:	f000 8243 	beq.w	8008a22 <HAL_UART_Init+0xb3a>
 800859c:	2b09      	cmp	r3, #9
 800859e:	f000 824f 	beq.w	8008a40 <HAL_UART_Init+0xb58>
 80085a2:	2b0a      	cmp	r3, #10
 80085a4:	f000 8248 	beq.w	8008a38 <HAL_UART_Init+0xb50>
 80085a8:	2b0b      	cmp	r3, #11
 80085aa:	f000 8241 	beq.w	8008a30 <HAL_UART_Init+0xb48>
 80085ae:	f44f 0500 	mov.w	r5, #8388608	; 0x800000
 80085b2:	2600      	movs	r6, #0
 80085b4:	0853      	lsrs	r3, r2, #1
 80085b6:	18e8      	adds	r0, r5, r3
 80085b8:	f146 0100 	adc.w	r1, r6, #0
 80085bc:	2300      	movs	r3, #0
 80085be:	f7f7 fe2b 	bl	8000218 <__aeabi_uldivmod>
 80085c2:	f5a0 7240 	sub.w	r2, r0, #768	; 0x300
 80085c6:	4bbb      	ldr	r3, [pc, #748]	; (80088b4 <HAL_UART_Init+0x9cc>)
 80085c8:	429a      	cmp	r2, r3
 80085ca:	f63f acd5 	bhi.w	8007f78 <HAL_UART_Init+0x90>
 80085ce:	6821      	ldr	r1, [r4, #0]
 80085d0:	2300      	movs	r3, #0
 80085d2:	f04f 1201 	mov.w	r2, #65537	; 0x10001
 80085d6:	60c8      	str	r0, [r1, #12]
 80085d8:	e9c4 231a 	strd	r2, r3, [r4, #104]	; 0x68
 80085dc:	6723      	str	r3, [r4, #112]	; 0x70
 80085de:	e57c      	b.n	80080da <HAL_UART_Init+0x1f2>
 80085e0:	6a63      	ldr	r3, [r4, #36]	; 0x24
 80085e2:	b303      	cbz	r3, 8008626 <HAL_UART_Init+0x73e>
 80085e4:	2b01      	cmp	r3, #1
 80085e6:	f000 8139 	beq.w	800885c <HAL_UART_Init+0x974>
 80085ea:	2b02      	cmp	r3, #2
 80085ec:	f000 815c 	beq.w	80088a8 <HAL_UART_Init+0x9c0>
 80085f0:	2b03      	cmp	r3, #3
 80085f2:	f000 819c 	beq.w	800892e <HAL_UART_Init+0xa46>
 80085f6:	2b04      	cmp	r3, #4
 80085f8:	f000 81c0 	beq.w	800897c <HAL_UART_Init+0xa94>
 80085fc:	2b05      	cmp	r3, #5
 80085fe:	f000 81f0 	beq.w	80089e2 <HAL_UART_Init+0xafa>
 8008602:	2b06      	cmp	r3, #6
 8008604:	f000 81e9 	beq.w	80089da <HAL_UART_Init+0xaf2>
 8008608:	2b07      	cmp	r3, #7
 800860a:	f000 81e3 	beq.w	80089d4 <HAL_UART_Init+0xaec>
 800860e:	2b08      	cmp	r3, #8
 8008610:	f000 8201 	beq.w	8008a16 <HAL_UART_Init+0xb2e>
 8008614:	2b09      	cmp	r3, #9
 8008616:	f000 821a 	beq.w	8008a4e <HAL_UART_Init+0xb66>
 800861a:	2b0a      	cmp	r3, #10
 800861c:	f000 8214 	beq.w	8008a48 <HAL_UART_Init+0xb60>
 8008620:	2b0b      	cmp	r3, #11
 8008622:	f000 8202 	beq.w	8008a2a <HAL_UART_Init+0xb42>
 8008626:	4da4      	ldr	r5, [pc, #656]	; (80088b8 <HAL_UART_Init+0x9d0>)
 8008628:	2600      	movs	r6, #0
 800862a:	e7c3      	b.n	80085b4 <HAL_UART_Init+0x6cc>
 800862c:	f7fe f9cc 	bl	80069c8 <HAL_RCC_GetPCLK1Freq>
 8008630:	6a63      	ldr	r3, [r4, #36]	; 0x24
 8008632:	2100      	movs	r1, #0
 8008634:	b30b      	cbz	r3, 800867a <HAL_UART_Init+0x792>
 8008636:	2b01      	cmp	r3, #1
 8008638:	f000 80dc 	beq.w	80087f4 <HAL_UART_Init+0x90c>
 800863c:	2b02      	cmp	r3, #2
 800863e:	f000 80fc 	beq.w	800883a <HAL_UART_Init+0x952>
 8008642:	2b03      	cmp	r3, #3
 8008644:	f000 8124 	beq.w	8008890 <HAL_UART_Init+0x9a8>
 8008648:	2b04      	cmp	r3, #4
 800864a:	f000 8126 	beq.w	800889a <HAL_UART_Init+0x9b2>
 800864e:	2b05      	cmp	r3, #5
 8008650:	f000 81a7 	beq.w	80089a2 <HAL_UART_Init+0xaba>
 8008654:	2b06      	cmp	r3, #6
 8008656:	f000 819f 	beq.w	8008998 <HAL_UART_Init+0xab0>
 800865a:	2b07      	cmp	r3, #7
 800865c:	f000 8199 	beq.w	8008992 <HAL_UART_Init+0xaaa>
 8008660:	2b08      	cmp	r3, #8
 8008662:	f000 81db 	beq.w	8008a1c <HAL_UART_Init+0xb34>
 8008666:	2b09      	cmp	r3, #9
 8008668:	f000 81f7 	beq.w	8008a5a <HAL_UART_Init+0xb72>
 800866c:	2b0a      	cmp	r3, #10
 800866e:	f000 81f1 	beq.w	8008a54 <HAL_UART_Init+0xb6c>
 8008672:	2b0b      	cmp	r3, #11
 8008674:	bf04      	itt	eq
 8008676:	0a00      	lsreq	r0, r0, #8
 8008678:	2100      	moveq	r1, #0
 800867a:	6862      	ldr	r2, [r4, #4]
 800867c:	020f      	lsls	r7, r1, #8
 800867e:	ea47 6710 	orr.w	r7, r7, r0, lsr #24
 8008682:	0206      	lsls	r6, r0, #8
 8008684:	0850      	lsrs	r0, r2, #1
 8008686:	eb16 0b00 	adds.w	fp, r6, r0
 800868a:	f147 0c00 	adc.w	ip, r7, #0
 800868e:	4658      	mov	r0, fp
 8008690:	4661      	mov	r1, ip
 8008692:	2300      	movs	r3, #0
 8008694:	f7f7 fdc0 	bl	8000218 <__aeabi_uldivmod>
 8008698:	f5a0 7240 	sub.w	r2, r0, #768	; 0x300
 800869c:	e793      	b.n	80085c6 <HAL_UART_Init+0x6de>
 800869e:	f7fe f955 	bl	800694c <HAL_RCC_GetSysClockFreq>
 80086a2:	e7c5      	b.n	8008630 <HAL_UART_Init+0x748>
 80086a4:	2201      	movs	r2, #1
 80086a6:	2300      	movs	r3, #0
 80086a8:	e505      	b.n	80080b6 <HAL_UART_Init+0x1ce>
 80086aa:	b32d      	cbz	r5, 80086f8 <HAL_UART_Init+0x810>
 80086ac:	2d01      	cmp	r5, #1
 80086ae:	d047      	beq.n	8008740 <HAL_UART_Init+0x858>
 80086b0:	2d02      	cmp	r5, #2
 80086b2:	d063      	beq.n	800877c <HAL_UART_Init+0x894>
 80086b4:	2d03      	cmp	r5, #3
 80086b6:	f000 8081 	beq.w	80087bc <HAL_UART_Init+0x8d4>
 80086ba:	2d04      	cmp	r5, #4
 80086bc:	f000 808e 	beq.w	80087dc <HAL_UART_Init+0x8f4>
 80086c0:	2d05      	cmp	r5, #5
 80086c2:	f000 80a6 	beq.w	8008812 <HAL_UART_Init+0x92a>
 80086c6:	2d06      	cmp	r5, #6
 80086c8:	f000 80bc 	beq.w	8008844 <HAL_UART_Init+0x95c>
 80086cc:	2d07      	cmp	r5, #7
 80086ce:	f000 8115 	beq.w	80088fc <HAL_UART_Init+0xa14>
 80086d2:	2d08      	cmp	r5, #8
 80086d4:	f000 813b 	beq.w	800894e <HAL_UART_Init+0xa66>
 80086d8:	2d09      	cmp	r5, #9
 80086da:	f000 8141 	beq.w	8008960 <HAL_UART_Init+0xa78>
 80086de:	2d0a      	cmp	r5, #10
 80086e0:	f000 818b 	beq.w	80089fa <HAL_UART_Init+0xb12>
 80086e4:	4b75      	ldr	r3, [pc, #468]	; (80088bc <HAL_UART_Init+0x9d4>)
 80086e6:	f24f 4024 	movw	r0, #62500	; 0xf424
 80086ea:	2d0b      	cmp	r5, #11
 80086ec:	bf18      	it	ne
 80086ee:	4618      	movne	r0, r3
 80086f0:	2302      	movs	r3, #2
 80086f2:	e494      	b.n	800801e <HAL_UART_Init+0x136>
 80086f4:	0840      	lsrs	r0, r0, #1
 80086f6:	e4d7      	b.n	80080a8 <HAL_UART_Init+0x1c0>
 80086f8:	2302      	movs	r3, #2
 80086fa:	4870      	ldr	r0, [pc, #448]	; (80088bc <HAL_UART_Init+0x9d4>)
 80086fc:	e48f      	b.n	800801e <HAL_UART_Init+0x136>
 80086fe:	2308      	movs	r3, #8
 8008700:	f44f 4000 	mov.w	r0, #32768	; 0x8000
 8008704:	e48b      	b.n	800801e <HAL_UART_Init+0x136>
 8008706:	0840      	lsrs	r0, r0, #1
 8008708:	e61f      	b.n	800834a <HAL_UART_Init+0x462>
 800870a:	f44f 3380 	mov.w	r3, #65536	; 0x10000
 800870e:	e6f2      	b.n	80084f6 <HAL_UART_Init+0x60e>
 8008710:	4b6b      	ldr	r3, [pc, #428]	; (80088c0 <HAL_UART_Init+0x9d8>)
 8008712:	e6f0      	b.n	80084f6 <HAL_UART_Init+0x60e>
 8008714:	4b6b      	ldr	r3, [pc, #428]	; (80088c4 <HAL_UART_Init+0x9dc>)
 8008716:	fba3 3000 	umull	r3, r0, r3, r0
 800871a:	08c0      	lsrs	r0, r0, #3
 800871c:	e4c4      	b.n	80080a8 <HAL_UART_Init+0x1c0>
 800871e:	0880      	lsrs	r0, r0, #2
 8008720:	e613      	b.n	800834a <HAL_UART_Init+0x462>
 8008722:	4b69      	ldr	r3, [pc, #420]	; (80088c8 <HAL_UART_Init+0x9e0>)
 8008724:	e5a4      	b.n	8008270 <HAL_UART_Init+0x388>
 8008726:	f44f 4380 	mov.w	r3, #16384	; 0x4000
 800872a:	e5a1      	b.n	8008270 <HAL_UART_Init+0x388>
 800872c:	4b67      	ldr	r3, [pc, #412]	; (80088cc <HAL_UART_Init+0x9e4>)
 800872e:	fba3 3000 	umull	r3, r0, r3, r0
 8008732:	0880      	lsrs	r0, r0, #2
 8008734:	e66c      	b.n	8008410 <HAL_UART_Init+0x528>
 8008736:	4b65      	ldr	r3, [pc, #404]	; (80088cc <HAL_UART_Init+0x9e4>)
 8008738:	fba3 3000 	umull	r3, r0, r3, r0
 800873c:	0880      	lsrs	r0, r0, #2
 800873e:	e696      	b.n	800846e <HAL_UART_Init+0x586>
 8008740:	2302      	movs	r3, #2
 8008742:	4861      	ldr	r0, [pc, #388]	; (80088c8 <HAL_UART_Init+0x9e0>)
 8008744:	e46b      	b.n	800801e <HAL_UART_Init+0x136>
 8008746:	2308      	movs	r3, #8
 8008748:	f44f 4080 	mov.w	r0, #16384	; 0x4000
 800874c:	e467      	b.n	800801e <HAL_UART_Init+0x136>
 800874e:	0840      	lsrs	r0, r0, #1
 8008750:	e65e      	b.n	8008410 <HAL_UART_Init+0x528>
 8008752:	0840      	lsrs	r0, r0, #1
 8008754:	e68b      	b.n	800846e <HAL_UART_Init+0x586>
 8008756:	4b5d      	ldr	r3, [pc, #372]	; (80088cc <HAL_UART_Init+0x9e4>)
 8008758:	fba3 2300 	umull	r2, r3, r3, r0
 800875c:	0898      	lsrs	r0, r3, #2
 800875e:	e5f4      	b.n	800834a <HAL_UART_Init+0x462>
 8008760:	4b5b      	ldr	r3, [pc, #364]	; (80088d0 <HAL_UART_Init+0x9e8>)
 8008762:	e585      	b.n	8008270 <HAL_UART_Init+0x388>
 8008764:	f44f 5300 	mov.w	r3, #8192	; 0x2000
 8008768:	e582      	b.n	8008270 <HAL_UART_Init+0x388>
 800876a:	2308      	movs	r3, #8
 800876c:	f44f 5000 	mov.w	r0, #8192	; 0x2000
 8008770:	e455      	b.n	800801e <HAL_UART_Init+0x136>
 8008772:	4b52      	ldr	r3, [pc, #328]	; (80088bc <HAL_UART_Init+0x9d4>)
 8008774:	e6bf      	b.n	80084f6 <HAL_UART_Init+0x60e>
 8008776:	f44f 4300 	mov.w	r3, #32768	; 0x8000
 800877a:	e6bc      	b.n	80084f6 <HAL_UART_Init+0x60e>
 800877c:	462b      	mov	r3, r5
 800877e:	4854      	ldr	r0, [pc, #336]	; (80088d0 <HAL_UART_Init+0x9e8>)
 8008780:	e44d      	b.n	800801e <HAL_UART_Init+0x136>
 8008782:	08c0      	lsrs	r0, r0, #3
 8008784:	e5e1      	b.n	800834a <HAL_UART_Init+0x462>
 8008786:	4b53      	ldr	r3, [pc, #332]	; (80088d4 <HAL_UART_Init+0x9ec>)
 8008788:	e572      	b.n	8008270 <HAL_UART_Init+0x388>
 800878a:	f241 5355 	movw	r3, #5461	; 0x1555
 800878e:	e56f      	b.n	8008270 <HAL_UART_Init+0x388>
 8008790:	4b4e      	ldr	r3, [pc, #312]	; (80088cc <HAL_UART_Init+0x9e4>)
 8008792:	fba3 3000 	umull	r3, r0, r3, r0
 8008796:	08c0      	lsrs	r0, r0, #3
 8008798:	e486      	b.n	80080a8 <HAL_UART_Init+0x1c0>
 800879a:	4b4a      	ldr	r3, [pc, #296]	; (80088c4 <HAL_UART_Init+0x9dc>)
 800879c:	fba3 3000 	umull	r3, r0, r3, r0
 80087a0:	08c0      	lsrs	r0, r0, #3
 80087a2:	e635      	b.n	8008410 <HAL_UART_Init+0x528>
 80087a4:	4b47      	ldr	r3, [pc, #284]	; (80088c4 <HAL_UART_Init+0x9dc>)
 80087a6:	fba3 3000 	umull	r3, r0, r3, r0
 80087aa:	08c0      	lsrs	r0, r0, #3
 80087ac:	e65f      	b.n	800846e <HAL_UART_Init+0x586>
 80087ae:	f44f 4380 	mov.w	r3, #16384	; 0x4000
 80087b2:	e6a0      	b.n	80084f6 <HAL_UART_Init+0x60e>
 80087b4:	2308      	movs	r3, #8
 80087b6:	f241 5055 	movw	r0, #5461	; 0x1555
 80087ba:	e430      	b.n	800801e <HAL_UART_Init+0x136>
 80087bc:	2302      	movs	r3, #2
 80087be:	4845      	ldr	r0, [pc, #276]	; (80088d4 <HAL_UART_Init+0x9ec>)
 80087c0:	e42d      	b.n	800801e <HAL_UART_Init+0x136>
 80087c2:	4b41      	ldr	r3, [pc, #260]	; (80088c8 <HAL_UART_Init+0x9e0>)
 80087c4:	e697      	b.n	80084f6 <HAL_UART_Init+0x60e>
 80087c6:	230a      	movs	r3, #10
 80087c8:	fbb0 f0f3 	udiv	r0, r0, r3
 80087cc:	e5bd      	b.n	800834a <HAL_UART_Init+0x462>
 80087ce:	f44f 5380 	mov.w	r3, #4096	; 0x1000
 80087d2:	e54d      	b.n	8008270 <HAL_UART_Init+0x388>
 80087d4:	4b40      	ldr	r3, [pc, #256]	; (80088d8 <HAL_UART_Init+0x9f0>)
 80087d6:	e54b      	b.n	8008270 <HAL_UART_Init+0x388>
 80087d8:	0900      	lsrs	r0, r0, #4
 80087da:	e465      	b.n	80080a8 <HAL_UART_Init+0x1c0>
 80087dc:	2302      	movs	r3, #2
 80087de:	483e      	ldr	r0, [pc, #248]	; (80088d8 <HAL_UART_Init+0x9f0>)
 80087e0:	e41d      	b.n	800801e <HAL_UART_Init+0x136>
 80087e2:	2308      	movs	r3, #8
 80087e4:	f44f 5080 	mov.w	r0, #4096	; 0x1000
 80087e8:	e419      	b.n	800801e <HAL_UART_Init+0x136>
 80087ea:	f642 23aa 	movw	r3, #10922	; 0x2aaa
 80087ee:	e682      	b.n	80084f6 <HAL_UART_Init+0x60e>
 80087f0:	4b3a      	ldr	r3, [pc, #232]	; (80088dc <HAL_UART_Init+0x9f4>)
 80087f2:	e680      	b.n	80084f6 <HAL_UART_Init+0x60e>
 80087f4:	0849      	lsrs	r1, r1, #1
 80087f6:	ea4f 0030 	mov.w	r0, r0, rrx
 80087fa:	e73e      	b.n	800867a <HAL_UART_Init+0x792>
 80087fc:	4b38      	ldr	r3, [pc, #224]	; (80088e0 <HAL_UART_Init+0x9f8>)
 80087fe:	e537      	b.n	8008270 <HAL_UART_Init+0x388>
 8008800:	f640 43cc 	movw	r3, #3276	; 0xccc
 8008804:	e534      	b.n	8008270 <HAL_UART_Init+0x388>
 8008806:	230c      	movs	r3, #12
 8008808:	fbb0 f0f3 	udiv	r0, r0, r3
 800880c:	e59d      	b.n	800834a <HAL_UART_Init+0x462>
 800880e:	0940      	lsrs	r0, r0, #5
 8008810:	e44a      	b.n	80080a8 <HAL_UART_Init+0x1c0>
 8008812:	2302      	movs	r3, #2
 8008814:	4832      	ldr	r0, [pc, #200]	; (80088e0 <HAL_UART_Init+0x9f8>)
 8008816:	e402      	b.n	800801e <HAL_UART_Init+0x136>
 8008818:	2308      	movs	r3, #8
 800881a:	f640 40cc 	movw	r0, #3276	; 0xccc
 800881e:	f7ff bbfe 	b.w	800801e <HAL_UART_Init+0x136>
 8008822:	f44f 5300 	mov.w	r3, #8192	; 0x2000
 8008826:	e666      	b.n	80084f6 <HAL_UART_Init+0x60e>
 8008828:	4b29      	ldr	r3, [pc, #164]	; (80088d0 <HAL_UART_Init+0x9e8>)
 800882a:	e664      	b.n	80084f6 <HAL_UART_Init+0x60e>
 800882c:	4b2d      	ldr	r3, [pc, #180]	; (80088e4 <HAL_UART_Init+0x9fc>)
 800882e:	e51f      	b.n	8008270 <HAL_UART_Init+0x388>
 8008830:	f640 23aa 	movw	r3, #2730	; 0xaaa
 8008834:	e51c      	b.n	8008270 <HAL_UART_Init+0x388>
 8008836:	0900      	lsrs	r0, r0, #4
 8008838:	e587      	b.n	800834a <HAL_UART_Init+0x462>
 800883a:	0880      	lsrs	r0, r0, #2
 800883c:	2100      	movs	r1, #0
 800883e:	e71c      	b.n	800867a <HAL_UART_Init+0x792>
 8008840:	4b29      	ldr	r3, [pc, #164]	; (80088e8 <HAL_UART_Init+0xa00>)
 8008842:	e658      	b.n	80084f6 <HAL_UART_Init+0x60e>
 8008844:	2302      	movs	r3, #2
 8008846:	4827      	ldr	r0, [pc, #156]	; (80088e4 <HAL_UART_Init+0x9fc>)
 8008848:	f7ff bbe9 	b.w	800801e <HAL_UART_Init+0x136>
 800884c:	230c      	movs	r3, #12
 800884e:	fbb0 f0f3 	udiv	r0, r0, r3
 8008852:	e60c      	b.n	800846e <HAL_UART_Init+0x586>
 8008854:	f44f 0580 	mov.w	r5, #4194304	; 0x400000
 8008858:	2600      	movs	r6, #0
 800885a:	e6ab      	b.n	80085b4 <HAL_UART_Init+0x6cc>
 800885c:	4d23      	ldr	r5, [pc, #140]	; (80088ec <HAL_UART_Init+0xa04>)
 800885e:	2600      	movs	r6, #0
 8008860:	e6a8      	b.n	80085b4 <HAL_UART_Init+0x6cc>
 8008862:	230c      	movs	r3, #12
 8008864:	fbb0 f0f3 	udiv	r0, r0, r3
 8008868:	e5d2      	b.n	8008410 <HAL_UART_Init+0x528>
 800886a:	f641 1398 	movw	r3, #6552	; 0x1998
 800886e:	e642      	b.n	80084f6 <HAL_UART_Init+0x60e>
 8008870:	2308      	movs	r3, #8
 8008872:	f640 20aa 	movw	r0, #2730	; 0xaaa
 8008876:	f7ff bbd2 	b.w	800801e <HAL_UART_Init+0x136>
 800887a:	f44f 6300 	mov.w	r3, #2048	; 0x800
 800887e:	e4f7      	b.n	8008270 <HAL_UART_Init+0x388>
 8008880:	09c0      	lsrs	r0, r0, #7
 8008882:	e411      	b.n	80080a8 <HAL_UART_Init+0x1c0>
 8008884:	0980      	lsrs	r0, r0, #6
 8008886:	e40f      	b.n	80080a8 <HAL_UART_Init+0x1c0>
 8008888:	4b19      	ldr	r3, [pc, #100]	; (80088f0 <HAL_UART_Init+0xa08>)
 800888a:	e4f1      	b.n	8008270 <HAL_UART_Init+0x388>
 800888c:	0940      	lsrs	r0, r0, #5
 800888e:	e55c      	b.n	800834a <HAL_UART_Init+0x462>
 8008890:	2206      	movs	r2, #6
 8008892:	2300      	movs	r3, #0
 8008894:	f7f7 fcc0 	bl	8000218 <__aeabi_uldivmod>
 8008898:	e6ef      	b.n	800867a <HAL_UART_Init+0x792>
 800889a:	08c0      	lsrs	r0, r0, #3
 800889c:	2100      	movs	r1, #0
 800889e:	e6ec      	b.n	800867a <HAL_UART_Init+0x792>
 80088a0:	f44f 1500 	mov.w	r5, #2097152	; 0x200000
 80088a4:	2600      	movs	r6, #0
 80088a6:	e685      	b.n	80085b4 <HAL_UART_Init+0x6cc>
 80088a8:	4d12      	ldr	r5, [pc, #72]	; (80088f4 <HAL_UART_Init+0xa0c>)
 80088aa:	2600      	movs	r6, #0
 80088ac:	e682      	b.n	80085b4 <HAL_UART_Init+0x6cc>
 80088ae:	4b12      	ldr	r3, [pc, #72]	; (80088f8 <HAL_UART_Init+0xa10>)
 80088b0:	e4de      	b.n	8008270 <HAL_UART_Init+0x388>
 80088b2:	bf00      	nop
 80088b4:	000ffcff 	.word	0x000ffcff
 80088b8:	f4240000 	.word	0xf4240000
 80088bc:	00f42400 	.word	0x00f42400
 80088c0:	01e84800 	.word	0x01e84800
 80088c4:	cccccccd 	.word	0xcccccccd
 80088c8:	007a1200 	.word	0x007a1200
 80088cc:	aaaaaaab 	.word	0xaaaaaaab
 80088d0:	003d0900 	.word	0x003d0900
 80088d4:	0028b0aa 	.word	0x0028b0aa
 80088d8:	001e8480 	.word	0x001e8480
 80088dc:	00516154 	.word	0x00516154
 80088e0:	00186a00 	.word	0x00186a00
 80088e4:	00145855 	.word	0x00145855
 80088e8:	0030d400 	.word	0x0030d400
 80088ec:	7a120000 	.word	0x7a120000
 80088f0:	000f4240 	.word	0x000f4240
 80088f4:	3d090000 	.word	0x3d090000
 80088f8:	0007a120 	.word	0x0007a120
 80088fc:	2302      	movs	r3, #2
 80088fe:	485c      	ldr	r0, [pc, #368]	; (8008a70 <HAL_UART_Init+0xb88>)
 8008900:	f7ff bb8d 	b.w	800801e <HAL_UART_Init+0x136>
 8008904:	0900      	lsrs	r0, r0, #4
 8008906:	e583      	b.n	8008410 <HAL_UART_Init+0x528>
 8008908:	2308      	movs	r3, #8
 800890a:	f44f 6000 	mov.w	r0, #2048	; 0x800
 800890e:	f7ff bb86 	b.w	800801e <HAL_UART_Init+0x136>
 8008912:	f44f 6380 	mov.w	r3, #1024	; 0x400
 8008916:	e4ab      	b.n	8008270 <HAL_UART_Init+0x388>
 8008918:	4b56      	ldr	r3, [pc, #344]	; (8008a74 <HAL_UART_Init+0xb8c>)
 800891a:	e5ec      	b.n	80084f6 <HAL_UART_Init+0x60e>
 800891c:	0900      	lsrs	r0, r0, #4
 800891e:	e5a6      	b.n	800846e <HAL_UART_Init+0x586>
 8008920:	f241 5354 	movw	r3, #5460	; 0x1554
 8008924:	e5e7      	b.n	80084f6 <HAL_UART_Init+0x60e>
 8008926:	0940      	lsrs	r0, r0, #5
 8008928:	e572      	b.n	8008410 <HAL_UART_Init+0x528>
 800892a:	4b53      	ldr	r3, [pc, #332]	; (8008a78 <HAL_UART_Init+0xb90>)
 800892c:	e5e3      	b.n	80084f6 <HAL_UART_Init+0x60e>
 800892e:	a64c      	add	r6, pc, #304	; (adr r6, 8008a60 <HAL_UART_Init+0xb78>)
 8008930:	e9d6 5600 	ldrd	r5, r6, [r6]
 8008934:	e63e      	b.n	80085b4 <HAL_UART_Init+0x6cc>
 8008936:	09c0      	lsrs	r0, r0, #7
 8008938:	e507      	b.n	800834a <HAL_UART_Init+0x462>
 800893a:	0980      	lsrs	r0, r0, #6
 800893c:	e505      	b.n	800834a <HAL_UART_Init+0x462>
 800893e:	0940      	lsrs	r0, r0, #5
 8008940:	e595      	b.n	800846e <HAL_UART_Init+0x586>
 8008942:	f44f 5380 	mov.w	r3, #4096	; 0x1000
 8008946:	e5d6      	b.n	80084f6 <HAL_UART_Init+0x60e>
 8008948:	4d4c      	ldr	r5, [pc, #304]	; (8008a7c <HAL_UART_Init+0xb94>)
 800894a:	2600      	movs	r6, #0
 800894c:	e632      	b.n	80085b4 <HAL_UART_Init+0x6cc>
 800894e:	2302      	movs	r3, #2
 8008950:	484b      	ldr	r0, [pc, #300]	; (8008a80 <HAL_UART_Init+0xb98>)
 8008952:	f7ff bb64 	b.w	800801e <HAL_UART_Init+0x136>
 8008956:	462b      	mov	r3, r5
 8008958:	f44f 6080 	mov.w	r0, #1024	; 0x400
 800895c:	f7ff bb5f 	b.w	800801e <HAL_UART_Init+0x136>
 8008960:	2302      	movs	r3, #2
 8008962:	4848      	ldr	r0, [pc, #288]	; (8008a84 <HAL_UART_Init+0xb9c>)
 8008964:	f7ff bb5b 	b.w	800801e <HAL_UART_Init+0x136>
 8008968:	2308      	movs	r3, #8
 800896a:	f44f 7000 	mov.w	r0, #512	; 0x200
 800896e:	f7ff bb56 	b.w	800801e <HAL_UART_Init+0x136>
 8008972:	f44f 6300 	mov.w	r3, #2048	; 0x800
 8008976:	e5be      	b.n	80084f6 <HAL_UART_Init+0x60e>
 8008978:	4b3d      	ldr	r3, [pc, #244]	; (8008a70 <HAL_UART_Init+0xb88>)
 800897a:	e5bc      	b.n	80084f6 <HAL_UART_Init+0x60e>
 800897c:	4d42      	ldr	r5, [pc, #264]	; (8008a88 <HAL_UART_Init+0xba0>)
 800897e:	2600      	movs	r6, #0
 8008980:	e618      	b.n	80085b4 <HAL_UART_Init+0x6cc>
 8008982:	f44f 1580 	mov.w	r5, #1048576	; 0x100000
 8008986:	2600      	movs	r6, #0
 8008988:	e614      	b.n	80085b4 <HAL_UART_Init+0x6cc>
 800898a:	0980      	lsrs	r0, r0, #6
 800898c:	e540      	b.n	8008410 <HAL_UART_Init+0x528>
 800898e:	0980      	lsrs	r0, r0, #6
 8008990:	e56d      	b.n	800846e <HAL_UART_Init+0x586>
 8008992:	0900      	lsrs	r0, r0, #4
 8008994:	2100      	movs	r1, #0
 8008996:	e670      	b.n	800867a <HAL_UART_Init+0x792>
 8008998:	220c      	movs	r2, #12
 800899a:	2300      	movs	r3, #0
 800899c:	f7f7 fc3c 	bl	8000218 <__aeabi_uldivmod>
 80089a0:	e66b      	b.n	800867a <HAL_UART_Init+0x792>
 80089a2:	220a      	movs	r2, #10
 80089a4:	2300      	movs	r3, #0
 80089a6:	f7f7 fc37 	bl	8000218 <__aeabi_uldivmod>
 80089aa:	e666      	b.n	800867a <HAL_UART_Init+0x792>
 80089ac:	4b37      	ldr	r3, [pc, #220]	; (8008a8c <HAL_UART_Init+0xba4>)
 80089ae:	e45f      	b.n	8008270 <HAL_UART_Init+0x388>
 80089b0:	4b34      	ldr	r3, [pc, #208]	; (8008a84 <HAL_UART_Init+0xb9c>)
 80089b2:	e45d      	b.n	8008270 <HAL_UART_Init+0x388>
 80089b4:	f44f 7380 	mov.w	r3, #256	; 0x100
 80089b8:	e45a      	b.n	8008270 <HAL_UART_Init+0x388>
 80089ba:	f44f 7300 	mov.w	r3, #512	; 0x200
 80089be:	e457      	b.n	8008270 <HAL_UART_Init+0x388>
 80089c0:	f44f 2500 	mov.w	r5, #524288	; 0x80000
 80089c4:	2600      	movs	r6, #0
 80089c6:	e5f5      	b.n	80085b4 <HAL_UART_Init+0x6cc>
 80089c8:	4d31      	ldr	r5, [pc, #196]	; (8008a90 <HAL_UART_Init+0xba8>)
 80089ca:	2600      	movs	r6, #0
 80089cc:	e5f2      	b.n	80085b4 <HAL_UART_Init+0x6cc>
 80089ce:	4d31      	ldr	r5, [pc, #196]	; (8008a94 <HAL_UART_Init+0xbac>)
 80089d0:	2600      	movs	r6, #0
 80089d2:	e5ef      	b.n	80085b4 <HAL_UART_Init+0x6cc>
 80089d4:	4d30      	ldr	r5, [pc, #192]	; (8008a98 <HAL_UART_Init+0xbb0>)
 80089d6:	2600      	movs	r6, #0
 80089d8:	e5ec      	b.n	80085b4 <HAL_UART_Init+0x6cc>
 80089da:	a623      	add	r6, pc, #140	; (adr r6, 8008a68 <HAL_UART_Init+0xb80>)
 80089dc:	e9d6 5600 	ldrd	r5, r6, [r6]
 80089e0:	e5e8      	b.n	80085b4 <HAL_UART_Init+0x6cc>
 80089e2:	4d2e      	ldr	r5, [pc, #184]	; (8008a9c <HAL_UART_Init+0xbb4>)
 80089e4:	2600      	movs	r6, #0
 80089e6:	e5e5      	b.n	80085b4 <HAL_UART_Init+0x6cc>
 80089e8:	09c0      	lsrs	r0, r0, #7
 80089ea:	e511      	b.n	8008410 <HAL_UART_Init+0x528>
 80089ec:	09c0      	lsrs	r0, r0, #7
 80089ee:	e53e      	b.n	800846e <HAL_UART_Init+0x586>
 80089f0:	2308      	movs	r3, #8
 80089f2:	f44f 7080 	mov.w	r0, #256	; 0x100
 80089f6:	f7ff bb12 	b.w	800801e <HAL_UART_Init+0x136>
 80089fa:	2302      	movs	r3, #2
 80089fc:	4823      	ldr	r0, [pc, #140]	; (8008a8c <HAL_UART_Init+0xba4>)
 80089fe:	f7ff bb0e 	b.w	800801e <HAL_UART_Init+0x136>
 8008a02:	f44f 6380 	mov.w	r3, #1024	; 0x400
 8008a06:	e576      	b.n	80084f6 <HAL_UART_Init+0x60e>
 8008a08:	4b1d      	ldr	r3, [pc, #116]	; (8008a80 <HAL_UART_Init+0xb98>)
 8008a0a:	e574      	b.n	80084f6 <HAL_UART_Init+0x60e>
 8008a0c:	4b1d      	ldr	r3, [pc, #116]	; (8008a84 <HAL_UART_Init+0xb9c>)
 8008a0e:	e572      	b.n	80084f6 <HAL_UART_Init+0x60e>
 8008a10:	f44f 7300 	mov.w	r3, #512	; 0x200
 8008a14:	e56f      	b.n	80084f6 <HAL_UART_Init+0x60e>
 8008a16:	4d22      	ldr	r5, [pc, #136]	; (8008aa0 <HAL_UART_Init+0xbb8>)
 8008a18:	2600      	movs	r6, #0
 8008a1a:	e5cb      	b.n	80085b4 <HAL_UART_Init+0x6cc>
 8008a1c:	0940      	lsrs	r0, r0, #5
 8008a1e:	2100      	movs	r1, #0
 8008a20:	e62b      	b.n	800867a <HAL_UART_Init+0x792>
 8008a22:	f44f 2580 	mov.w	r5, #262144	; 0x40000
 8008a26:	2600      	movs	r6, #0
 8008a28:	e5c4      	b.n	80085b4 <HAL_UART_Init+0x6cc>
 8008a2a:	4d1e      	ldr	r5, [pc, #120]	; (8008aa4 <HAL_UART_Init+0xbbc>)
 8008a2c:	2600      	movs	r6, #0
 8008a2e:	e5c1      	b.n	80085b4 <HAL_UART_Init+0x6cc>
 8008a30:	f44f 4500 	mov.w	r5, #32768	; 0x8000
 8008a34:	2600      	movs	r6, #0
 8008a36:	e5bd      	b.n	80085b4 <HAL_UART_Init+0x6cc>
 8008a38:	f44f 3580 	mov.w	r5, #65536	; 0x10000
 8008a3c:	2600      	movs	r6, #0
 8008a3e:	e5b9      	b.n	80085b4 <HAL_UART_Init+0x6cc>
 8008a40:	f44f 3500 	mov.w	r5, #131072	; 0x20000
 8008a44:	2600      	movs	r6, #0
 8008a46:	e5b5      	b.n	80085b4 <HAL_UART_Init+0x6cc>
 8008a48:	4d17      	ldr	r5, [pc, #92]	; (8008aa8 <HAL_UART_Init+0xbc0>)
 8008a4a:	2600      	movs	r6, #0
 8008a4c:	e5b2      	b.n	80085b4 <HAL_UART_Init+0x6cc>
 8008a4e:	4d17      	ldr	r5, [pc, #92]	; (8008aac <HAL_UART_Init+0xbc4>)
 8008a50:	2600      	movs	r6, #0
 8008a52:	e5af      	b.n	80085b4 <HAL_UART_Init+0x6cc>
 8008a54:	09c0      	lsrs	r0, r0, #7
 8008a56:	2100      	movs	r1, #0
 8008a58:	e60f      	b.n	800867a <HAL_UART_Init+0x792>
 8008a5a:	0980      	lsrs	r0, r0, #6
 8008a5c:	2100      	movs	r1, #0
 8008a5e:	e60c      	b.n	800867a <HAL_UART_Init+0x792>
 8008a60:	28b0aa00 	.word	0x28b0aa00
 8008a64:	00000000 	.word	0x00000000
 8008a68:	14585500 	.word	0x14585500
 8008a6c:	00000000 	.word	0x00000000
 8008a70:	000f4240 	.word	0x000f4240
 8008a74:	0028b0aa 	.word	0x0028b0aa
 8008a78:	001e8480 	.word	0x001e8480
 8008a7c:	00155500 	.word	0x00155500
 8008a80:	0007a120 	.word	0x0007a120
 8008a84:	0003d090 	.word	0x0003d090
 8008a88:	1e848000 	.word	0x1e848000
 8008a8c:	0001e848 	.word	0x0001e848
 8008a90:	000aaa00 	.word	0x000aaa00
 8008a94:	000ccc00 	.word	0x000ccc00
 8008a98:	0f424000 	.word	0x0f424000
 8008a9c:	186a0000 	.word	0x186a0000
 8008aa0:	07a12000 	.word	0x07a12000
 8008aa4:	00f42400 	.word	0x00f42400
 8008aa8:	01e84800 	.word	0x01e84800
 8008aac:	03d09000 	.word	0x03d09000

08008ab0 <HAL_UARTEx_DisableFifoMode>:
 8008ab0:	f890 207c 	ldrb.w	r2, [r0, #124]	; 0x7c
 8008ab4:	2a01      	cmp	r2, #1
 8008ab6:	d017      	beq.n	8008ae8 <HAL_UARTEx_DisableFifoMode+0x38>
 8008ab8:	b430      	push	{r4, r5}
 8008aba:	6802      	ldr	r2, [r0, #0]
 8008abc:	2124      	movs	r1, #36	; 0x24
 8008abe:	f8c0 1080 	str.w	r1, [r0, #128]	; 0x80
 8008ac2:	4603      	mov	r3, r0
 8008ac4:	6810      	ldr	r0, [r2, #0]
 8008ac6:	6814      	ldr	r4, [r2, #0]
 8008ac8:	2100      	movs	r1, #0
 8008aca:	f020 5000 	bic.w	r0, r0, #536870912	; 0x20000000
 8008ace:	f024 0401 	bic.w	r4, r4, #1
 8008ad2:	2520      	movs	r5, #32
 8008ad4:	6014      	str	r4, [r2, #0]
 8008ad6:	6659      	str	r1, [r3, #100]	; 0x64
 8008ad8:	6010      	str	r0, [r2, #0]
 8008ada:	4608      	mov	r0, r1
 8008adc:	f8c3 5080 	str.w	r5, [r3, #128]	; 0x80
 8008ae0:	f883 107c 	strb.w	r1, [r3, #124]	; 0x7c
 8008ae4:	bc30      	pop	{r4, r5}
 8008ae6:	4770      	bx	lr
 8008ae8:	2002      	movs	r0, #2
 8008aea:	4770      	bx	lr

08008aec <HAL_UARTEx_SetTxFifoThreshold>:
 8008aec:	f890 207c 	ldrb.w	r2, [r0, #124]	; 0x7c
 8008af0:	2a01      	cmp	r2, #1
 8008af2:	d049      	beq.n	8008b88 <HAL_UARTEx_SetTxFifoThreshold+0x9c>
 8008af4:	4603      	mov	r3, r0
 8008af6:	2024      	movs	r0, #36	; 0x24
 8008af8:	681a      	ldr	r2, [r3, #0]
 8008afa:	b4f0      	push	{r4, r5, r6, r7}
 8008afc:	f8c3 0080 	str.w	r0, [r3, #128]	; 0x80
 8008b00:	6814      	ldr	r4, [r2, #0]
 8008b02:	6810      	ldr	r0, [r2, #0]
 8008b04:	6e5d      	ldr	r5, [r3, #100]	; 0x64
 8008b06:	f020 0001 	bic.w	r0, r0, #1
 8008b0a:	6010      	str	r0, [r2, #0]
 8008b0c:	6890      	ldr	r0, [r2, #8]
 8008b0e:	f020 4060 	bic.w	r0, r0, #3758096384	; 0xe0000000
 8008b12:	b084      	sub	sp, #16
 8008b14:	4301      	orrs	r1, r0
 8008b16:	481d      	ldr	r0, [pc, #116]	; (8008b8c <HAL_UARTEx_SetTxFifoThreshold+0xa0>)
 8008b18:	6091      	str	r1, [r2, #8]
 8008b1a:	f240 1107 	movw	r1, #263	; 0x107
 8008b1e:	9000      	str	r0, [sp, #0]
 8008b20:	9101      	str	r1, [sp, #4]
 8008b22:	f100 3001 	add.w	r0, r0, #16843009	; 0x1010101
 8008b26:	f101 7180 	add.w	r1, r1, #16777216	; 0x1000000
 8008b2a:	f200 2006 	addw	r0, r0, #518	; 0x206
 8008b2e:	f101 1101 	add.w	r1, r1, #65537	; 0x10001
 8008b32:	e9cd 0102 	strd	r0, r1, [sp, #8]
 8008b36:	b325      	cbz	r5, 8008b82 <HAL_UARTEx_SetTxFifoThreshold+0x96>
 8008b38:	6895      	ldr	r5, [r2, #8]
 8008b3a:	6896      	ldr	r6, [r2, #8]
 8008b3c:	a904      	add	r1, sp, #16
 8008b3e:	f3c5 6542 	ubfx	r5, r5, #25, #3
 8008b42:	440d      	add	r5, r1
 8008b44:	eb01 7656 	add.w	r6, r1, r6, lsr #29
 8008b48:	f815 1c10 	ldrb.w	r1, [r5, #-16]
 8008b4c:	f816 0c10 	ldrb.w	r0, [r6, #-16]
 8008b50:	f815 7c08 	ldrb.w	r7, [r5, #-8]
 8008b54:	f816 5c08 	ldrb.w	r5, [r6, #-8]
 8008b58:	00c9      	lsls	r1, r1, #3
 8008b5a:	00c0      	lsls	r0, r0, #3
 8008b5c:	fb91 f1f7 	sdiv	r1, r1, r7
 8008b60:	fb90 f0f5 	sdiv	r0, r0, r5
 8008b64:	f8a3 1068 	strh.w	r1, [r3, #104]	; 0x68
 8008b68:	2100      	movs	r1, #0
 8008b6a:	f8a3 006a 	strh.w	r0, [r3, #106]	; 0x6a
 8008b6e:	2520      	movs	r5, #32
 8008b70:	4608      	mov	r0, r1
 8008b72:	6014      	str	r4, [r2, #0]
 8008b74:	f8c3 5080 	str.w	r5, [r3, #128]	; 0x80
 8008b78:	f883 107c 	strb.w	r1, [r3, #124]	; 0x7c
 8008b7c:	b004      	add	sp, #16
 8008b7e:	bcf0      	pop	{r4, r5, r6, r7}
 8008b80:	4770      	bx	lr
 8008b82:	2101      	movs	r1, #1
 8008b84:	4608      	mov	r0, r1
 8008b86:	e7ed      	b.n	8008b64 <HAL_UARTEx_SetTxFifoThreshold+0x78>
 8008b88:	2002      	movs	r0, #2
 8008b8a:	4770      	bx	lr
 8008b8c:	03010101 	.word	0x03010101

08008b90 <HAL_UARTEx_SetRxFifoThreshold>:
 8008b90:	f890 207c 	ldrb.w	r2, [r0, #124]	; 0x7c
 8008b94:	2a01      	cmp	r2, #1
 8008b96:	d049      	beq.n	8008c2c <HAL_UARTEx_SetRxFifoThreshold+0x9c>
 8008b98:	4603      	mov	r3, r0
 8008b9a:	2024      	movs	r0, #36	; 0x24
 8008b9c:	681a      	ldr	r2, [r3, #0]
 8008b9e:	b4f0      	push	{r4, r5, r6, r7}
 8008ba0:	f8c3 0080 	str.w	r0, [r3, #128]	; 0x80
 8008ba4:	6814      	ldr	r4, [r2, #0]
 8008ba6:	6810      	ldr	r0, [r2, #0]
 8008ba8:	6e5d      	ldr	r5, [r3, #100]	; 0x64
 8008baa:	f020 0001 	bic.w	r0, r0, #1
 8008bae:	6010      	str	r0, [r2, #0]
 8008bb0:	6890      	ldr	r0, [r2, #8]
 8008bb2:	f020 6060 	bic.w	r0, r0, #234881024	; 0xe000000
 8008bb6:	b084      	sub	sp, #16
 8008bb8:	4301      	orrs	r1, r0
 8008bba:	481d      	ldr	r0, [pc, #116]	; (8008c30 <HAL_UARTEx_SetRxFifoThreshold+0xa0>)
 8008bbc:	6091      	str	r1, [r2, #8]
 8008bbe:	f240 1107 	movw	r1, #263	; 0x107
 8008bc2:	9000      	str	r0, [sp, #0]
 8008bc4:	9101      	str	r1, [sp, #4]
 8008bc6:	f100 3001 	add.w	r0, r0, #16843009	; 0x1010101
 8008bca:	f101 7180 	add.w	r1, r1, #16777216	; 0x1000000
 8008bce:	f200 2006 	addw	r0, r0, #518	; 0x206
 8008bd2:	f101 1101 	add.w	r1, r1, #65537	; 0x10001
 8008bd6:	e9cd 0102 	strd	r0, r1, [sp, #8]
 8008bda:	b325      	cbz	r5, 8008c26 <HAL_UARTEx_SetRxFifoThreshold+0x96>
 8008bdc:	6895      	ldr	r5, [r2, #8]
 8008bde:	6896      	ldr	r6, [r2, #8]
 8008be0:	a904      	add	r1, sp, #16
 8008be2:	f3c5 6542 	ubfx	r5, r5, #25, #3
 8008be6:	440d      	add	r5, r1
 8008be8:	eb01 7656 	add.w	r6, r1, r6, lsr #29
 8008bec:	f815 1c10 	ldrb.w	r1, [r5, #-16]
 8008bf0:	f816 0c10 	ldrb.w	r0, [r6, #-16]
 8008bf4:	f815 7c08 	ldrb.w	r7, [r5, #-8]
 8008bf8:	f816 5c08 	ldrb.w	r5, [r6, #-8]
 8008bfc:	00c9      	lsls	r1, r1, #3
 8008bfe:	00c0      	lsls	r0, r0, #3
 8008c00:	fb91 f1f7 	sdiv	r1, r1, r7
 8008c04:	fb90 f0f5 	sdiv	r0, r0, r5
 8008c08:	f8a3 1068 	strh.w	r1, [r3, #104]	; 0x68
 8008c0c:	2100      	movs	r1, #0
 8008c0e:	f8a3 006a 	strh.w	r0, [r3, #106]	; 0x6a
 8008c12:	2520      	movs	r5, #32
 8008c14:	4608      	mov	r0, r1
 8008c16:	6014      	str	r4, [r2, #0]
 8008c18:	f8c3 5080 	str.w	r5, [r3, #128]	; 0x80
 8008c1c:	f883 107c 	strb.w	r1, [r3, #124]	; 0x7c
 8008c20:	b004      	add	sp, #16
 8008c22:	bcf0      	pop	{r4, r5, r6, r7}
 8008c24:	4770      	bx	lr
 8008c26:	2101      	movs	r1, #1
 8008c28:	4608      	mov	r0, r1
 8008c2a:	e7ed      	b.n	8008c08 <HAL_UARTEx_SetRxFifoThreshold+0x78>
 8008c2c:	2002      	movs	r0, #2
 8008c2e:	4770      	bx	lr
 8008c30:	03010101 	.word	0x03010101

08008c34 <VBS_GetAvBusVoltage_V>:
 8008c34:	88c3      	ldrh	r3, [r0, #6]
 8008c36:	8840      	ldrh	r0, [r0, #2]
 8008c38:	fb03 f000 	mul.w	r0, r3, r0
 8008c3c:	0c00      	lsrs	r0, r0, #16
 8008c3e:	4770      	bx	lr

08008c40 <Circle_Limitation>:
 8008c40:	b410      	push	{r4}
 8008c42:	140b      	asrs	r3, r1, #16
 8008c44:	8802      	ldrh	r2, [r0, #0]
 8008c46:	b209      	sxth	r1, r1
 8008c48:	fb03 f403 	mul.w	r4, r3, r3
 8008c4c:	fb02 f202 	mul.w	r2, r2, r2
 8008c50:	fb01 4401 	mla	r4, r1, r1, r4
 8008c54:	42a2      	cmp	r2, r4
 8008c56:	b085      	sub	sp, #20
 8008c58:	d219      	bcs.n	8008c8e <Circle_Limitation+0x4e>
 8008c5a:	f890 20b2 	ldrb.w	r2, [r0, #178]	; 0xb2
 8008c5e:	ebc2 6414 	rsb	r4, r2, r4, lsr #24
 8008c62:	b2e4      	uxtb	r4, r4
 8008c64:	eb00 0044 	add.w	r0, r0, r4, lsl #1
 8008c68:	8882      	ldrh	r2, [r0, #4]
 8008c6a:	fb02 f101 	mul.w	r1, r2, r1
 8008c6e:	2900      	cmp	r1, #0
 8008c70:	fb02 f303 	mul.w	r3, r2, r3
 8008c74:	bfbc      	itt	lt
 8008c76:	f501 41ff 	addlt.w	r1, r1, #32640	; 0x7f80
 8008c7a:	317f      	addlt	r1, #127	; 0x7f
 8008c7c:	2b00      	cmp	r3, #0
 8008c7e:	bfbc      	itt	lt
 8008c80:	f503 43ff 	addlt.w	r3, r3, #32640	; 0x7f80
 8008c84:	337f      	addlt	r3, #127	; 0x7f
 8008c86:	f341 31cf 	sbfx	r1, r1, #15, #16
 8008c8a:	f343 33cf 	sbfx	r3, r3, #15, #16
 8008c8e:	b289      	uxth	r1, r1
 8008c90:	2000      	movs	r0, #0
 8008c92:	b29b      	uxth	r3, r3
 8008c94:	f361 000f 	bfi	r0, r1, #0, #16
 8008c98:	f363 401f 	bfi	r0, r3, #16, #16
 8008c9c:	b005      	add	sp, #20
 8008c9e:	f85d 4b04 	ldr.w	r4, [sp], #4
 8008ca2:	4770      	bx	lr

08008ca4 <DAC_SetChannelConfig>:
 8008ca4:	4401      	add	r1, r0
 8008ca6:	f881 2030 	strb.w	r2, [r1, #48]	; 0x30
 8008caa:	4770      	bx	lr

08008cac <DAC_GetChannelConfig>:
 8008cac:	4401      	add	r1, r0
 8008cae:	f891 0030 	ldrb.w	r0, [r1, #48]	; 0x30
 8008cb2:	4770      	bx	lr

08008cb4 <DAC_SetUserChannelValue>:
 8008cb4:	eb00 0141 	add.w	r1, r0, r1, lsl #1
 8008cb8:	864a      	strh	r2, [r1, #50]	; 0x32
 8008cba:	4770      	bx	lr

08008cbc <DAC_GetUserChannelValue>:
 8008cbc:	eb00 0141 	add.w	r1, r0, r1, lsl #1
 8008cc0:	f9b1 0032 	ldrsh.w	r0, [r1, #50]	; 0x32
 8008cc4:	4770      	bx	lr
 8008cc6:	bf00      	nop

08008cc8 <EAC_Init>:
 8008cc8:	b410      	push	{r4}
 8008cca:	2400      	movs	r4, #0
 8008ccc:	7384      	strb	r4, [r0, #14]
 8008cce:	73c4      	strb	r4, [r0, #15]
 8008cd0:	e9c0 1200 	strd	r1, r2, [r0]
 8008cd4:	6083      	str	r3, [r0, #8]
 8008cd6:	f85d 4b04 	ldr.w	r4, [sp], #4
 8008cda:	4770      	bx	lr

08008cdc <EAC_StartAlignment>:
 8008cdc:	b510      	push	{r4, lr}
 8008cde:	2200      	movs	r2, #0
 8008ce0:	4604      	mov	r4, r0
 8008ce2:	4611      	mov	r1, r2
 8008ce4:	6840      	ldr	r0, [r0, #4]
 8008ce6:	f001 ff75 	bl	800abd4 <VSS_SetMecAcceleration>
 8008cea:	f9b4 1014 	ldrsh.w	r1, [r4, #20]
 8008cee:	6860      	ldr	r0, [r4, #4]
 8008cf0:	f001 ff68 	bl	800abc4 <VSS_SetMecAngle>
 8008cf4:	6820      	ldr	r0, [r4, #0]
 8008cf6:	2100      	movs	r1, #0
 8008cf8:	f001 fcba 	bl	800a670 <STC_SetControlMode>
 8008cfc:	2200      	movs	r2, #0
 8008cfe:	4611      	mov	r1, r2
 8008d00:	6820      	ldr	r0, [r4, #0]
 8008d02:	f001 fcb9 	bl	800a678 <STC_ExecRamp>
 8008d06:	8ae2      	ldrh	r2, [r4, #22]
 8008d08:	f9b4 1012 	ldrsh.w	r1, [r4, #18]
 8008d0c:	6820      	ldr	r0, [r4, #0]
 8008d0e:	f001 fcb3 	bl	800a678 <STC_ExecRamp>
 8008d12:	8ae1      	ldrh	r1, [r4, #22]
 8008d14:	8a23      	ldrh	r3, [r4, #16]
 8008d16:	4a04      	ldr	r2, [pc, #16]	; (8008d28 <EAC_StartAlignment+0x4c>)
 8008d18:	fb03 f301 	mul.w	r3, r3, r1
 8008d1c:	fba2 2303 	umull	r2, r3, r2, r3
 8008d20:	099b      	lsrs	r3, r3, #6
 8008d22:	3301      	adds	r3, #1
 8008d24:	81a3      	strh	r3, [r4, #12]
 8008d26:	bd10      	pop	{r4, pc}
 8008d28:	10624dd3 	.word	0x10624dd3

08008d2c <EAC_Exec>:
 8008d2c:	8983      	ldrh	r3, [r0, #12]
 8008d2e:	b12b      	cbz	r3, 8008d3c <EAC_Exec+0x10>
 8008d30:	3b01      	subs	r3, #1
 8008d32:	b29b      	uxth	r3, r3
 8008d34:	8183      	strh	r3, [r0, #12]
 8008d36:	b11b      	cbz	r3, 8008d40 <EAC_Exec+0x14>
 8008d38:	2000      	movs	r0, #0
 8008d3a:	4770      	bx	lr
 8008d3c:	2001      	movs	r0, #1
 8008d3e:	4770      	bx	lr
 8008d40:	b510      	push	{r4, lr}
 8008d42:	f9b0 1014 	ldrsh.w	r1, [r0, #20]
 8008d46:	7e03      	ldrb	r3, [r0, #24]
 8008d48:	fb91 f1f3 	sdiv	r1, r1, r3
 8008d4c:	4604      	mov	r4, r0
 8008d4e:	6880      	ldr	r0, [r0, #8]
 8008d50:	f000 f944 	bl	8008fdc <ENC_SetMecAngle>
 8008d54:	2001      	movs	r0, #1
 8008d56:	73a0      	strb	r0, [r4, #14]
 8008d58:	bd10      	pop	{r4, pc}
 8008d5a:	bf00      	nop

08008d5c <EAC_IsAligned>:
 8008d5c:	7b80      	ldrb	r0, [r0, #14]
 8008d5e:	4770      	bx	lr

08008d60 <EAC_SetRestartState>:
 8008d60:	73c1      	strb	r1, [r0, #15]
 8008d62:	4770      	bx	lr

08008d64 <EAC_GetRestartState>:
 8008d64:	7bc0      	ldrb	r0, [r0, #15]
 8008d66:	4770      	bx	lr

08008d68 <ENC_Init>:
 8008d68:	6a03      	ldr	r3, [r0, #32]
 8008d6a:	f8b0 206c 	ldrh.w	r2, [r0, #108]	; 0x6c
 8008d6e:	b470      	push	{r4, r5, r6}
 8008d70:	681d      	ldr	r5, [r3, #0]
 8008d72:	f8b0 606e 	ldrh.w	r6, [r0, #110]	; 0x6e
 8008d76:	eb02 0282 	add.w	r2, r2, r2, lsl #2
 8008d7a:	0052      	lsls	r2, r2, #1
 8008d7c:	2100      	movs	r1, #0
 8008d7e:	f445 6500 	orr.w	r5, r5, #2048	; 0x800
 8008d82:	601d      	str	r5, [r3, #0]
 8008d84:	f04f 34ff 	mov.w	r4, #4294967295
 8008d88:	6259      	str	r1, [r3, #36]	; 0x24
 8008d8a:	fbb4 f4f6 	udiv	r4, r4, r6
 8008d8e:	6242      	str	r2, [r0, #36]	; 0x24
 8008d90:	6684      	str	r4, [r0, #104]	; 0x68
 8008d92:	699a      	ldr	r2, [r3, #24]
 8008d94:	f890 4077 	ldrb.w	r4, [r0, #119]	; 0x77
 8008d98:	f022 02f0 	bic.w	r2, r2, #240	; 0xf0
 8008d9c:	ea42 1204 	orr.w	r2, r2, r4, lsl #4
 8008da0:	619a      	str	r2, [r3, #24]
 8008da2:	699a      	ldr	r2, [r3, #24]
 8008da4:	f890 4077 	ldrb.w	r4, [r0, #119]	; 0x77
 8008da8:	f422 4270 	bic.w	r2, r2, #61440	; 0xf000
 8008dac:	ea42 3204 	orr.w	r2, r2, r4, lsl #12
 8008db0:	f06f 0401 	mvn.w	r4, #1
 8008db4:	619a      	str	r2, [r3, #24]
 8008db6:	611c      	str	r4, [r3, #16]
 8008db8:	68da      	ldr	r2, [r3, #12]
 8008dba:	f042 0201 	orr.w	r2, r2, #1
 8008dbe:	60da      	str	r2, [r3, #12]
 8008dc0:	681a      	ldr	r2, [r3, #0]
 8008dc2:	f042 0201 	orr.w	r2, r2, #1
 8008dc6:	601a      	str	r2, [r3, #0]
 8008dc8:	f890 2075 	ldrb.w	r2, [r0, #117]	; 0x75
 8008dcc:	b13a      	cbz	r2, 8008dde <ENC_Init+0x76>
 8008dce:	3a01      	subs	r2, #1
 8008dd0:	b2d2      	uxtb	r2, r2
 8008dd2:	3201      	adds	r2, #1
 8008dd4:	0092      	lsls	r2, r2, #2
 8008dd6:	3028      	adds	r0, #40	; 0x28
 8008dd8:	bc70      	pop	{r4, r5, r6}
 8008dda:	f001 bf81 	b.w	800ace0 <memset>
 8008dde:	bc70      	pop	{r4, r5, r6}
 8008de0:	4770      	bx	lr
 8008de2:	bf00      	nop

08008de4 <ENC_Clear>:
 8008de4:	b510      	push	{r4, lr}
 8008de6:	f890 2075 	ldrb.w	r2, [r0, #117]	; 0x75
 8008dea:	4604      	mov	r4, r0
 8008dec:	b13a      	cbz	r2, 8008dfe <ENC_Clear+0x1a>
 8008dee:	3a01      	subs	r2, #1
 8008df0:	b2d2      	uxtb	r2, r2
 8008df2:	3201      	adds	r2, #1
 8008df4:	0092      	lsls	r2, r2, #2
 8008df6:	2100      	movs	r1, #0
 8008df8:	3028      	adds	r0, #40	; 0x28
 8008dfa:	f001 ff71 	bl	800ace0 <memset>
 8008dfe:	2301      	movs	r3, #1
 8008e00:	f884 3076 	strb.w	r3, [r4, #118]	; 0x76
 8008e04:	bd10      	pop	{r4, pc}
 8008e06:	bf00      	nop

08008e08 <ENC_CalcAngle>:
 8008e08:	6a01      	ldr	r1, [r0, #32]
 8008e0a:	6e83      	ldr	r3, [r0, #104]	; 0x68
 8008e0c:	6a49      	ldr	r1, [r1, #36]	; 0x24
 8008e0e:	b410      	push	{r4}
 8008e10:	b289      	uxth	r1, r1
 8008e12:	fb03 f301 	mul.w	r3, r3, r1
 8008e16:	2b00      	cmp	r3, #0
 8008e18:	4602      	mov	r2, r0
 8008e1a:	bfbc      	itt	lt
 8008e1c:	f64f 70ff 	movwlt	r0, #65535	; 0xffff
 8008e20:	181b      	addlt	r3, r3, r0
 8008e22:	141b      	asrs	r3, r3, #16
 8008e24:	f9b2 1006 	ldrsh.w	r1, [r2, #6]
 8008e28:	7850      	ldrb	r0, [r2, #1]
 8008e2a:	6894      	ldr	r4, [r2, #8]
 8008e2c:	80d3      	strh	r3, [r2, #6]
 8008e2e:	b29b      	uxth	r3, r3
 8008e30:	1a59      	subs	r1, r3, r1
 8008e32:	fb10 f303 	smulbb	r3, r0, r3
 8008e36:	fa04 f181 	sxtah	r1, r4, r1
 8008e3a:	b218      	sxth	r0, r3
 8008e3c:	6091      	str	r1, [r2, #8]
 8008e3e:	8090      	strh	r0, [r2, #4]
 8008e40:	f85d 4b04 	ldr.w	r4, [sp], #4
 8008e44:	4770      	bx	lr
 8008e46:	bf00      	nop

08008e48 <ENC_CalcAvrgMecSpeedUnit>:
 8008e48:	b4f0      	push	{r4, r5, r6, r7}
 8008e4a:	6a02      	ldr	r2, [r0, #32]
 8008e4c:	f890 7075 	ldrb.w	r7, [r0, #117]	; 0x75
 8008e50:	68d3      	ldr	r3, [r2, #12]
 8008e52:	f023 0301 	bic.w	r3, r3, #1
 8008e56:	60d3      	str	r3, [r2, #12]
 8008e58:	6a54      	ldr	r4, [r2, #36]	; 0x24
 8008e5a:	f8b0 5070 	ldrh.w	r5, [r0, #112]	; 0x70
 8008e5e:	ea5f 7cd4 	movs.w	ip, r4, lsr #31
 8008e62:	f04f 0600 	mov.w	r6, #0
 8008e66:	f8a0 6070 	strh.w	r6, [r0, #112]	; 0x70
 8008e6a:	bf18      	it	ne
 8008e6c:	f06f 0601 	mvnne.w	r6, #1
 8008e70:	6813      	ldr	r3, [r2, #0]
 8008e72:	bf18      	it	ne
 8008e74:	6116      	strne	r6, [r2, #16]
 8008e76:	68d6      	ldr	r6, [r2, #12]
 8008e78:	b2ad      	uxth	r5, r5
 8008e7a:	f046 0601 	orr.w	r6, r6, #1
 8008e7e:	4465      	add	r5, ip
 8008e80:	60d6      	str	r6, [r2, #12]
 8008e82:	f5b5 6f00 	cmp.w	r5, #2048	; 0x800
 8008e86:	f8b0 2072 	ldrh.w	r2, [r0, #114]	; 0x72
 8008e8a:	f8b0 c06e 	ldrh.w	ip, [r0, #110]	; 0x6e
 8008e8e:	bf98      	it	ls
 8008e90:	f890 6079 	ldrbls.w	r6, [r0, #121]	; 0x79
 8008e94:	f024 4400 	bic.w	r4, r4, #2147483648	; 0x80000000
 8008e98:	bf88      	it	hi
 8008e9a:	2601      	movhi	r6, #1
 8008e9c:	f003 0310 	and.w	r3, r3, #16
 8008ea0:	bf88      	it	hi
 8008ea2:	f880 6079 	strbhi.w	r6, [r0, #121]	; 0x79
 8008ea6:	1aa2      	subs	r2, r4, r2
 8008ea8:	fb0c f505 	mul.w	r5, ip, r5
 8008eac:	2b00      	cmp	r3, #0
 8008eae:	f000 8087 	beq.w	8008fc0 <ENC_CalcAvrgMecSpeedUnit+0x178>
 8008eb2:	f890 3078 	ldrb.w	r3, [r0, #120]	; 0x78
 8008eb6:	330a      	adds	r3, #10
 8008eb8:	1b52      	subs	r2, r2, r5
 8008eba:	f840 2023 	str.w	r2, [r0, r3, lsl #2]
 8008ebe:	2f00      	cmp	r7, #0
 8008ec0:	f000 8087 	beq.w	8008fd2 <ENC_CalcAvrgMecSpeedUnit+0x18a>
 8008ec4:	2f01      	cmp	r7, #1
 8008ec6:	6a83      	ldr	r3, [r0, #40]	; 0x28
 8008ec8:	d939      	bls.n	8008f3e <ENC_CalcAvrgMecSpeedUnit+0xf6>
 8008eca:	6ac2      	ldr	r2, [r0, #44]	; 0x2c
 8008ecc:	2f02      	cmp	r7, #2
 8008ece:	4413      	add	r3, r2
 8008ed0:	d035      	beq.n	8008f3e <ENC_CalcAvrgMecSpeedUnit+0xf6>
 8008ed2:	6b02      	ldr	r2, [r0, #48]	; 0x30
 8008ed4:	2f03      	cmp	r7, #3
 8008ed6:	4413      	add	r3, r2
 8008ed8:	d031      	beq.n	8008f3e <ENC_CalcAvrgMecSpeedUnit+0xf6>
 8008eda:	6b42      	ldr	r2, [r0, #52]	; 0x34
 8008edc:	2f04      	cmp	r7, #4
 8008ede:	4413      	add	r3, r2
 8008ee0:	d02d      	beq.n	8008f3e <ENC_CalcAvrgMecSpeedUnit+0xf6>
 8008ee2:	6b82      	ldr	r2, [r0, #56]	; 0x38
 8008ee4:	2f05      	cmp	r7, #5
 8008ee6:	4413      	add	r3, r2
 8008ee8:	d029      	beq.n	8008f3e <ENC_CalcAvrgMecSpeedUnit+0xf6>
 8008eea:	6bc2      	ldr	r2, [r0, #60]	; 0x3c
 8008eec:	2f06      	cmp	r7, #6
 8008eee:	4413      	add	r3, r2
 8008ef0:	d025      	beq.n	8008f3e <ENC_CalcAvrgMecSpeedUnit+0xf6>
 8008ef2:	6c02      	ldr	r2, [r0, #64]	; 0x40
 8008ef4:	2f07      	cmp	r7, #7
 8008ef6:	4413      	add	r3, r2
 8008ef8:	d021      	beq.n	8008f3e <ENC_CalcAvrgMecSpeedUnit+0xf6>
 8008efa:	6c42      	ldr	r2, [r0, #68]	; 0x44
 8008efc:	2f08      	cmp	r7, #8
 8008efe:	4413      	add	r3, r2
 8008f00:	d01d      	beq.n	8008f3e <ENC_CalcAvrgMecSpeedUnit+0xf6>
 8008f02:	6c82      	ldr	r2, [r0, #72]	; 0x48
 8008f04:	2f09      	cmp	r7, #9
 8008f06:	4413      	add	r3, r2
 8008f08:	d019      	beq.n	8008f3e <ENC_CalcAvrgMecSpeedUnit+0xf6>
 8008f0a:	6cc2      	ldr	r2, [r0, #76]	; 0x4c
 8008f0c:	2f0a      	cmp	r7, #10
 8008f0e:	4413      	add	r3, r2
 8008f10:	d015      	beq.n	8008f3e <ENC_CalcAvrgMecSpeedUnit+0xf6>
 8008f12:	6d02      	ldr	r2, [r0, #80]	; 0x50
 8008f14:	2f0b      	cmp	r7, #11
 8008f16:	4413      	add	r3, r2
 8008f18:	d011      	beq.n	8008f3e <ENC_CalcAvrgMecSpeedUnit+0xf6>
 8008f1a:	6d42      	ldr	r2, [r0, #84]	; 0x54
 8008f1c:	2f0c      	cmp	r7, #12
 8008f1e:	4413      	add	r3, r2
 8008f20:	d00d      	beq.n	8008f3e <ENC_CalcAvrgMecSpeedUnit+0xf6>
 8008f22:	6d82      	ldr	r2, [r0, #88]	; 0x58
 8008f24:	2f0d      	cmp	r7, #13
 8008f26:	4413      	add	r3, r2
 8008f28:	d009      	beq.n	8008f3e <ENC_CalcAvrgMecSpeedUnit+0xf6>
 8008f2a:	6dc2      	ldr	r2, [r0, #92]	; 0x5c
 8008f2c:	2f0e      	cmp	r7, #14
 8008f2e:	4413      	add	r3, r2
 8008f30:	d005      	beq.n	8008f3e <ENC_CalcAvrgMecSpeedUnit+0xf6>
 8008f32:	6e02      	ldr	r2, [r0, #96]	; 0x60
 8008f34:	2f0f      	cmp	r7, #15
 8008f36:	4413      	add	r3, r2
 8008f38:	d001      	beq.n	8008f3e <ENC_CalcAvrgMecSpeedUnit+0xf6>
 8008f3a:	6e42      	ldr	r2, [r0, #100]	; 0x64
 8008f3c:	4413      	add	r3, r2
 8008f3e:	6a42      	ldr	r2, [r0, #36]	; 0x24
 8008f40:	fb0c f707 	mul.w	r7, ip, r7
 8008f44:	fb02 f303 	mul.w	r3, r2, r3
 8008f48:	fb93 f3f7 	sdiv	r3, r3, r7
 8008f4c:	b21f      	sxth	r7, r3
 8008f4e:	800f      	strh	r7, [r1, #0]
 8008f50:	f890 2078 	ldrb.w	r2, [r0, #120]	; 0x78
 8008f54:	f890 5078 	ldrb.w	r5, [r0, #120]	; 0x78
 8008f58:	f8b0 c00c 	ldrh.w	ip, [r0, #12]
 8008f5c:	8187      	strh	r7, [r0, #12]
 8008f5e:	320a      	adds	r2, #10
 8008f60:	3501      	adds	r5, #1
 8008f62:	b2ed      	uxtb	r5, r5
 8008f64:	f850 7022 	ldr.w	r7, [r0, r2, lsl #2]
 8008f68:	f880 5078 	strb.w	r5, [r0, #120]	; 0x78
 8008f6c:	f8b0 506c 	ldrh.w	r5, [r0, #108]	; 0x6c
 8008f70:	f8a0 4072 	strh.w	r4, [r0, #114]	; 0x72
 8008f74:	eba3 030c 	sub.w	r3, r3, ip
 8008f78:	fb07 f505 	mul.w	r5, r7, r5
 8008f7c:	f890 c075 	ldrb.w	ip, [r0, #117]	; 0x75
 8008f80:	f890 7078 	ldrb.w	r7, [r0, #120]	; 0x78
 8008f84:	7844      	ldrb	r4, [r0, #1]
 8008f86:	69c2      	ldr	r2, [r0, #28]
 8008f88:	8243      	strh	r3, [r0, #18]
 8008f8a:	45bc      	cmp	ip, r7
 8008f8c:	fb04 f305 	mul.w	r3, r4, r5
 8008f90:	f8b0 406e 	ldrh.w	r4, [r0, #110]	; 0x6e
 8008f94:	fb93 f3f4 	sdiv	r3, r3, r4
 8008f98:	fb02 f203 	mul.w	r2, r2, r3
 8008f9c:	8b43      	ldrh	r3, [r0, #26]
 8008f9e:	fb92 f2f3 	sdiv	r2, r2, r3
 8008fa2:	bf08      	it	eq
 8008fa4:	2300      	moveq	r3, #0
 8008fa6:	81c2      	strh	r2, [r0, #14]
 8008fa8:	bf08      	it	eq
 8008faa:	f880 3078 	strbeq.w	r3, [r0, #120]	; 0x78
 8008fae:	b196      	cbz	r6, 8008fd6 <ENC_CalcAvrgMecSpeedUnit+0x18e>
 8008fb0:	78c2      	ldrb	r2, [r0, #3]
 8008fb2:	7002      	strb	r2, [r0, #0]
 8008fb4:	2300      	movs	r3, #0
 8008fb6:	f880 3076 	strb.w	r3, [r0, #118]	; 0x76
 8008fba:	bcf0      	pop	{r4, r5, r6, r7}
 8008fbc:	4618      	mov	r0, r3
 8008fbe:	4770      	bx	lr
 8008fc0:	f890 3078 	ldrb.w	r3, [r0, #120]	; 0x78
 8008fc4:	330a      	adds	r3, #10
 8008fc6:	442a      	add	r2, r5
 8008fc8:	f840 2023 	str.w	r2, [r0, r3, lsl #2]
 8008fcc:	2f00      	cmp	r7, #0
 8008fce:	f47f af79 	bne.w	8008ec4 <ENC_CalcAvrgMecSpeedUnit+0x7c>
 8008fd2:	463b      	mov	r3, r7
 8008fd4:	e7b3      	b.n	8008f3e <ENC_CalcAvrgMecSpeedUnit+0xf6>
 8008fd6:	bcf0      	pop	{r4, r5, r6, r7}
 8008fd8:	f001 bae0 	b.w	800a59c <SPD_IsMecSpeedReliable>

08008fdc <ENC_SetMecAngle>:
 8008fdc:	7842      	ldrb	r2, [r0, #1]
 8008fde:	80c1      	strh	r1, [r0, #6]
 8008fe0:	b28b      	uxth	r3, r1
 8008fe2:	fb12 f203 	smulbb	r2, r2, r3
 8008fe6:	2900      	cmp	r1, #0
 8008fe8:	8082      	strh	r2, [r0, #4]
 8008fea:	bfb8      	it	lt
 8008fec:	f103 33ff 	addlt.w	r3, r3, #4294967295
 8008ff0:	6a02      	ldr	r2, [r0, #32]
 8008ff2:	f8b0 006e 	ldrh.w	r0, [r0, #110]	; 0x6e
 8008ff6:	4905      	ldr	r1, [pc, #20]	; (800900c <ENC_SetMecAngle+0x30>)
 8008ff8:	bfb8      	it	lt
 8008ffa:	b29b      	uxthlt	r3, r3
 8008ffc:	fb03 f300 	mul.w	r3, r3, r0
 8009000:	fba1 1303 	umull	r1, r3, r1, r3
 8009004:	0bdb      	lsrs	r3, r3, #15
 8009006:	6253      	str	r3, [r2, #36]	; 0x24
 8009008:	4770      	bx	lr
 800900a:	bf00      	nop
 800900c:	80008001 	.word	0x80008001

08009010 <ENC_IRQHandler>:
 8009010:	4602      	mov	r2, r0
 8009012:	2000      	movs	r0, #0
 8009014:	f8b2 3070 	ldrh.w	r3, [r2, #112]	; 0x70
 8009018:	3301      	adds	r3, #1
 800901a:	b29b      	uxth	r3, r3
 800901c:	f8a2 3070 	strh.w	r3, [r2, #112]	; 0x70
 8009020:	4770      	bx	lr
 8009022:	bf00      	nop

08009024 <FCP_Init>:
 8009024:	2300      	movs	r3, #0
 8009026:	8243      	strh	r3, [r0, #18]
 8009028:	8283      	strh	r3, [r0, #20]
 800902a:	f8c0 3096 	str.w	r3, [r0, #150]	; 0x96
 800902e:	f880 309a 	strb.w	r3, [r0, #154]	; 0x9a
 8009032:	f880 311b 	strb.w	r3, [r0, #283]	; 0x11b
 8009036:	f880 311c 	strb.w	r3, [r0, #284]	; 0x11c
 800903a:	f880 311d 	strb.w	r3, [r0, #285]	; 0x11d
 800903e:	4770      	bx	lr

08009040 <FCP_SetClient>:
 8009040:	b120      	cbz	r0, 800904c <FCP_SetClient+0xc>
 8009042:	e9c0 1200 	strd	r1, r2, [r0]
 8009046:	6083      	str	r3, [r0, #8]
 8009048:	9b00      	ldr	r3, [sp, #0]
 800904a:	60c3      	str	r3, [r0, #12]
 800904c:	4770      	bx	lr
 800904e:	bf00      	nop

08009050 <FCP_CalcCRC>:
 8009050:	b190      	cbz	r0, 8009078 <FCP_CalcCRC+0x28>
 8009052:	7841      	ldrb	r1, [r0, #1]
 8009054:	7802      	ldrb	r2, [r0, #0]
 8009056:	1853      	adds	r3, r2, r1
 8009058:	b151      	cbz	r1, 8009070 <FCP_CalcCRC+0x20>
 800905a:	1e4a      	subs	r2, r1, #1
 800905c:	1c81      	adds	r1, r0, #2
 800905e:	fa51 f282 	uxtab	r2, r1, r2
 8009062:	3001      	adds	r0, #1
 8009064:	f810 1f01 	ldrb.w	r1, [r0, #1]!
 8009068:	440b      	add	r3, r1
 800906a:	4282      	cmp	r2, r0
 800906c:	b29b      	uxth	r3, r3
 800906e:	d1f9      	bne.n	8009064 <FCP_CalcCRC+0x14>
 8009070:	eb03 2313 	add.w	r3, r3, r3, lsr #8
 8009074:	f003 00ff 	and.w	r0, r3, #255	; 0xff
 8009078:	4770      	bx	lr
 800907a:	bf00      	nop

0800907c <MPM_Clear>:
 800907c:	b508      	push	{r3, lr}
 800907e:	f44f 7280 	mov.w	r2, #256	; 0x100
 8009082:	2100      	movs	r1, #0
 8009084:	f001 fe2c 	bl	800ace0 <memset>
 8009088:	2200      	movs	r2, #0
 800908a:	f8c0 2100 	str.w	r2, [r0, #256]	; 0x100
 800908e:	bd08      	pop	{r3, pc}

08009090 <MPM_CalcElMotorPower>:
 8009090:	f8b0 2100 	ldrh.w	r2, [r0, #256]	; 0x100
 8009094:	1c53      	adds	r3, r2, #1
 8009096:	b29b      	uxth	r3, r3
 8009098:	2b7f      	cmp	r3, #127	; 0x7f
 800909a:	bf88      	it	hi
 800909c:	2300      	movhi	r3, #0
 800909e:	b430      	push	{r4, r5}
 80090a0:	f820 1012 	strh.w	r1, [r0, r2, lsl #1]
 80090a4:	f100 05fe 	add.w	r5, r0, #254	; 0xfe
 80090a8:	f8a0 2102 	strh.w	r2, [r0, #258]	; 0x102
 80090ac:	f8a0 3100 	strh.w	r3, [r0, #256]	; 0x100
 80090b0:	2200      	movs	r2, #0
 80090b2:	1e83      	subs	r3, r0, #2
 80090b4:	f933 4f02 	ldrsh.w	r4, [r3, #2]!
 80090b8:	42ab      	cmp	r3, r5
 80090ba:	4422      	add	r2, r4
 80090bc:	d1fa      	bne.n	80090b4 <MPM_CalcElMotorPower+0x24>
 80090be:	2a00      	cmp	r2, #0
 80090c0:	bfb8      	it	lt
 80090c2:	327f      	addlt	r2, #127	; 0x7f
 80090c4:	11d2      	asrs	r2, r2, #7
 80090c6:	f8a0 2104 	strh.w	r2, [r0, #260]	; 0x104
 80090ca:	bc30      	pop	{r4, r5}
 80090cc:	4608      	mov	r0, r1
 80090ce:	4770      	bx	lr

080090d0 <MPM_GetAvrgElMotorPowerW>:
 80090d0:	f9b0 0104 	ldrsh.w	r0, [r0, #260]	; 0x104
 80090d4:	4770      	bx	lr
 80090d6:	bf00      	nop

080090d8 <NTC_SetFaultState>:
 80090d8:	8a03      	ldrh	r3, [r0, #16]
 80090da:	8b42      	ldrh	r2, [r0, #26]
 80090dc:	429a      	cmp	r2, r3
 80090de:	d306      	bcc.n	80090ee <NTC_SetFaultState+0x16>
 80090e0:	8b82      	ldrh	r2, [r0, #28]
 80090e2:	429a      	cmp	r2, r3
 80090e4:	d801      	bhi.n	80090ea <NTC_SetFaultState+0x12>
 80090e6:	8ac0      	ldrh	r0, [r0, #22]
 80090e8:	4770      	bx	lr
 80090ea:	2000      	movs	r0, #0
 80090ec:	4770      	bx	lr
 80090ee:	2008      	movs	r0, #8
 80090f0:	4770      	bx	lr
 80090f2:	bf00      	nop

080090f4 <NTC_Clear>:
 80090f4:	2300      	movs	r3, #0
 80090f6:	8203      	strh	r3, [r0, #16]
 80090f8:	4770      	bx	lr
 80090fa:	bf00      	nop

080090fc <NTC_Init>:
 80090fc:	7803      	ldrb	r3, [r0, #0]
 80090fe:	b123      	cbz	r3, 800910a <NTC_Init+0xe>
 8009100:	2200      	movs	r2, #0
 8009102:	8a43      	ldrh	r3, [r0, #18]
 8009104:	82c2      	strh	r2, [r0, #22]
 8009106:	8203      	strh	r3, [r0, #16]
 8009108:	4770      	bx	lr
 800910a:	b510      	push	{r4, lr}
 800910c:	4604      	mov	r4, r0
 800910e:	3004      	adds	r0, #4
 8009110:	f7f9 fc38 	bl	8002984 <RCM_RegisterRegConv>
 8009114:	f884 0026 	strb.w	r0, [r4, #38]	; 0x26
 8009118:	4620      	mov	r0, r4
 800911a:	f7ff ffeb 	bl	80090f4 <NTC_Clear>
 800911e:	bd10      	pop	{r4, pc}

08009120 <NTC_CalcAvTemp>:
 8009120:	7803      	ldrb	r3, [r0, #0]
 8009122:	b11b      	cbz	r3, 800912c <NTC_CalcAvTemp+0xc>
 8009124:	2300      	movs	r3, #0
 8009126:	82c3      	strh	r3, [r0, #22]
 8009128:	4618      	mov	r0, r3
 800912a:	4770      	bx	lr
 800912c:	b510      	push	{r4, lr}
 800912e:	4604      	mov	r4, r0
 8009130:	f890 0026 	ldrb.w	r0, [r0, #38]	; 0x26
 8009134:	f7f9 fce6 	bl	8002b04 <RCM_ExecRegularConv>
 8009138:	f64f 73ff 	movw	r3, #65535	; 0xffff
 800913c:	4298      	cmp	r0, r3
 800913e:	d007      	beq.n	8009150 <NTC_CalcAvTemp+0x30>
 8009140:	8b22      	ldrh	r2, [r4, #24]
 8009142:	8a23      	ldrh	r3, [r4, #16]
 8009144:	1e51      	subs	r1, r2, #1
 8009146:	fb01 0003 	mla	r0, r1, r3, r0
 800914a:	fbb0 f0f2 	udiv	r0, r0, r2
 800914e:	8220      	strh	r0, [r4, #16]
 8009150:	4620      	mov	r0, r4
 8009152:	f7ff ffc1 	bl	80090d8 <NTC_SetFaultState>
 8009156:	82e0      	strh	r0, [r4, #22]
 8009158:	bd10      	pop	{r4, pc}
 800915a:	bf00      	nop

0800915c <NTC_GetAvTemp_C>:
 800915c:	7803      	ldrb	r3, [r0, #0]
 800915e:	b113      	cbz	r3, 8009166 <NTC_GetAvTemp_C+0xa>
 8009160:	8a80      	ldrh	r0, [r0, #20]
 8009162:	b200      	sxth	r0, r0
 8009164:	4770      	bx	lr
 8009166:	8a03      	ldrh	r3, [r0, #16]
 8009168:	6a01      	ldr	r1, [r0, #32]
 800916a:	f9b0 201e 	ldrsh.w	r2, [r0, #30]
 800916e:	8c80      	ldrh	r0, [r0, #36]	; 0x24
 8009170:	1a5b      	subs	r3, r3, r1
 8009172:	fb03 f302 	mul.w	r3, r3, r2
 8009176:	2b00      	cmp	r3, #0
 8009178:	bfbc      	itt	lt
 800917a:	f503 437f 	addlt.w	r3, r3, #65280	; 0xff00
 800917e:	33ff      	addlt	r3, #255	; 0xff
 8009180:	eb00 4023 	add.w	r0, r0, r3, asr #16
 8009184:	b200      	sxth	r0, r0
 8009186:	4770      	bx	lr

08009188 <PID_HandleInit>:
 8009188:	2300      	movs	r3, #0
 800918a:	6801      	ldr	r1, [r0, #0]
 800918c:	8c02      	ldrh	r2, [r0, #32]
 800918e:	6041      	str	r1, [r0, #4]
 8009190:	8442      	strh	r2, [r0, #34]	; 0x22
 8009192:	6083      	str	r3, [r0, #8]
 8009194:	6283      	str	r3, [r0, #40]	; 0x28
 8009196:	4770      	bx	lr

08009198 <PID_SetKP>:
 8009198:	8081      	strh	r1, [r0, #4]
 800919a:	4770      	bx	lr

0800919c <PID_SetKI>:
 800919c:	80c1      	strh	r1, [r0, #6]
 800919e:	4770      	bx	lr

080091a0 <PID_GetKP>:
 80091a0:	f9b0 0004 	ldrsh.w	r0, [r0, #4]
 80091a4:	4770      	bx	lr
 80091a6:	bf00      	nop

080091a8 <PID_GetKI>:
 80091a8:	f9b0 0006 	ldrsh.w	r0, [r0, #6]
 80091ac:	4770      	bx	lr
 80091ae:	bf00      	nop

080091b0 <PID_SetIntegralTerm>:
 80091b0:	6081      	str	r1, [r0, #8]
 80091b2:	4770      	bx	lr

080091b4 <PID_GetKPDivisor>:
 80091b4:	8b00      	ldrh	r0, [r0, #24]
 80091b6:	4770      	bx	lr

080091b8 <PID_GetKIDivisor>:
 80091b8:	8b40      	ldrh	r0, [r0, #26]
 80091ba:	4770      	bx	lr

080091bc <PID_SetKD>:
 80091bc:	8441      	strh	r1, [r0, #34]	; 0x22
 80091be:	4770      	bx	lr

080091c0 <PID_GetKD>:
 80091c0:	f9b0 0022 	ldrsh.w	r0, [r0, #34]	; 0x22
 80091c4:	4770      	bx	lr
 80091c6:	bf00      	nop

080091c8 <PI_Controller>:
 80091c8:	f9b0 2004 	ldrsh.w	r2, [r0, #4]
 80091cc:	f9b0 3006 	ldrsh.w	r3, [r0, #6]
 80091d0:	b4f0      	push	{r4, r5, r6, r7}
 80091d2:	fb01 f202 	mul.w	r2, r1, r2
 80091d6:	f9b0 5014 	ldrsh.w	r5, [r0, #20]
 80091da:	f9b0 6016 	ldrsh.w	r6, [r0, #22]
 80091de:	b18b      	cbz	r3, 8009204 <PI_Controller+0x3c>
 80091e0:	e9d0 7402 	ldrd	r7, r4, [r0, #8]
 80091e4:	fb01 f103 	mul.w	r1, r1, r3
 80091e8:	187b      	adds	r3, r7, r1
 80091ea:	d424      	bmi.n	8009236 <PI_Controller+0x6e>
 80091ec:	2f00      	cmp	r7, #0
 80091ee:	da04      	bge.n	80091fa <PI_Controller+0x32>
 80091f0:	4f16      	ldr	r7, [pc, #88]	; (800924c <PI_Controller+0x84>)
 80091f2:	ea33 0321 	bics.w	r3, r3, r1, asr #32
 80091f6:	bf28      	it	cs
 80091f8:	463b      	movcs	r3, r7
 80091fa:	42a3      	cmp	r3, r4
 80091fc:	dc03      	bgt.n	8009206 <PI_Controller+0x3e>
 80091fe:	6904      	ldr	r4, [r0, #16]
 8009200:	429c      	cmp	r4, r3
 8009202:	dc00      	bgt.n	8009206 <PI_Controller+0x3e>
 8009204:	461c      	mov	r4, r3
 8009206:	8b81      	ldrh	r1, [r0, #28]
 8009208:	8bc3      	ldrh	r3, [r0, #30]
 800920a:	410a      	asrs	r2, r1
 800920c:	fa44 f303 	asr.w	r3, r4, r3
 8009210:	4413      	add	r3, r2
 8009212:	429d      	cmp	r5, r3
 8009214:	db08      	blt.n	8009228 <PI_Controller+0x60>
 8009216:	429e      	cmp	r6, r3
 8009218:	dd02      	ble.n	8009220 <PI_Controller+0x58>
 800921a:	1af3      	subs	r3, r6, r3
 800921c:	441c      	add	r4, r3
 800921e:	4633      	mov	r3, r6
 8009220:	6084      	str	r4, [r0, #8]
 8009222:	b218      	sxth	r0, r3
 8009224:	bcf0      	pop	{r4, r5, r6, r7}
 8009226:	4770      	bx	lr
 8009228:	1aeb      	subs	r3, r5, r3
 800922a:	441c      	add	r4, r3
 800922c:	462b      	mov	r3, r5
 800922e:	6084      	str	r4, [r0, #8]
 8009230:	b218      	sxth	r0, r3
 8009232:	bcf0      	pop	{r4, r5, r6, r7}
 8009234:	4770      	bx	lr
 8009236:	2f00      	cmp	r7, #0
 8009238:	dddf      	ble.n	80091fa <PI_Controller+0x32>
 800923a:	2900      	cmp	r1, #0
 800923c:	dddd      	ble.n	80091fa <PI_Controller+0x32>
 800923e:	f06f 4300 	mvn.w	r3, #2147483648	; 0x80000000
 8009242:	429c      	cmp	r4, r3
 8009244:	d1df      	bne.n	8009206 <PI_Controller+0x3e>
 8009246:	4623      	mov	r3, r4
 8009248:	e7dc      	b.n	8009204 <PI_Controller+0x3c>
 800924a:	bf00      	nop
 800924c:	80000001 	.word	0x80000001

08009250 <PQD_CalcElMotorPower>:
 8009250:	f8d0 110c 	ldr.w	r1, [r0, #268]	; 0x10c
 8009254:	b570      	push	{r4, r5, r6, lr}
 8009256:	8b0c      	ldrh	r4, [r1, #24]
 8009258:	89cd      	ldrh	r5, [r1, #14]
 800925a:	898a      	ldrh	r2, [r1, #12]
 800925c:	8acb      	ldrh	r3, [r1, #22]
 800925e:	4606      	mov	r6, r0
 8009260:	fb15 f504 	smulbb	r5, r5, r4
 8009264:	f8d0 0110 	ldr.w	r0, [r0, #272]	; 0x110
 8009268:	f8d6 4108 	ldr.w	r4, [r6, #264]	; 0x108
 800926c:	fb12 5503 	smlabb	r5, r2, r3, r5
 8009270:	f7ff fce0 	bl	8008c34 <VBS_GetAvBusVoltage_V>
 8009274:	1e2a      	subs	r2, r5, #0
 8009276:	4b0f      	ldr	r3, [pc, #60]	; (80092b4 <PQD_CalcElMotorPower+0x64>)
 8009278:	490f      	ldr	r1, [pc, #60]	; (80092b8 <PQD_CalcElMotorPower+0x68>)
 800927a:	fb04 f000 	mul.w	r0, r4, r0
 800927e:	bfb8      	it	lt
 8009280:	f502 427f 	addlt.w	r2, r2, #65280	; 0xff00
 8009284:	fb83 4300 	smull	r4, r3, r3, r0
 8009288:	bfb8      	it	lt
 800928a:	32ff      	addlt	r2, #255	; 0xff
 800928c:	17c0      	asrs	r0, r0, #31
 800928e:	1412      	asrs	r2, r2, #16
 8009290:	ebc0 13a3 	rsb	r3, r0, r3, asr #6
 8009294:	fb03 f302 	mul.w	r3, r3, r2
 8009298:	eb03 0343 	add.w	r3, r3, r3, lsl #1
 800929c:	005b      	lsls	r3, r3, #1
 800929e:	fb81 2103 	smull	r2, r1, r1, r3
 80092a2:	17db      	asrs	r3, r3, #31
 80092a4:	4630      	mov	r0, r6
 80092a6:	ebc3 41a1 	rsb	r1, r3, r1, asr #18
 80092aa:	e8bd 4070 	ldmia.w	sp!, {r4, r5, r6, lr}
 80092ae:	f7ff beef 	b.w	8009090 <MPM_CalcElMotorPower>
 80092b2:	bf00      	nop
 80092b4:	1b4e81b5 	.word	0x1b4e81b5
 80092b8:	66666667 	.word	0x66666667

080092bc <startTimers>:
 80092bc:	b430      	push	{r4, r5}
 80092be:	4b18      	ldr	r3, [pc, #96]	; (8009320 <startTimers+0x64>)
 80092c0:	6d9a      	ldr	r2, [r3, #88]	; 0x58
 80092c2:	07d2      	lsls	r2, r2, #31
 80092c4:	b082      	sub	sp, #8
 80092c6:	d415      	bmi.n	80092f4 <startTimers+0x38>
 80092c8:	6d9a      	ldr	r2, [r3, #88]	; 0x58
 80092ca:	f042 0201 	orr.w	r2, r2, #1
 80092ce:	659a      	str	r2, [r3, #88]	; 0x58
 80092d0:	6d9a      	ldr	r2, [r3, #88]	; 0x58
 80092d2:	f04f 4180 	mov.w	r1, #1073741824	; 0x40000000
 80092d6:	f002 0201 	and.w	r2, r2, #1
 80092da:	9201      	str	r2, [sp, #4]
 80092dc:	9a01      	ldr	r2, [sp, #4]
 80092de:	694a      	ldr	r2, [r1, #20]
 80092e0:	f042 0201 	orr.w	r2, r2, #1
 80092e4:	614a      	str	r2, [r1, #20]
 80092e6:	6d9a      	ldr	r2, [r3, #88]	; 0x58
 80092e8:	f022 0201 	bic.w	r2, r2, #1
 80092ec:	659a      	str	r2, [r3, #88]	; 0x58
 80092ee:	b002      	add	sp, #8
 80092f0:	bc30      	pop	{r4, r5}
 80092f2:	4770      	bx	lr
 80092f4:	f04f 4380 	mov.w	r3, #1073741824	; 0x40000000
 80092f8:	4c0a      	ldr	r4, [pc, #40]	; (8009324 <startTimers+0x68>)
 80092fa:	685a      	ldr	r2, [r3, #4]
 80092fc:	6859      	ldr	r1, [r3, #4]
 80092fe:	4d0a      	ldr	r5, [pc, #40]	; (8009328 <startTimers+0x6c>)
 8009300:	4021      	ands	r1, r4
 8009302:	f041 0120 	orr.w	r1, r1, #32
 8009306:	6059      	str	r1, [r3, #4]
 8009308:	6958      	ldr	r0, [r3, #20]
 800930a:	f040 0001 	orr.w	r0, r0, #1
 800930e:	6158      	str	r0, [r3, #20]
 8009310:	6859      	ldr	r1, [r3, #4]
 8009312:	402a      	ands	r2, r5
 8009314:	4021      	ands	r1, r4
 8009316:	430a      	orrs	r2, r1
 8009318:	605a      	str	r2, [r3, #4]
 800931a:	b002      	add	sp, #8
 800931c:	bc30      	pop	{r4, r5}
 800931e:	4770      	bx	lr
 8009320:	40021000 	.word	0x40021000
 8009324:	fdffff8f 	.word	0xfdffff8f
 8009328:	02000070 	.word	0x02000070

0800932c <waitForPolarizationEnd>:
 800932c:	b470      	push	{r4, r5, r6}
 800932e:	6804      	ldr	r4, [r0, #0]
 8009330:	f004 0470 	and.w	r4, r4, #112	; 0x70
 8009334:	3201      	adds	r2, #1
 8009336:	2c60      	cmp	r4, #96	; 0x60
 8009338:	f06f 0602 	mvn.w	r6, #2
 800933c:	bf18      	it	ne
 800933e:	0852      	lsrne	r2, r2, #1
 8009340:	6106      	str	r6, [r0, #16]
 8009342:	0155      	lsls	r5, r2, #5
 8009344:	781a      	ldrb	r2, [r3, #0]
 8009346:	2400      	movs	r4, #0
 8009348:	2a0f      	cmp	r2, #15
 800934a:	d80c      	bhi.n	8009366 <waitForPolarizationEnd+0x3a>
 800934c:	6902      	ldr	r2, [r0, #16]
 800934e:	0792      	lsls	r2, r2, #30
 8009350:	d5fc      	bpl.n	800934c <waitForPolarizationEnd+0x20>
 8009352:	3401      	adds	r4, #1
 8009354:	b2a4      	uxth	r4, r4
 8009356:	6106      	str	r6, [r0, #16]
 8009358:	42a5      	cmp	r5, r4
 800935a:	781a      	ldrb	r2, [r3, #0]
 800935c:	d8f4      	bhi.n	8009348 <waitForPolarizationEnd+0x1c>
 800935e:	2a0f      	cmp	r2, #15
 8009360:	d8f2      	bhi.n	8009348 <waitForPolarizationEnd+0x1c>
 8009362:	2301      	movs	r3, #1
 8009364:	800b      	strh	r3, [r1, #0]
 8009366:	bc70      	pop	{r4, r5, r6}
 8009368:	4770      	bx	lr
 800936a:	bf00      	nop

0800936c <PWMC_GetPhaseCurrents>:
 800936c:	6843      	ldr	r3, [r0, #4]
 800936e:	4718      	bx	r3

08009370 <PWMC_SetPhaseVoltage>:
 8009370:	b4f0      	push	{r4, r5, r6, r7}
 8009372:	f8b0 5050 	ldrh.w	r5, [r0, #80]	; 0x50
 8009376:	8e07      	ldrh	r7, [r0, #48]	; 0x30
 8009378:	140b      	asrs	r3, r1, #16
 800937a:	b082      	sub	sp, #8
 800937c:	fb05 f303 	mul.w	r3, r5, r3
 8009380:	9101      	str	r1, [sp, #4]
 8009382:	ebc3 73c3 	rsb	r3, r3, r3, lsl #31
 8009386:	b209      	sxth	r1, r1
 8009388:	005b      	lsls	r3, r3, #1
 800938a:	fb07 f101 	mul.w	r1, r7, r1
 800938e:	1a5f      	subs	r7, r3, r1
 8009390:	4419      	add	r1, r3
 8009392:	eb01 72d1 	add.w	r2, r1, r1, lsr #31
 8009396:	eb07 74d7 	add.w	r4, r7, r7, lsr #31
 800939a:	1052      	asrs	r2, r2, #1
 800939c:	ea4f 0695 	mov.w	r6, r5, lsr #2
 80093a0:	ea4f 0464 	mov.w	r4, r4, asr #1
 80093a4:	d46b      	bmi.n	800947e <PWMC_SetPhaseVoltage+0x10e>
 80093a6:	2c00      	cmp	r4, #0
 80093a8:	db46      	blt.n	8009438 <PWMC_SetPhaseVoltage+0xc8>
 80093aa:	1b12      	subs	r2, r2, r4
 80093ac:	bf44      	itt	mi
 80093ae:	f502 327f 	addmi.w	r2, r2, #261120	; 0x3fc00
 80093b2:	f202 32ff 	addwmi	r2, r2, #1023	; 0x3ff
 80093b6:	1e3c      	subs	r4, r7, #0
 80093b8:	bfbc      	itt	lt
 80093ba:	f504 347f 	addlt.w	r4, r4, #261120	; 0x3fc00
 80093be:	f204 34ff 	addwlt	r4, r4, #1023	; 0x3ff
 80093c2:	2900      	cmp	r1, #0
 80093c4:	bfb8      	it	lt
 80093c6:	f501 317f 	addlt.w	r1, r1, #261120	; 0x3fc00
 80093ca:	eb06 42a2 	add.w	r2, r6, r2, asr #18
 80093ce:	bfb8      	it	lt
 80093d0:	f201 31ff 	addwlt	r1, r1, #1023	; 0x3ff
 80093d4:	eb02 44a4 	add.w	r4, r2, r4, asr #18
 80093d8:	b295      	uxth	r5, r2
 80093da:	eba2 42a1 	sub.w	r2, r2, r1, asr #18
 80093de:	2301      	movs	r3, #1
 80093e0:	b2a4      	uxth	r4, r4
 80093e2:	b292      	uxth	r2, r2
 80093e4:	f880 303a 	strb.w	r3, [r0, #58]	; 0x3a
 80093e8:	8784      	strh	r4, [r0, #60]	; 0x3c
 80093ea:	87c5      	strh	r5, [r0, #62]	; 0x3e
 80093ec:	f8a0 2040 	strh.w	r2, [r0, #64]	; 0x40
 80093f0:	f8b0 304e 	ldrh.w	r3, [r0, #78]	; 0x4e
 80093f4:	8645      	strh	r5, [r0, #50]	; 0x32
 80093f6:	2b01      	cmp	r3, #1
 80093f8:	8684      	strh	r4, [r0, #52]	; 0x34
 80093fa:	86c2      	strh	r2, [r0, #54]	; 0x36
 80093fc:	d118      	bne.n	8009430 <PWMC_SetPhaseVoltage+0xc0>
 80093fe:	f9b0 3048 	ldrsh.w	r3, [r0, #72]	; 0x48
 8009402:	f8b0 7054 	ldrh.w	r7, [r0, #84]	; 0x54
 8009406:	2b00      	cmp	r3, #0
 8009408:	f9b0 304a 	ldrsh.w	r3, [r0, #74]	; 0x4a
 800940c:	bfcc      	ite	gt
 800940e:	19ed      	addgt	r5, r5, r7
 8009410:	1bed      	suble	r5, r5, r7
 8009412:	2b00      	cmp	r3, #0
 8009414:	f9b0 304c 	ldrsh.w	r3, [r0, #76]	; 0x4c
 8009418:	bfcc      	ite	gt
 800941a:	19e4      	addgt	r4, r4, r7
 800941c:	1be4      	suble	r4, r4, r7
 800941e:	2b00      	cmp	r3, #0
 8009420:	b2ad      	uxth	r5, r5
 8009422:	b2a4      	uxth	r4, r4
 8009424:	bfcc      	ite	gt
 8009426:	19d2      	addgt	r2, r2, r7
 8009428:	1bd2      	suble	r2, r2, r7
 800942a:	8645      	strh	r5, [r0, #50]	; 0x32
 800942c:	8684      	strh	r4, [r0, #52]	; 0x34
 800942e:	86c2      	strh	r2, [r0, #54]	; 0x36
 8009430:	6983      	ldr	r3, [r0, #24]
 8009432:	b002      	add	sp, #8
 8009434:	bcf0      	pop	{r4, r5, r6, r7}
 8009436:	4718      	bx	r3
 8009438:	2b00      	cmp	r3, #0
 800943a:	dd42      	ble.n	80094c2 <PWMC_SetPhaseVoltage+0x152>
 800943c:	2f00      	cmp	r7, #0
 800943e:	bfb8      	it	lt
 8009440:	f507 377f 	addlt.w	r7, r7, #261120	; 0x3fc00
 8009444:	eba3 0404 	sub.w	r4, r3, r4
 8009448:	bfb8      	it	lt
 800944a:	f207 37ff 	addwlt	r7, r7, #1023	; 0x3ff
 800944e:	2b00      	cmp	r3, #0
 8009450:	eb06 45a4 	add.w	r5, r6, r4, asr #18
 8009454:	bfb8      	it	lt
 8009456:	f503 33ff 	addlt.w	r3, r3, #130560	; 0x1fe00
 800945a:	eb05 47a7 	add.w	r7, r5, r7, asr #18
 800945e:	bfb8      	it	lt
 8009460:	f203 13ff 	addwlt	r3, r3, #511	; 0x1ff
 8009464:	2200      	movs	r2, #0
 8009466:	b2bc      	uxth	r4, r7
 8009468:	eba7 4763 	sub.w	r7, r7, r3, asr #17
 800946c:	f880 203a 	strb.w	r2, [r0, #58]	; 0x3a
 8009470:	b2ad      	uxth	r5, r5
 8009472:	b2ba      	uxth	r2, r7
 8009474:	8785      	strh	r5, [r0, #60]	; 0x3c
 8009476:	87c4      	strh	r4, [r0, #62]	; 0x3e
 8009478:	f8a0 2040 	strh.w	r2, [r0, #64]	; 0x40
 800947c:	e7b8      	b.n	80093f0 <PWMC_SetPhaseVoltage+0x80>
 800947e:	2c00      	cmp	r4, #0
 8009480:	db65      	blt.n	800954e <PWMC_SetPhaseVoltage+0x1de>
 8009482:	2b00      	cmp	r3, #0
 8009484:	dd3e      	ble.n	8009504 <PWMC_SetPhaseVoltage+0x194>
 8009486:	1ad5      	subs	r5, r2, r3
 8009488:	bf44      	itt	mi
 800948a:	f505 357f 	addmi.w	r5, r5, #261120	; 0x3fc00
 800948e:	f205 35ff 	addwmi	r5, r5, #1023	; 0x3ff
 8009492:	2900      	cmp	r1, #0
 8009494:	bfb8      	it	lt
 8009496:	f501 317f 	addlt.w	r1, r1, #261120	; 0x3fc00
 800949a:	eb06 45a5 	add.w	r5, r6, r5, asr #18
 800949e:	bfb8      	it	lt
 80094a0:	f201 31ff 	addwlt	r1, r1, #1023	; 0x3ff
 80094a4:	eba5 42a1 	sub.w	r2, r5, r1, asr #18
 80094a8:	2402      	movs	r4, #2
 80094aa:	f880 403a 	strb.w	r4, [r0, #58]	; 0x3a
 80094ae:	eb02 4463 	add.w	r4, r2, r3, asr #17
 80094b2:	b2a4      	uxth	r4, r4
 80094b4:	b292      	uxth	r2, r2
 80094b6:	b2ad      	uxth	r5, r5
 80094b8:	8784      	strh	r4, [r0, #60]	; 0x3c
 80094ba:	87c2      	strh	r2, [r0, #62]	; 0x3e
 80094bc:	f8a0 5040 	strh.w	r5, [r0, #64]	; 0x40
 80094c0:	e796      	b.n	80093f0 <PWMC_SetPhaseVoltage+0x80>
 80094c2:	2900      	cmp	r1, #0
 80094c4:	bfb8      	it	lt
 80094c6:	f501 317f 	addlt.w	r1, r1, #261120	; 0x3fc00
 80094ca:	eba2 0503 	sub.w	r5, r2, r3
 80094ce:	bfb8      	it	lt
 80094d0:	f201 31ff 	addwlt	r1, r1, #1023	; 0x3ff
 80094d4:	1e1c      	subs	r4, r3, #0
 80094d6:	eb06 45a5 	add.w	r5, r6, r5, asr #18
 80094da:	bfb8      	it	lt
 80094dc:	f504 34ff 	addlt.w	r4, r4, #130560	; 0x1fe00
 80094e0:	eba5 41a1 	sub.w	r1, r5, r1, asr #18
 80094e4:	bfb8      	it	lt
 80094e6:	f204 14ff 	addwlt	r4, r4, #511	; 0x1ff
 80094ea:	2205      	movs	r2, #5
 80094ec:	eb01 4464 	add.w	r4, r1, r4, asr #17
 80094f0:	f880 203a 	strb.w	r2, [r0, #58]	; 0x3a
 80094f4:	b2ad      	uxth	r5, r5
 80094f6:	b28a      	uxth	r2, r1
 80094f8:	b2a4      	uxth	r4, r4
 80094fa:	8785      	strh	r5, [r0, #60]	; 0x3c
 80094fc:	87c2      	strh	r2, [r0, #62]	; 0x3e
 80094fe:	f8a0 4040 	strh.w	r4, [r0, #64]	; 0x40
 8009502:	e775      	b.n	80093f0 <PWMC_SetPhaseVoltage+0x80>
 8009504:	1b1c      	subs	r4, r3, r4
 8009506:	bf44      	itt	mi
 8009508:	f504 347f 	addmi.w	r4, r4, #261120	; 0x3fc00
 800950c:	f204 34ff 	addwmi	r4, r4, #1023	; 0x3ff
 8009510:	eb06 45a4 	add.w	r5, r6, r4, asr #18
 8009514:	1e3c      	subs	r4, r7, #0
 8009516:	bfbc      	itt	lt
 8009518:	f504 347f 	addlt.w	r4, r4, #261120	; 0x3fc00
 800951c:	f204 34ff 	addwlt	r4, r4, #1023	; 0x3ff
 8009520:	2b00      	cmp	r3, #0
 8009522:	bfb8      	it	lt
 8009524:	f503 33ff 	addlt.w	r3, r3, #130560	; 0x1fe00
 8009528:	eb05 44a4 	add.w	r4, r5, r4, asr #18
 800952c:	f04f 0203 	mov.w	r2, #3
 8009530:	bfb8      	it	lt
 8009532:	f203 13ff 	addwlt	r3, r3, #511	; 0x1ff
 8009536:	f880 203a 	strb.w	r2, [r0, #58]	; 0x3a
 800953a:	eba4 4263 	sub.w	r2, r4, r3, asr #17
 800953e:	b292      	uxth	r2, r2
 8009540:	b2a4      	uxth	r4, r4
 8009542:	b2ad      	uxth	r5, r5
 8009544:	8782      	strh	r2, [r0, #60]	; 0x3c
 8009546:	87c4      	strh	r4, [r0, #62]	; 0x3e
 8009548:	f8a0 5040 	strh.w	r5, [r0, #64]	; 0x40
 800954c:	e750      	b.n	80093f0 <PWMC_SetPhaseVoltage+0x80>
 800954e:	1b14      	subs	r4, r2, r4
 8009550:	bf44      	itt	mi
 8009552:	f504 347f 	addmi.w	r4, r4, #261120	; 0x3fc00
 8009556:	f204 34ff 	addwmi	r4, r4, #1023	; 0x3ff
 800955a:	2900      	cmp	r1, #0
 800955c:	bfbc      	itt	lt
 800955e:	f501 317f 	addlt.w	r1, r1, #261120	; 0x3fc00
 8009562:	f201 31ff 	addwlt	r1, r1, #1023	; 0x3ff
 8009566:	2f00      	cmp	r7, #0
 8009568:	bfb8      	it	lt
 800956a:	f507 377f 	addlt.w	r7, r7, #261120	; 0x3fc00
 800956e:	eb06 44a4 	add.w	r4, r6, r4, asr #18
 8009572:	bfb8      	it	lt
 8009574:	f207 37ff 	addwlt	r7, r7, #1023	; 0x3ff
 8009578:	eba4 42a1 	sub.w	r2, r4, r1, asr #18
 800957c:	b2a5      	uxth	r5, r4
 800957e:	eb04 44a7 	add.w	r4, r4, r7, asr #18
 8009582:	2304      	movs	r3, #4
 8009584:	b292      	uxth	r2, r2
 8009586:	b2a4      	uxth	r4, r4
 8009588:	f880 303a 	strb.w	r3, [r0, #58]	; 0x3a
 800958c:	8782      	strh	r2, [r0, #60]	; 0x3c
 800958e:	87c5      	strh	r5, [r0, #62]	; 0x3e
 8009590:	f8a0 4040 	strh.w	r4, [r0, #64]	; 0x40
 8009594:	e72c      	b.n	80093f0 <PWMC_SetPhaseVoltage+0x80>
 8009596:	bf00      	nop

08009598 <PWMC_SwitchOffPWM>:
 8009598:	6883      	ldr	r3, [r0, #8]
 800959a:	4718      	bx	r3

0800959c <PWMC_CurrentReadingCalibr>:
 800959c:	b510      	push	{r4, lr}
 800959e:	4604      	mov	r4, r0
 80095a0:	b082      	sub	sp, #8
 80095a2:	b1a1      	cbz	r1, 80095ce <PWMC_CurrentReadingCalibr+0x32>
 80095a4:	2901      	cmp	r1, #1
 80095a6:	d002      	beq.n	80095ae <PWMC_CurrentReadingCalibr+0x12>
 80095a8:	2000      	movs	r0, #0
 80095aa:	b002      	add	sp, #8
 80095ac:	bd10      	pop	{r4, pc}
 80095ae:	f8b0 3044 	ldrh.w	r3, [r0, #68]	; 0x44
 80095b2:	b1d3      	cbz	r3, 80095ea <PWMC_CurrentReadingCalibr+0x4e>
 80095b4:	3b01      	subs	r3, #1
 80095b6:	b29b      	uxth	r3, r3
 80095b8:	9101      	str	r1, [sp, #4]
 80095ba:	f8a0 3044 	strh.w	r3, [r0, #68]	; 0x44
 80095be:	2b00      	cmp	r3, #0
 80095c0:	d1f2      	bne.n	80095a8 <PWMC_CurrentReadingCalibr+0xc>
 80095c2:	6903      	ldr	r3, [r0, #16]
 80095c4:	4798      	blx	r3
 80095c6:	9901      	ldr	r1, [sp, #4]
 80095c8:	4608      	mov	r0, r1
 80095ca:	b002      	add	sp, #8
 80095cc:	bd10      	pop	{r4, pc}
 80095ce:	f7ff ffe3 	bl	8009598 <PWMC_SwitchOffPWM>
 80095d2:	f8b4 3052 	ldrh.w	r3, [r4, #82]	; 0x52
 80095d6:	f8a4 3044 	strh.w	r3, [r4, #68]	; 0x44
 80095da:	2b00      	cmp	r3, #0
 80095dc:	d1e4      	bne.n	80095a8 <PWMC_CurrentReadingCalibr+0xc>
 80095de:	4620      	mov	r0, r4
 80095e0:	6923      	ldr	r3, [r4, #16]
 80095e2:	4798      	blx	r3
 80095e4:	2001      	movs	r0, #1
 80095e6:	b002      	add	sp, #8
 80095e8:	bd10      	pop	{r4, pc}
 80095ea:	4608      	mov	r0, r1
 80095ec:	b002      	add	sp, #8
 80095ee:	bd10      	pop	{r4, pc}

080095f0 <PWMC_CheckOverCurrent>:
 80095f0:	69c3      	ldr	r3, [r0, #28]
 80095f2:	4718      	bx	r3

080095f4 <R3_2_GetPhaseCurrents>:
 80095f4:	b4f0      	push	{r4, r5, r6, r7}
 80095f6:	6f43      	ldr	r3, [r0, #116]	; 0x74
 80095f8:	f890 403a 	ldrb.w	r4, [r0, #58]	; 0x3a
 80095fc:	689d      	ldr	r5, [r3, #8]
 80095fe:	eb03 0384 	add.w	r3, r3, r4, lsl #2
 8009602:	2c05      	cmp	r4, #5
 8009604:	6cda      	ldr	r2, [r3, #76]	; 0x4c
 8009606:	6e5e      	ldr	r6, [r3, #100]	; 0x64
 8009608:	6813      	ldr	r3, [r2, #0]
 800960a:	6836      	ldr	r6, [r6, #0]
 800960c:	686a      	ldr	r2, [r5, #4]
 800960e:	f022 7200 	bic.w	r2, r2, #33554432	; 0x2000000
 8009612:	f022 0270 	bic.w	r2, r2, #112	; 0x70
 8009616:	606a      	str	r2, [r5, #4]
 8009618:	d821      	bhi.n	800965e <R3_2_GetPhaseCurrents+0x6a>
 800961a:	2501      	movs	r5, #1
 800961c:	fa05 f404 	lsl.w	r4, r5, r4
 8009620:	f014 0f21 	tst.w	r4, #33	; 0x21
 8009624:	d12c      	bne.n	8009680 <R3_2_GetPhaseCurrents+0x8c>
 8009626:	f014 0f06 	tst.w	r4, #6
 800962a:	d044      	beq.n	80096b6 <R3_2_GetPhaseCurrents+0xc2>
 800962c:	6dc2      	ldr	r2, [r0, #92]	; 0x5c
 800962e:	4d53      	ldr	r5, [pc, #332]	; (800977c <R3_2_GetPhaseCurrents+0x188>)
 8009630:	1ad4      	subs	r4, r2, r3
 8009632:	42ac      	cmp	r4, r5
 8009634:	da75      	bge.n	8009722 <R3_2_GetPhaseCurrents+0x12e>
 8009636:	462c      	mov	r4, r5
 8009638:	800d      	strh	r5, [r1, #0]
 800963a:	462f      	mov	r7, r5
 800963c:	f248 0301 	movw	r3, #32769	; 0x8001
 8009640:	6e42      	ldr	r2, [r0, #100]	; 0x64
 8009642:	1ab2      	subs	r2, r6, r2
 8009644:	1b12      	subs	r2, r2, r4
 8009646:	f5b2 4f00 	cmp.w	r2, #32768	; 0x8000
 800964a:	da74      	bge.n	8009736 <R3_2_GetPhaseCurrents+0x142>
 800964c:	4c4b      	ldr	r4, [pc, #300]	; (800977c <R3_2_GetPhaseCurrents+0x188>)
 800964e:	42a2      	cmp	r2, r4
 8009650:	db7d      	blt.n	800974e <R3_2_GetPhaseCurrents+0x15a>
 8009652:	fa0f fc82 	sxth.w	ip, r2
 8009656:	f8a1 c002 	strh.w	ip, [r1, #2]
 800965a:	b292      	uxth	r2, r2
 800965c:	e006      	b.n	800966c <R3_2_GetPhaseCurrents+0x78>
 800965e:	f9b1 7000 	ldrsh.w	r7, [r1]
 8009662:	f9b1 c002 	ldrsh.w	ip, [r1, #2]
 8009666:	b2bb      	uxth	r3, r7
 8009668:	fa1f f28c 	uxth.w	r2, ip
 800966c:	4413      	add	r3, r2
 800966e:	425b      	negs	r3, r3
 8009670:	f8a0 7048 	strh.w	r7, [r0, #72]	; 0x48
 8009674:	f8a0 304c 	strh.w	r3, [r0, #76]	; 0x4c
 8009678:	f8a0 c04a 	strh.w	ip, [r0, #74]	; 0x4a
 800967c:	bcf0      	pop	{r4, r5, r6, r7}
 800967e:	4770      	bx	lr
 8009680:	6e04      	ldr	r4, [r0, #96]	; 0x60
 8009682:	4d3e      	ldr	r5, [pc, #248]	; (800977c <R3_2_GetPhaseCurrents+0x188>)
 8009684:	1ae4      	subs	r4, r4, r3
 8009686:	42ac      	cmp	r4, r5
 8009688:	db35      	blt.n	80096f6 <R3_2_GetPhaseCurrents+0x102>
 800968a:	f5b4 4f00 	cmp.w	r4, #32768	; 0x8000
 800968e:	db42      	blt.n	8009716 <R3_2_GetPhaseCurrents+0x122>
 8009690:	f647 73ff 	movw	r3, #32767	; 0x7fff
 8009694:	461a      	mov	r2, r3
 8009696:	804b      	strh	r3, [r1, #2]
 8009698:	461c      	mov	r4, r3
 800969a:	469c      	mov	ip, r3
 800969c:	6e45      	ldr	r5, [r0, #100]	; 0x64
 800969e:	1b73      	subs	r3, r6, r5
 80096a0:	1b1c      	subs	r4, r3, r4
 80096a2:	f5b4 4f00 	cmp.w	r4, #32768	; 0x8000
 80096a6:	da2c      	bge.n	8009702 <R3_2_GetPhaseCurrents+0x10e>
 80096a8:	4f34      	ldr	r7, [pc, #208]	; (800977c <R3_2_GetPhaseCurrents+0x188>)
 80096aa:	42bc      	cmp	r4, r7
 80096ac:	da2f      	bge.n	800970e <R3_2_GetPhaseCurrents+0x11a>
 80096ae:	800f      	strh	r7, [r1, #0]
 80096b0:	f248 0301 	movw	r3, #32769	; 0x8001
 80096b4:	e7da      	b.n	800966c <R3_2_GetPhaseCurrents+0x78>
 80096b6:	f014 0f18 	tst.w	r4, #24
 80096ba:	d0d0      	beq.n	800965e <R3_2_GetPhaseCurrents+0x6a>
 80096bc:	6dc4      	ldr	r4, [r0, #92]	; 0x5c
 80096be:	4a2f      	ldr	r2, [pc, #188]	; (800977c <R3_2_GetPhaseCurrents+0x188>)
 80096c0:	1ae4      	subs	r4, r4, r3
 80096c2:	4294      	cmp	r4, r2
 80096c4:	db41      	blt.n	800974a <R3_2_GetPhaseCurrents+0x156>
 80096c6:	f5b4 4f00 	cmp.w	r4, #32768	; 0x8000
 80096ca:	bfa6      	itte	ge
 80096cc:	f647 73ff 	movwge	r3, #32767	; 0x7fff
 80096d0:	800b      	strhge	r3, [r1, #0]
 80096d2:	800c      	strhlt	r4, [r1, #0]
 80096d4:	6e02      	ldr	r2, [r0, #96]	; 0x60
 80096d6:	4b29      	ldr	r3, [pc, #164]	; (800977c <R3_2_GetPhaseCurrents+0x188>)
 80096d8:	1b92      	subs	r2, r2, r6
 80096da:	429a      	cmp	r2, r3
 80096dc:	db3c      	blt.n	8009758 <R3_2_GetPhaseCurrents+0x164>
 80096de:	f5b2 4f00 	cmp.w	r2, #32768	; 0x8000
 80096e2:	db41      	blt.n	8009768 <R3_2_GetPhaseCurrents+0x174>
 80096e4:	f9b1 7000 	ldrsh.w	r7, [r1]
 80096e8:	f647 73ff 	movw	r3, #32767	; 0x7fff
 80096ec:	804b      	strh	r3, [r1, #2]
 80096ee:	461a      	mov	r2, r3
 80096f0:	469c      	mov	ip, r3
 80096f2:	b2bb      	uxth	r3, r7
 80096f4:	e7ba      	b.n	800966c <R3_2_GetPhaseCurrents+0x78>
 80096f6:	462c      	mov	r4, r5
 80096f8:	804d      	strh	r5, [r1, #2]
 80096fa:	46ac      	mov	ip, r5
 80096fc:	f248 0201 	movw	r2, #32769	; 0x8001
 8009700:	e7cc      	b.n	800969c <R3_2_GetPhaseCurrents+0xa8>
 8009702:	f647 74ff 	movw	r4, #32767	; 0x7fff
 8009706:	4623      	mov	r3, r4
 8009708:	800c      	strh	r4, [r1, #0]
 800970a:	4627      	mov	r7, r4
 800970c:	e7ae      	b.n	800966c <R3_2_GetPhaseCurrents+0x78>
 800970e:	b227      	sxth	r7, r4
 8009710:	800f      	strh	r7, [r1, #0]
 8009712:	b2a3      	uxth	r3, r4
 8009714:	e7aa      	b.n	800966c <R3_2_GetPhaseCurrents+0x78>
 8009716:	fa0f fc84 	sxth.w	ip, r4
 800971a:	f8a1 c002 	strh.w	ip, [r1, #2]
 800971e:	b2a2      	uxth	r2, r4
 8009720:	e7bc      	b.n	800969c <R3_2_GetPhaseCurrents+0xa8>
 8009722:	f5b4 4f00 	cmp.w	r4, #32768	; 0x8000
 8009726:	db0c      	blt.n	8009742 <R3_2_GetPhaseCurrents+0x14e>
 8009728:	f647 72ff 	movw	r2, #32767	; 0x7fff
 800972c:	4613      	mov	r3, r2
 800972e:	800a      	strh	r2, [r1, #0]
 8009730:	4614      	mov	r4, r2
 8009732:	4617      	mov	r7, r2
 8009734:	e784      	b.n	8009640 <R3_2_GetPhaseCurrents+0x4c>
 8009736:	f647 74ff 	movw	r4, #32767	; 0x7fff
 800973a:	4622      	mov	r2, r4
 800973c:	804c      	strh	r4, [r1, #2]
 800973e:	46a4      	mov	ip, r4
 8009740:	e794      	b.n	800966c <R3_2_GetPhaseCurrents+0x78>
 8009742:	b227      	sxth	r7, r4
 8009744:	800f      	strh	r7, [r1, #0]
 8009746:	b2a3      	uxth	r3, r4
 8009748:	e77a      	b.n	8009640 <R3_2_GetPhaseCurrents+0x4c>
 800974a:	800a      	strh	r2, [r1, #0]
 800974c:	e7c2      	b.n	80096d4 <R3_2_GetPhaseCurrents+0xe0>
 800974e:	804c      	strh	r4, [r1, #2]
 8009750:	46a4      	mov	ip, r4
 8009752:	f248 0201 	movw	r2, #32769	; 0x8001
 8009756:	e789      	b.n	800966c <R3_2_GetPhaseCurrents+0x78>
 8009758:	f9b1 7000 	ldrsh.w	r7, [r1]
 800975c:	804b      	strh	r3, [r1, #2]
 800975e:	469c      	mov	ip, r3
 8009760:	f248 0201 	movw	r2, #32769	; 0x8001
 8009764:	b2bb      	uxth	r3, r7
 8009766:	e781      	b.n	800966c <R3_2_GetPhaseCurrents+0x78>
 8009768:	f9b1 7000 	ldrsh.w	r7, [r1]
 800976c:	fa0f fc82 	sxth.w	ip, r2
 8009770:	b2bb      	uxth	r3, r7
 8009772:	f8a1 c002 	strh.w	ip, [r1, #2]
 8009776:	b292      	uxth	r2, r2
 8009778:	e778      	b.n	800966c <R3_2_GetPhaseCurrents+0x78>
 800977a:	bf00      	nop
 800977c:	ffff8001 	.word	0xffff8001

08009780 <R3_2_SetADCSampPointPolarization>:
 8009780:	b410      	push	{r4}
 8009782:	6f43      	ldr	r3, [r0, #116]	; 0x74
 8009784:	f890 406d 	ldrb.w	r4, [r0, #109]	; 0x6d
 8009788:	f880 403a 	strb.w	r4, [r0, #58]	; 0x3a
 800978c:	f8b0 2068 	ldrh.w	r2, [r0, #104]	; 0x68
 8009790:	689b      	ldr	r3, [r3, #8]
 8009792:	8e44      	ldrh	r4, [r0, #50]	; 0x32
 8009794:	635c      	str	r4, [r3, #52]	; 0x34
 8009796:	3a01      	subs	r2, #1
 8009798:	8e84      	ldrh	r4, [r0, #52]	; 0x34
 800979a:	8ec0      	ldrh	r0, [r0, #54]	; 0x36
 800979c:	639c      	str	r4, [r3, #56]	; 0x38
 800979e:	b292      	uxth	r2, r2
 80097a0:	63d8      	str	r0, [r3, #60]	; 0x3c
 80097a2:	641a      	str	r2, [r3, #64]	; 0x40
 80097a4:	4904      	ldr	r1, [pc, #16]	; (80097b8 <R3_2_SetADCSampPointPolarization+0x38>)
 80097a6:	685b      	ldr	r3, [r3, #4]
 80097a8:	f85d 4b04 	ldr.w	r4, [sp], #4
 80097ac:	420b      	tst	r3, r1
 80097ae:	bf14      	ite	ne
 80097b0:	2001      	movne	r0, #1
 80097b2:	2000      	moveq	r0, #0
 80097b4:	4770      	bx	lr
 80097b6:	bf00      	nop
 80097b8:	02000070 	.word	0x02000070

080097bc <R3_2_SetADCSampPointSectX>:
 80097bc:	b470      	push	{r4, r5, r6}
 80097be:	f8b0 1068 	ldrh.w	r1, [r0, #104]	; 0x68
 80097c2:	8f83      	ldrh	r3, [r0, #60]	; 0x3c
 80097c4:	6f44      	ldr	r4, [r0, #116]	; 0x74
 80097c6:	1aca      	subs	r2, r1, r3
 80097c8:	f8b4 60b2 	ldrh.w	r6, [r4, #178]	; 0xb2
 80097cc:	b292      	uxth	r2, r2
 80097ce:	42b2      	cmp	r2, r6
 80097d0:	d914      	bls.n	80097fc <R3_2_SetADCSampPointSectX+0x40>
 80097d2:	1e4b      	subs	r3, r1, #1
 80097d4:	2204      	movs	r2, #4
 80097d6:	b29b      	uxth	r3, r3
 80097d8:	f880 203a 	strb.w	r2, [r0, #58]	; 0x3a
 80097dc:	68a2      	ldr	r2, [r4, #8]
 80097de:	8e45      	ldrh	r5, [r0, #50]	; 0x32
 80097e0:	8e84      	ldrh	r4, [r0, #52]	; 0x34
 80097e2:	8ec1      	ldrh	r1, [r0, #54]	; 0x36
 80097e4:	6355      	str	r5, [r2, #52]	; 0x34
 80097e6:	6394      	str	r4, [r2, #56]	; 0x38
 80097e8:	63d1      	str	r1, [r2, #60]	; 0x3c
 80097ea:	6413      	str	r3, [r2, #64]	; 0x40
 80097ec:	6852      	ldr	r2, [r2, #4]
 80097ee:	4b0f      	ldr	r3, [pc, #60]	; (800982c <R3_2_SetADCSampPointSectX+0x70>)
 80097f0:	421a      	tst	r2, r3
 80097f2:	bf14      	ite	ne
 80097f4:	2001      	movne	r0, #1
 80097f6:	2000      	moveq	r0, #0
 80097f8:	bc70      	pop	{r4, r5, r6}
 80097fa:	4770      	bx	lr
 80097fc:	8fc5      	ldrh	r5, [r0, #62]	; 0x3e
 80097fe:	1b5d      	subs	r5, r3, r5
 8009800:	b2ad      	uxth	r5, r5
 8009802:	ebb5 0f42 	cmp.w	r5, r2, lsl #1
 8009806:	d904      	bls.n	8009812 <R3_2_SetADCSampPointSectX+0x56>
 8009808:	f8b4 20b4 	ldrh.w	r2, [r4, #180]	; 0xb4
 800980c:	1a9b      	subs	r3, r3, r2
 800980e:	b29b      	uxth	r3, r3
 8009810:	e7e4      	b.n	80097dc <R3_2_SetADCSampPointSectX+0x20>
 8009812:	4433      	add	r3, r6
 8009814:	b29b      	uxth	r3, r3
 8009816:	4299      	cmp	r1, r3
 8009818:	d8e0      	bhi.n	80097dc <R3_2_SetADCSampPointSectX+0x20>
 800981a:	43db      	mvns	r3, r3
 800981c:	eb03 0341 	add.w	r3, r3, r1, lsl #1
 8009820:	f44f 7280 	mov.w	r2, #256	; 0x100
 8009824:	b29b      	uxth	r3, r3
 8009826:	f8a0 206a 	strh.w	r2, [r0, #106]	; 0x6a
 800982a:	e7d7      	b.n	80097dc <R3_2_SetADCSampPointSectX+0x20>
 800982c:	02000070 	.word	0x02000070

08009830 <R3_2_HFCurrentsPolarizationAB>:
 8009830:	b470      	push	{r4, r5, r6}
 8009832:	6f43      	ldr	r3, [r0, #116]	; 0x74
 8009834:	f890 406d 	ldrb.w	r4, [r0, #109]	; 0x6d
 8009838:	689a      	ldr	r2, [r3, #8]
 800983a:	eb03 0384 	add.w	r3, r3, r4, lsl #2
 800983e:	6cdc      	ldr	r4, [r3, #76]	; 0x4c
 8009840:	6e5b      	ldr	r3, [r3, #100]	; 0x64
 8009842:	6826      	ldr	r6, [r4, #0]
 8009844:	681d      	ldr	r5, [r3, #0]
 8009846:	6853      	ldr	r3, [r2, #4]
 8009848:	f023 7300 	bic.w	r3, r3, #33554432	; 0x2000000
 800984c:	f023 0370 	bic.w	r3, r3, #112	; 0x70
 8009850:	6053      	str	r3, [r2, #4]
 8009852:	f890 306c 	ldrb.w	r3, [r0, #108]	; 0x6c
 8009856:	2b0f      	cmp	r3, #15
 8009858:	d808      	bhi.n	800986c <R3_2_HFCurrentsPolarizationAB+0x3c>
 800985a:	e9d0 4217 	ldrd	r4, r2, [r0, #92]	; 0x5c
 800985e:	4434      	add	r4, r6
 8009860:	442a      	add	r2, r5
 8009862:	e9c0 4217 	strd	r4, r2, [r0, #92]	; 0x5c
 8009866:	3301      	adds	r3, #1
 8009868:	f880 306c 	strb.w	r3, [r0, #108]	; 0x6c
 800986c:	2300      	movs	r3, #0
 800986e:	600b      	str	r3, [r1, #0]
 8009870:	bc70      	pop	{r4, r5, r6}
 8009872:	4770      	bx	lr

08009874 <R3_2_HFCurrentsPolarizationC>:
 8009874:	6f43      	ldr	r3, [r0, #116]	; 0x74
 8009876:	b410      	push	{r4}
 8009878:	f890 406d 	ldrb.w	r4, [r0, #109]	; 0x6d
 800987c:	689a      	ldr	r2, [r3, #8]
 800987e:	eb03 0384 	add.w	r3, r3, r4, lsl #2
 8009882:	6e5b      	ldr	r3, [r3, #100]	; 0x64
 8009884:	681c      	ldr	r4, [r3, #0]
 8009886:	6853      	ldr	r3, [r2, #4]
 8009888:	f023 7300 	bic.w	r3, r3, #33554432	; 0x2000000
 800988c:	f023 0370 	bic.w	r3, r3, #112	; 0x70
 8009890:	6053      	str	r3, [r2, #4]
 8009892:	f890 306c 	ldrb.w	r3, [r0, #108]	; 0x6c
 8009896:	2b0f      	cmp	r3, #15
 8009898:	d805      	bhi.n	80098a6 <R3_2_HFCurrentsPolarizationC+0x32>
 800989a:	6e42      	ldr	r2, [r0, #100]	; 0x64
 800989c:	3301      	adds	r3, #1
 800989e:	4422      	add	r2, r4
 80098a0:	f880 306c 	strb.w	r3, [r0, #108]	; 0x6c
 80098a4:	6642      	str	r2, [r0, #100]	; 0x64
 80098a6:	2300      	movs	r3, #0
 80098a8:	600b      	str	r3, [r1, #0]
 80098aa:	f85d 4b04 	ldr.w	r4, [sp], #4
 80098ae:	4770      	bx	lr

080098b0 <R3_2_TurnOnLowSides>:
 80098b0:	6f41      	ldr	r1, [r0, #116]	; 0x74
 80098b2:	2201      	movs	r2, #1
 80098b4:	688b      	ldr	r3, [r1, #8]
 80098b6:	f880 2042 	strb.w	r2, [r0, #66]	; 0x42
 80098ba:	2200      	movs	r2, #0
 80098bc:	f06f 0001 	mvn.w	r0, #1
 80098c0:	6118      	str	r0, [r3, #16]
 80098c2:	635a      	str	r2, [r3, #52]	; 0x34
 80098c4:	639a      	str	r2, [r3, #56]	; 0x38
 80098c6:	63da      	str	r2, [r3, #60]	; 0x3c
 80098c8:	691a      	ldr	r2, [r3, #16]
 80098ca:	07d2      	lsls	r2, r2, #31
 80098cc:	d5fc      	bpl.n	80098c8 <R3_2_TurnOnLowSides+0x18>
 80098ce:	6c5a      	ldr	r2, [r3, #68]	; 0x44
 80098d0:	f891 00ba 	ldrb.w	r0, [r1, #186]	; 0xba
 80098d4:	f442 4200 	orr.w	r2, r2, #32768	; 0x8000
 80098d8:	2802      	cmp	r0, #2
 80098da:	645a      	str	r2, [r3, #68]	; 0x44
 80098dc:	d000      	beq.n	80098e0 <R3_2_TurnOnLowSides+0x30>
 80098de:	4770      	bx	lr
 80098e0:	b470      	push	{r4, r5, r6}
 80098e2:	e9d1 5008 	ldrd	r5, r0, [r1, #32]
 80098e6:	6a8b      	ldr	r3, [r1, #40]	; 0x28
 80098e8:	f8b1 60ac 	ldrh.w	r6, [r1, #172]	; 0xac
 80098ec:	f8b1 40ae 	ldrh.w	r4, [r1, #174]	; 0xae
 80098f0:	f8b1 20b0 	ldrh.w	r2, [r1, #176]	; 0xb0
 80098f4:	61ae      	str	r6, [r5, #24]
 80098f6:	6184      	str	r4, [r0, #24]
 80098f8:	619a      	str	r2, [r3, #24]
 80098fa:	bc70      	pop	{r4, r5, r6}
 80098fc:	4770      	bx	lr
 80098fe:	bf00      	nop

08009900 <R3_2_SwitchOnPWM>:
 8009900:	6f41      	ldr	r1, [r0, #116]	; 0x74
 8009902:	f8b0 2068 	ldrh.w	r2, [r0, #104]	; 0x68
 8009906:	688b      	ldr	r3, [r1, #8]
 8009908:	b4f0      	push	{r4, r5, r6, r7}
 800990a:	2400      	movs	r4, #0
 800990c:	f880 4042 	strb.w	r4, [r0, #66]	; 0x42
 8009910:	0850      	lsrs	r0, r2, #1
 8009912:	f06f 0401 	mvn.w	r4, #1
 8009916:	3a05      	subs	r2, #5
 8009918:	6358      	str	r0, [r3, #52]	; 0x34
 800991a:	6398      	str	r0, [r3, #56]	; 0x38
 800991c:	63d8      	str	r0, [r3, #60]	; 0x3c
 800991e:	641a      	str	r2, [r3, #64]	; 0x40
 8009920:	611c      	str	r4, [r3, #16]
 8009922:	691a      	ldr	r2, [r3, #16]
 8009924:	07d2      	lsls	r2, r2, #31
 8009926:	d5fc      	bpl.n	8009922 <R3_2_SwitchOnPWM+0x22>
 8009928:	f06f 0201 	mvn.w	r2, #1
 800992c:	611a      	str	r2, [r3, #16]
 800992e:	6c5a      	ldr	r2, [r3, #68]	; 0x44
 8009930:	f891 00ba 	ldrb.w	r0, [r1, #186]	; 0xba
 8009934:	f442 6280 	orr.w	r2, r2, #1024	; 0x400
 8009938:	645a      	str	r2, [r3, #68]	; 0x44
 800993a:	6c5a      	ldr	r2, [r3, #68]	; 0x44
 800993c:	2802      	cmp	r0, #2
 800993e:	f442 4200 	orr.w	r2, r2, #32768	; 0x8000
 8009942:	645a      	str	r2, [r3, #68]	; 0x44
 8009944:	d008      	beq.n	8009958 <R3_2_SwitchOnPWM+0x58>
 8009946:	f06f 0201 	mvn.w	r2, #1
 800994a:	611a      	str	r2, [r3, #16]
 800994c:	68da      	ldr	r2, [r3, #12]
 800994e:	f042 0201 	orr.w	r2, r2, #1
 8009952:	60da      	str	r2, [r3, #12]
 8009954:	bcf0      	pop	{r4, r5, r6, r7}
 8009956:	4770      	bx	lr
 8009958:	f8d3 c020 	ldr.w	ip, [r3, #32]
 800995c:	6a0d      	ldr	r5, [r1, #32]
 800995e:	f8b1 60ac 	ldrh.w	r6, [r1, #172]	; 0xac
 8009962:	6a48      	ldr	r0, [r1, #36]	; 0x24
 8009964:	f8b1 40ae 	ldrh.w	r4, [r1, #174]	; 0xae
 8009968:	6a8a      	ldr	r2, [r1, #40]	; 0x28
 800996a:	f8b1 10b0 	ldrh.w	r1, [r1, #176]	; 0xb0
 800996e:	f240 5755 	movw	r7, #1365	; 0x555
 8009972:	ea1c 0f07 	tst.w	ip, r7
 8009976:	d103      	bne.n	8009980 <R3_2_SwitchOnPWM+0x80>
 8009978:	62ae      	str	r6, [r5, #40]	; 0x28
 800997a:	6284      	str	r4, [r0, #40]	; 0x28
 800997c:	6291      	str	r1, [r2, #40]	; 0x28
 800997e:	e7e2      	b.n	8009946 <R3_2_SwitchOnPWM+0x46>
 8009980:	61ae      	str	r6, [r5, #24]
 8009982:	6184      	str	r4, [r0, #24]
 8009984:	6191      	str	r1, [r2, #24]
 8009986:	e7de      	b.n	8009946 <R3_2_SwitchOnPWM+0x46>

08009988 <R3_2_SwitchOffPWM>:
 8009988:	6f41      	ldr	r1, [r0, #116]	; 0x74
 800998a:	688b      	ldr	r3, [r1, #8]
 800998c:	68da      	ldr	r2, [r3, #12]
 800998e:	f022 0201 	bic.w	r2, r2, #1
 8009992:	b430      	push	{r4, r5}
 8009994:	f890 4070 	ldrb.w	r4, [r0, #112]	; 0x70
 8009998:	60da      	str	r2, [r3, #12]
 800999a:	6c5a      	ldr	r2, [r3, #68]	; 0x44
 800999c:	2500      	movs	r5, #0
 800999e:	f422 4200 	bic.w	r2, r2, #32768	; 0x8000
 80099a2:	f880 5042 	strb.w	r5, [r0, #66]	; 0x42
 80099a6:	645a      	str	r2, [r3, #68]	; 0x44
 80099a8:	b91c      	cbnz	r4, 80099b2 <R3_2_SwitchOffPWM+0x2a>
 80099aa:	f891 20ba 	ldrb.w	r2, [r1, #186]	; 0xba
 80099ae:	2a02      	cmp	r2, #2
 80099b0:	d00a      	beq.n	80099c8 <R3_2_SwitchOffPWM+0x40>
 80099b2:	f06f 0201 	mvn.w	r2, #1
 80099b6:	611a      	str	r2, [r3, #16]
 80099b8:	691a      	ldr	r2, [r3, #16]
 80099ba:	07d2      	lsls	r2, r2, #31
 80099bc:	d5fc      	bpl.n	80099b8 <R3_2_SwitchOffPWM+0x30>
 80099be:	f06f 0201 	mvn.w	r2, #1
 80099c2:	611a      	str	r2, [r3, #16]
 80099c4:	bc30      	pop	{r4, r5}
 80099c6:	4770      	bx	lr
 80099c8:	e9d1 4008 	ldrd	r4, r0, [r1, #32]
 80099cc:	6a8a      	ldr	r2, [r1, #40]	; 0x28
 80099ce:	f8b1 50ac 	ldrh.w	r5, [r1, #172]	; 0xac
 80099d2:	62a5      	str	r5, [r4, #40]	; 0x28
 80099d4:	f8b1 40ae 	ldrh.w	r4, [r1, #174]	; 0xae
 80099d8:	f8b1 10b0 	ldrh.w	r1, [r1, #176]	; 0xb0
 80099dc:	6284      	str	r4, [r0, #40]	; 0x28
 80099de:	6291      	str	r1, [r2, #40]	; 0x28
 80099e0:	e7e7      	b.n	80099b2 <R3_2_SwitchOffPWM+0x2a>
 80099e2:	bf00      	nop

080099e4 <R3_2_RLGetPhaseCurrents>:
 80099e4:	b430      	push	{r4, r5}
 80099e6:	6f44      	ldr	r4, [r0, #116]	; 0x74
 80099e8:	6e03      	ldr	r3, [r0, #96]	; 0x60
 80099ea:	68a5      	ldr	r5, [r4, #8]
 80099ec:	686a      	ldr	r2, [r5, #4]
 80099ee:	f022 7200 	bic.w	r2, r2, #33554432	; 0x2000000
 80099f2:	f022 0270 	bic.w	r2, r2, #112	; 0x70
 80099f6:	606a      	str	r2, [r5, #4]
 80099f8:	f890 003a 	ldrb.w	r0, [r0, #58]	; 0x3a
 80099fc:	4a0d      	ldr	r2, [pc, #52]	; (8009a34 <R3_2_RLGetPhaseCurrents+0x50>)
 80099fe:	eb04 0480 	add.w	r4, r4, r0, lsl #2
 8009a02:	6e60      	ldr	r0, [r4, #100]	; 0x64
 8009a04:	6800      	ldr	r0, [r0, #0]
 8009a06:	1a1b      	subs	r3, r3, r0
 8009a08:	4293      	cmp	r3, r2
 8009a0a:	db0e      	blt.n	8009a2a <R3_2_RLGetPhaseCurrents+0x46>
 8009a0c:	f647 72fe 	movw	r2, #32766	; 0x7ffe
 8009a10:	4293      	cmp	r3, r2
 8009a12:	dd05      	ble.n	8009a20 <R3_2_RLGetPhaseCurrents+0x3c>
 8009a14:	f647 73ff 	movw	r3, #32767	; 0x7fff
 8009a18:	800b      	strh	r3, [r1, #0]
 8009a1a:	804b      	strh	r3, [r1, #2]
 8009a1c:	bc30      	pop	{r4, r5}
 8009a1e:	4770      	bx	lr
 8009a20:	b21b      	sxth	r3, r3
 8009a22:	800b      	strh	r3, [r1, #0]
 8009a24:	804b      	strh	r3, [r1, #2]
 8009a26:	bc30      	pop	{r4, r5}
 8009a28:	4770      	bx	lr
 8009a2a:	4b03      	ldr	r3, [pc, #12]	; (8009a38 <R3_2_RLGetPhaseCurrents+0x54>)
 8009a2c:	800b      	strh	r3, [r1, #0]
 8009a2e:	804b      	strh	r3, [r1, #2]
 8009a30:	bc30      	pop	{r4, r5}
 8009a32:	4770      	bx	lr
 8009a34:	ffff8002 	.word	0xffff8002
 8009a38:	ffff8001 	.word	0xffff8001

08009a3c <R3_2_RLTurnOnLowSides>:
 8009a3c:	6f41      	ldr	r1, [r0, #116]	; 0x74
 8009a3e:	688a      	ldr	r2, [r1, #8]
 8009a40:	2000      	movs	r0, #0
 8009a42:	f06f 0301 	mvn.w	r3, #1
 8009a46:	6350      	str	r0, [r2, #52]	; 0x34
 8009a48:	6113      	str	r3, [r2, #16]
 8009a4a:	6913      	ldr	r3, [r2, #16]
 8009a4c:	07db      	lsls	r3, r3, #31
 8009a4e:	d5fc      	bpl.n	8009a4a <R3_2_RLTurnOnLowSides+0xe>
 8009a50:	6c53      	ldr	r3, [r2, #68]	; 0x44
 8009a52:	f891 00ba 	ldrb.w	r0, [r1, #186]	; 0xba
 8009a56:	f443 4300 	orr.w	r3, r3, #32768	; 0x8000
 8009a5a:	2802      	cmp	r0, #2
 8009a5c:	6453      	str	r3, [r2, #68]	; 0x44
 8009a5e:	d000      	beq.n	8009a62 <R3_2_RLTurnOnLowSides+0x26>
 8009a60:	4770      	bx	lr
 8009a62:	b470      	push	{r4, r5, r6}
 8009a64:	e9d1 5008 	ldrd	r5, r0, [r1, #32]
 8009a68:	6a8b      	ldr	r3, [r1, #40]	; 0x28
 8009a6a:	f8b1 60ac 	ldrh.w	r6, [r1, #172]	; 0xac
 8009a6e:	f8b1 40ae 	ldrh.w	r4, [r1, #174]	; 0xae
 8009a72:	f8b1 20b0 	ldrh.w	r2, [r1, #176]	; 0xb0
 8009a76:	61ae      	str	r6, [r5, #24]
 8009a78:	6284      	str	r4, [r0, #40]	; 0x28
 8009a7a:	629a      	str	r2, [r3, #40]	; 0x28
 8009a7c:	bc70      	pop	{r4, r5, r6}
 8009a7e:	4770      	bx	lr

08009a80 <R3_2_RLSwitchOnPWM>:
 8009a80:	6f41      	ldr	r1, [r0, #116]	; 0x74
 8009a82:	688b      	ldr	r3, [r1, #8]
 8009a84:	f06f 0201 	mvn.w	r2, #1
 8009a88:	e92d 41f0 	stmdb	sp!, {r4, r5, r6, r7, r8, lr}
 8009a8c:	e9d1 5400 	ldrd	r5, r4, [r1]
 8009a90:	611a      	str	r2, [r3, #16]
 8009a92:	691a      	ldr	r2, [r3, #16]
 8009a94:	07d6      	lsls	r6, r2, #31
 8009a96:	d5fc      	bpl.n	8009a92 <R3_2_RLSwitchOnPWM+0x12>
 8009a98:	f8b0 2068 	ldrh.w	r2, [r0, #104]	; 0x68
 8009a9c:	f06f 0701 	mvn.w	r7, #1
 8009aa0:	3a05      	subs	r2, #5
 8009aa2:	2601      	movs	r6, #1
 8009aa4:	611f      	str	r7, [r3, #16]
 8009aa6:	635e      	str	r6, [r3, #52]	; 0x34
 8009aa8:	641a      	str	r2, [r3, #64]	; 0x40
 8009aaa:	691a      	ldr	r2, [r3, #16]
 8009aac:	07d2      	lsls	r2, r2, #31
 8009aae:	d5fc      	bpl.n	8009aaa <R3_2_RLSwitchOnPWM+0x2a>
 8009ab0:	68da      	ldr	r2, [r3, #12]
 8009ab2:	f891 60ba 	ldrb.w	r6, [r1, #186]	; 0xba
 8009ab6:	f042 0201 	orr.w	r2, r2, #1
 8009aba:	60da      	str	r2, [r3, #12]
 8009abc:	6c5a      	ldr	r2, [r3, #68]	; 0x44
 8009abe:	f442 6280 	orr.w	r2, r2, #1024	; 0x400
 8009ac2:	645a      	str	r2, [r3, #68]	; 0x44
 8009ac4:	6c5a      	ldr	r2, [r3, #68]	; 0x44
 8009ac6:	2e02      	cmp	r6, #2
 8009ac8:	f442 4200 	orr.w	r2, r2, #32768	; 0x8000
 8009acc:	645a      	str	r2, [r3, #68]	; 0x44
 8009ace:	d117      	bne.n	8009b00 <R3_2_RLSwitchOnPWM+0x80>
 8009ad0:	f8d3 8020 	ldr.w	r8, [r3, #32]
 8009ad4:	f8d1 c020 	ldr.w	ip, [r1, #32]
 8009ad8:	f8b1 e0ac 	ldrh.w	lr, [r1, #172]	; 0xac
 8009adc:	6a4e      	ldr	r6, [r1, #36]	; 0x24
 8009ade:	f8b1 70ae 	ldrh.w	r7, [r1, #174]	; 0xae
 8009ae2:	6a8b      	ldr	r3, [r1, #40]	; 0x28
 8009ae4:	f8b1 20b0 	ldrh.w	r2, [r1, #176]	; 0xb0
 8009ae8:	f240 5155 	movw	r1, #1365	; 0x555
 8009aec:	ea18 0f01 	tst.w	r8, r1
 8009af0:	bf15      	itete	ne
 8009af2:	f8cc e018 	strne.w	lr, [ip, #24]
 8009af6:	f8cc e028 	streq.w	lr, [ip, #40]	; 0x28
 8009afa:	61b7      	strne	r7, [r6, #24]
 8009afc:	62b7      	streq	r7, [r6, #40]	; 0x28
 8009afe:	629a      	str	r2, [r3, #40]	; 0x28
 8009b00:	2303      	movs	r3, #3
 8009b02:	f880 303a 	strb.w	r3, [r0, #58]	; 0x3a
 8009b06:	68aa      	ldr	r2, [r5, #8]
 8009b08:	4905      	ldr	r1, [pc, #20]	; (8009b20 <R3_2_RLSwitchOnPWM+0xa0>)
 8009b0a:	400a      	ands	r2, r1
 8009b0c:	f042 0208 	orr.w	r2, r2, #8
 8009b10:	60aa      	str	r2, [r5, #8]
 8009b12:	68a3      	ldr	r3, [r4, #8]
 8009b14:	400b      	ands	r3, r1
 8009b16:	f043 0308 	orr.w	r3, r3, #8
 8009b1a:	60a3      	str	r3, [r4, #8]
 8009b1c:	e8bd 81f0 	ldmia.w	sp!, {r4, r5, r6, r7, r8, pc}
 8009b20:	7fffffc0 	.word	0x7fffffc0

08009b24 <R3_2_Init>:
 8009b24:	e92d 4ff0 	stmdb	sp!, {r4, r5, r6, r7, r8, r9, sl, fp, lr}
 8009b28:	6f43      	ldr	r3, [r0, #116]	; 0x74
 8009b2a:	f8df b344 	ldr.w	fp, [pc, #836]	; 8009e70 <R3_2_Init+0x34c>
 8009b2e:	6819      	ldr	r1, [r3, #0]
 8009b30:	6ada      	ldr	r2, [r3, #44]	; 0x2c
 8009b32:	684d      	ldr	r5, [r1, #4]
 8009b34:	f8d3 a00c 	ldr.w	sl, [r3, #12]
 8009b38:	b089      	sub	sp, #36	; 0x24
 8009b3a:	2704      	movs	r7, #4
 8009b3c:	9202      	str	r2, [sp, #8]
 8009b3e:	6b1a      	ldr	r2, [r3, #48]	; 0x30
 8009b40:	9203      	str	r2, [sp, #12]
 8009b42:	6b5a      	ldr	r2, [r3, #52]	; 0x34
 8009b44:	9204      	str	r2, [sp, #16]
 8009b46:	f025 0504 	bic.w	r5, r5, #4
 8009b4a:	6b9a      	ldr	r2, [r3, #56]	; 0x38
 8009b4c:	9205      	str	r2, [sp, #20]
 8009b4e:	e9d3 9804 	ldrd	r9, r8, [r3, #16]
 8009b52:	e9d3 4201 	ldrd	r4, r2, [r3, #4]
 8009b56:	e9d3 ec06 	ldrd	lr, ip, [r3, #24]
 8009b5a:	604d      	str	r5, [r1, #4]
 8009b5c:	600f      	str	r7, [r1, #0]
 8009b5e:	684d      	ldr	r5, [r1, #4]
 8009b60:	9001      	str	r0, [sp, #4]
 8009b62:	2620      	movs	r6, #32
 8009b64:	f025 0520 	bic.w	r5, r5, #32
 8009b68:	604d      	str	r5, [r1, #4]
 8009b6a:	600e      	str	r6, [r1, #0]
 8009b6c:	6865      	ldr	r5, [r4, #4]
 8009b6e:	f025 0504 	bic.w	r5, r5, #4
 8009b72:	6065      	str	r5, [r4, #4]
 8009b74:	6027      	str	r7, [r4, #0]
 8009b76:	6865      	ldr	r5, [r4, #4]
 8009b78:	f025 0520 	bic.w	r5, r5, #32
 8009b7c:	6065      	str	r5, [r4, #4]
 8009b7e:	6026      	str	r6, [r4, #0]
 8009b80:	4eba      	ldr	r6, [pc, #744]	; (8009e6c <R3_2_Init+0x348>)
 8009b82:	6935      	ldr	r5, [r6, #16]
 8009b84:	455a      	cmp	r2, fp
 8009b86:	bf0c      	ite	eq
 8009b88:	f445 6500 	orreq.w	r5, r5, #2048	; 0x800
 8009b8c:	f445 5500 	orrne.w	r5, r5, #8192	; 0x2000
 8009b90:	6135      	str	r5, [r6, #16]
 8009b92:	f1ba 0f00 	cmp.w	sl, #0
 8009b96:	d014      	beq.n	8009bc2 <R3_2_Init+0x9e>
 8009b98:	f8da 5000 	ldr.w	r5, [sl]
 8009b9c:	b11d      	cbz	r5, 8009ba6 <R3_2_Init+0x82>
 8009b9e:	682e      	ldr	r6, [r5, #0]
 8009ba0:	f046 0601 	orr.w	r6, r6, #1
 8009ba4:	602e      	str	r6, [r5, #0]
 8009ba6:	f8da 5004 	ldr.w	r5, [sl, #4]
 8009baa:	b11d      	cbz	r5, 8009bb4 <R3_2_Init+0x90>
 8009bac:	682e      	ldr	r6, [r5, #0]
 8009bae:	f046 0601 	orr.w	r6, r6, #1
 8009bb2:	602e      	str	r6, [r5, #0]
 8009bb4:	f8da 5008 	ldr.w	r5, [sl, #8]
 8009bb8:	b11d      	cbz	r5, 8009bc2 <R3_2_Init+0x9e>
 8009bba:	682e      	ldr	r6, [r5, #0]
 8009bbc:	f046 0601 	orr.w	r6, r6, #1
 8009bc0:	602e      	str	r6, [r5, #0]
 8009bc2:	f1b9 0f00 	cmp.w	r9, #0
 8009bc6:	d010      	beq.n	8009bea <R3_2_Init+0xc6>
 8009bc8:	f893 50bd 	ldrb.w	r5, [r3, #189]	; 0xbd
 8009bcc:	2d01      	cmp	r5, #1
 8009bce:	f040 809a 	bne.w	8009d06 <R3_2_Init+0x1e2>
 8009bd2:	f8d9 5000 	ldr.w	r5, [r9]
 8009bd6:	f045 0501 	orr.w	r5, r5, #1
 8009bda:	f8c9 5000 	str.w	r5, [r9]
 8009bde:	f8d9 5000 	ldr.w	r5, [r9]
 8009be2:	f045 4500 	orr.w	r5, r5, #2147483648	; 0x80000000
 8009be6:	f8c9 5000 	str.w	r5, [r9]
 8009bea:	f1b8 0f00 	cmp.w	r8, #0
 8009bee:	d010      	beq.n	8009c12 <R3_2_Init+0xee>
 8009bf0:	f893 50be 	ldrb.w	r5, [r3, #190]	; 0xbe
 8009bf4:	2d01      	cmp	r5, #1
 8009bf6:	f040 80fd 	bne.w	8009df4 <R3_2_Init+0x2d0>
 8009bfa:	f8d8 5000 	ldr.w	r5, [r8]
 8009bfe:	f045 0501 	orr.w	r5, r5, #1
 8009c02:	f8c8 5000 	str.w	r5, [r8]
 8009c06:	f8d8 5000 	ldr.w	r5, [r8]
 8009c0a:	f045 4500 	orr.w	r5, r5, #2147483648	; 0x80000000
 8009c0e:	f8c8 5000 	str.w	r5, [r8]
 8009c12:	f1be 0f00 	cmp.w	lr, #0
 8009c16:	d010      	beq.n	8009c3a <R3_2_Init+0x116>
 8009c18:	f893 50bf 	ldrb.w	r5, [r3, #191]	; 0xbf
 8009c1c:	2d01      	cmp	r5, #1
 8009c1e:	f040 80c2 	bne.w	8009da6 <R3_2_Init+0x282>
 8009c22:	f8de 5000 	ldr.w	r5, [lr]
 8009c26:	f045 0501 	orr.w	r5, r5, #1
 8009c2a:	f8ce 5000 	str.w	r5, [lr]
 8009c2e:	f8de 5000 	ldr.w	r5, [lr]
 8009c32:	f045 4500 	orr.w	r5, r5, #2147483648	; 0x80000000
 8009c36:	f8ce 5000 	str.w	r5, [lr]
 8009c3a:	f1bc 0f00 	cmp.w	ip, #0
 8009c3e:	d010      	beq.n	8009c62 <R3_2_Init+0x13e>
 8009c40:	f893 50c0 	ldrb.w	r5, [r3, #192]	; 0xc0
 8009c44:	2d01      	cmp	r5, #1
 8009c46:	f040 8087 	bne.w	8009d58 <R3_2_Init+0x234>
 8009c4a:	f8dc 5000 	ldr.w	r5, [ip]
 8009c4e:	f045 0501 	orr.w	r5, r5, #1
 8009c52:	f8cc 5000 	str.w	r5, [ip]
 8009c56:	f8dc 5000 	ldr.w	r5, [ip]
 8009c5a:	f045 4500 	orr.w	r5, r5, #2147483648	; 0x80000000
 8009c5e:	f8cc 5000 	str.w	r5, [ip]
 8009c62:	688d      	ldr	r5, [r1, #8]
 8009c64:	07e8      	lsls	r0, r5, #31
 8009c66:	f140 8105 	bpl.w	8009e74 <R3_2_Init+0x350>
 8009c6a:	68a1      	ldr	r1, [r4, #8]
 8009c6c:	07c8      	lsls	r0, r1, #31
 8009c6e:	f140 815a 	bpl.w	8009f26 <R3_2_Init+0x402>
 8009c72:	6811      	ldr	r1, [r2, #0]
 8009c74:	f021 0101 	bic.w	r1, r1, #1
 8009c78:	6011      	str	r1, [r2, #0]
 8009c7a:	6851      	ldr	r1, [r2, #4]
 8009c7c:	f021 7100 	bic.w	r1, r1, #33554432	; 0x2000000
 8009c80:	f021 0170 	bic.w	r1, r1, #112	; 0x70
 8009c84:	6051      	str	r1, [r2, #4]
 8009c86:	6991      	ldr	r1, [r2, #24]
 8009c88:	f041 0108 	orr.w	r1, r1, #8
 8009c8c:	6191      	str	r1, [r2, #24]
 8009c8e:	6991      	ldr	r1, [r2, #24]
 8009c90:	f441 6100 	orr.w	r1, r1, #2048	; 0x800
 8009c94:	6191      	str	r1, [r2, #24]
 8009c96:	69d1      	ldr	r1, [r2, #28]
 8009c98:	f041 0108 	orr.w	r1, r1, #8
 8009c9c:	61d1      	str	r1, [r2, #28]
 8009c9e:	69d1      	ldr	r1, [r2, #28]
 8009ca0:	f441 6100 	orr.w	r1, r1, #2048	; 0x800
 8009ca4:	61d1      	str	r1, [r2, #28]
 8009ca6:	6951      	ldr	r1, [r2, #20]
 8009ca8:	f041 0101 	orr.w	r1, r1, #1
 8009cac:	6151      	str	r1, [r2, #20]
 8009cae:	f893 10c1 	ldrb.w	r1, [r3, #193]	; 0xc1
 8009cb2:	2902      	cmp	r1, #2
 8009cb4:	f000 80c6 	beq.w	8009e44 <R3_2_Init+0x320>
 8009cb8:	9901      	ldr	r1, [sp, #4]
 8009cba:	f891 1046 	ldrb.w	r1, [r1, #70]	; 0x46
 8009cbe:	b939      	cbnz	r1, 8009cd0 <R3_2_Init+0x1ac>
 8009cc0:	f893 10bb 	ldrb.w	r1, [r3, #187]	; 0xbb
 8009cc4:	2901      	cmp	r1, #1
 8009cc6:	f000 80cb 	beq.w	8009e60 <R3_2_Init+0x33c>
 8009cca:	2903      	cmp	r1, #3
 8009ccc:	f000 817c 	beq.w	8009fc8 <R3_2_Init+0x4a4>
 8009cd0:	f06f 0180 	mvn.w	r1, #128	; 0x80
 8009cd4:	6111      	str	r1, [r2, #16]
 8009cd6:	f893 30bc 	ldrb.w	r3, [r3, #188]	; 0xbc
 8009cda:	b16b      	cbz	r3, 8009cf8 <R3_2_Init+0x1d4>
 8009cdc:	6913      	ldr	r3, [r2, #16]
 8009cde:	05d8      	lsls	r0, r3, #23
 8009ce0:	d50a      	bpl.n	8009cf8 <R3_2_Init+0x1d4>
 8009ce2:	f44f 737a 	mov.w	r3, #1000	; 0x3e8
 8009ce6:	f46f 7080 	mvn.w	r0, #256	; 0x100
 8009cea:	e001      	b.n	8009cf0 <R3_2_Init+0x1cc>
 8009cec:	3b01      	subs	r3, #1
 8009cee:	d003      	beq.n	8009cf8 <R3_2_Init+0x1d4>
 8009cf0:	6110      	str	r0, [r2, #16]
 8009cf2:	6911      	ldr	r1, [r2, #16]
 8009cf4:	05c9      	lsls	r1, r1, #23
 8009cf6:	d4f9      	bmi.n	8009cec <R3_2_Init+0x1c8>
 8009cf8:	68d3      	ldr	r3, [r2, #12]
 8009cfa:	f043 0380 	orr.w	r3, r3, #128	; 0x80
 8009cfe:	60d3      	str	r3, [r2, #12]
 8009d00:	b009      	add	sp, #36	; 0x24
 8009d02:	e8bd 8ff0 	ldmia.w	sp!, {r4, r5, r6, r7, r8, r9, sl, fp, pc}
 8009d06:	6bdd      	ldr	r5, [r3, #60]	; 0x3c
 8009d08:	9e02      	ldr	r6, [sp, #8]
 8009d0a:	f8b3 00b6 	ldrh.w	r0, [r3, #182]	; 0xb6
 8009d0e:	ea4f 4a95 	mov.w	sl, r5, lsr #18
 8009d12:	f106 0708 	add.w	r7, r6, #8
 8009d16:	f00a 0a3c 	and.w	sl, sl, #60	; 0x3c
 8009d1a:	f005 0b03 	and.w	fp, r5, #3
 8009d1e:	f85a 6007 	ldr.w	r6, [sl, r7]
 8009d22:	f426 467f 	bic.w	r6, r6, #65280	; 0xff00
 8009d26:	f026 06f0 	bic.w	r6, r6, #240	; 0xf0
 8009d2a:	4306      	orrs	r6, r0
 8009d2c:	f84a 6007 	str.w	r6, [sl, r7]
 8009d30:	9802      	ldr	r0, [sp, #8]
 8009d32:	6846      	ldr	r6, [r0, #4]
 8009d34:	ea4b 0606 	orr.w	r6, fp, r6
 8009d38:	6046      	str	r6, [r0, #4]
 8009d3a:	f005 0510 	and.w	r5, r5, #16
 8009d3e:	2701      	movs	r7, #1
 8009d40:	6806      	ldr	r6, [r0, #0]
 8009d42:	fa07 f505 	lsl.w	r5, r7, r5
 8009d46:	ea35 0006 	bics.w	r0, r5, r6
 8009d4a:	f43f af42 	beq.w	8009bd2 <R3_2_Init+0xae>
 8009d4e:	9e02      	ldr	r6, [sp, #8]
 8009d50:	6837      	ldr	r7, [r6, #0]
 8009d52:	433d      	orrs	r5, r7
 8009d54:	6035      	str	r5, [r6, #0]
 8009d56:	e73c      	b.n	8009bd2 <R3_2_Init+0xae>
 8009d58:	6c9d      	ldr	r5, [r3, #72]	; 0x48
 8009d5a:	9805      	ldr	r0, [sp, #20]
 8009d5c:	f8b3 90b8 	ldrh.w	r9, [r3, #184]	; 0xb8
 8009d60:	ea4f 4e95 	mov.w	lr, r5, lsr #18
 8009d64:	f100 0708 	add.w	r7, r0, #8
 8009d68:	f00e 0e3c 	and.w	lr, lr, #60	; 0x3c
 8009d6c:	f005 0803 	and.w	r8, r5, #3
 8009d70:	f85e 6007 	ldr.w	r6, [lr, r7]
 8009d74:	f426 467f 	bic.w	r6, r6, #65280	; 0xff00
 8009d78:	f026 06f0 	bic.w	r6, r6, #240	; 0xf0
 8009d7c:	ea49 0606 	orr.w	r6, r9, r6
 8009d80:	f84e 6007 	str.w	r6, [lr, r7]
 8009d84:	6846      	ldr	r6, [r0, #4]
 8009d86:	ea48 0606 	orr.w	r6, r8, r6
 8009d8a:	6046      	str	r6, [r0, #4]
 8009d8c:	6807      	ldr	r7, [r0, #0]
 8009d8e:	f005 0610 	and.w	r6, r5, #16
 8009d92:	2501      	movs	r5, #1
 8009d94:	40b5      	lsls	r5, r6
 8009d96:	ea35 0607 	bics.w	r6, r5, r7
 8009d9a:	f43f af56 	beq.w	8009c4a <R3_2_Init+0x126>
 8009d9e:	6806      	ldr	r6, [r0, #0]
 8009da0:	4335      	orrs	r5, r6
 8009da2:	6005      	str	r5, [r0, #0]
 8009da4:	e751      	b.n	8009c4a <R3_2_Init+0x126>
 8009da6:	6c5d      	ldr	r5, [r3, #68]	; 0x44
 8009da8:	9804      	ldr	r0, [sp, #16]
 8009daa:	f8b3 a0b6 	ldrh.w	sl, [r3, #182]	; 0xb6
 8009dae:	ea4f 4895 	mov.w	r8, r5, lsr #18
 8009db2:	f100 0708 	add.w	r7, r0, #8
 8009db6:	f008 083c 	and.w	r8, r8, #60	; 0x3c
 8009dba:	f005 0903 	and.w	r9, r5, #3
 8009dbe:	f858 6007 	ldr.w	r6, [r8, r7]
 8009dc2:	f426 467f 	bic.w	r6, r6, #65280	; 0xff00
 8009dc6:	f026 06f0 	bic.w	r6, r6, #240	; 0xf0
 8009dca:	ea4a 0606 	orr.w	r6, sl, r6
 8009dce:	f848 6007 	str.w	r6, [r8, r7]
 8009dd2:	6846      	ldr	r6, [r0, #4]
 8009dd4:	ea49 0606 	orr.w	r6, r9, r6
 8009dd8:	6046      	str	r6, [r0, #4]
 8009dda:	6807      	ldr	r7, [r0, #0]
 8009ddc:	f005 0610 	and.w	r6, r5, #16
 8009de0:	2501      	movs	r5, #1
 8009de2:	40b5      	lsls	r5, r6
 8009de4:	ea35 0607 	bics.w	r6, r5, r7
 8009de8:	f43f af1b 	beq.w	8009c22 <R3_2_Init+0xfe>
 8009dec:	6806      	ldr	r6, [r0, #0]
 8009dee:	4335      	orrs	r5, r6
 8009df0:	6005      	str	r5, [r0, #0]
 8009df2:	e716      	b.n	8009c22 <R3_2_Init+0xfe>
 8009df4:	6c1d      	ldr	r5, [r3, #64]	; 0x40
 8009df6:	9803      	ldr	r0, [sp, #12]
 8009df8:	f8b3 b0b6 	ldrh.w	fp, [r3, #182]	; 0xb6
 8009dfc:	ea4f 4995 	mov.w	r9, r5, lsr #18
 8009e00:	f100 0708 	add.w	r7, r0, #8
 8009e04:	f009 093c 	and.w	r9, r9, #60	; 0x3c
 8009e08:	f005 0a03 	and.w	sl, r5, #3
 8009e0c:	f859 6007 	ldr.w	r6, [r9, r7]
 8009e10:	f426 467f 	bic.w	r6, r6, #65280	; 0xff00
 8009e14:	f026 06f0 	bic.w	r6, r6, #240	; 0xf0
 8009e18:	ea4b 0606 	orr.w	r6, fp, r6
 8009e1c:	f849 6007 	str.w	r6, [r9, r7]
 8009e20:	6846      	ldr	r6, [r0, #4]
 8009e22:	ea4a 0606 	orr.w	r6, sl, r6
 8009e26:	6046      	str	r6, [r0, #4]
 8009e28:	f005 0710 	and.w	r7, r5, #16
 8009e2c:	6806      	ldr	r6, [r0, #0]
 8009e2e:	2501      	movs	r5, #1
 8009e30:	40bd      	lsls	r5, r7
 8009e32:	ea35 0006 	bics.w	r0, r5, r6
 8009e36:	f43f aee0 	beq.w	8009bfa <R3_2_Init+0xd6>
 8009e3a:	9f03      	ldr	r7, [sp, #12]
 8009e3c:	683e      	ldr	r6, [r7, #0]
 8009e3e:	4335      	orrs	r5, r6
 8009e40:	603d      	str	r5, [r7, #0]
 8009e42:	e6da      	b.n	8009bfa <R3_2_Init+0xd6>
 8009e44:	f893 10c2 	ldrb.w	r1, [r3, #194]	; 0xc2
 8009e48:	2901      	cmp	r1, #1
 8009e4a:	d109      	bne.n	8009e60 <R3_2_Init+0x33c>
 8009e4c:	f893 40bb 	ldrb.w	r4, [r3, #187]	; 0xbb
 8009e50:	2c03      	cmp	r4, #3
 8009e52:	d105      	bne.n	8009e60 <R3_2_Init+0x33c>
 8009e54:	6311      	str	r1, [r2, #48]	; 0x30
 8009e56:	6951      	ldr	r1, [r2, #20]
 8009e58:	f041 0101 	orr.w	r1, r1, #1
 8009e5c:	6151      	str	r1, [r2, #20]
 8009e5e:	6314      	str	r4, [r2, #48]	; 0x30
 8009e60:	9901      	ldr	r1, [sp, #4]
 8009e62:	f8b1 1068 	ldrh.w	r1, [r1, #104]	; 0x68
 8009e66:	3901      	subs	r1, #1
 8009e68:	6251      	str	r1, [r2, #36]	; 0x24
 8009e6a:	e731      	b.n	8009cd0 <R3_2_Init+0x1ac>
 8009e6c:	e0042000 	.word	0xe0042000
 8009e70:	40012c00 	.word	0x40012c00
 8009e74:	688d      	ldr	r5, [r1, #8]
 8009e76:	f025 4520 	bic.w	r5, r5, #2684354560	; 0xa0000000
 8009e7a:	f025 053f 	bic.w	r5, r5, #63	; 0x3f
 8009e7e:	608d      	str	r5, [r1, #8]
 8009e80:	688d      	ldr	r5, [r1, #8]
 8009e82:	00ef      	lsls	r7, r5, #3
 8009e84:	d419      	bmi.n	8009eba <R3_2_Init+0x396>
 8009e86:	4d54      	ldr	r5, [pc, #336]	; (8009fd8 <R3_2_Init+0x4b4>)
 8009e88:	688e      	ldr	r6, [r1, #8]
 8009e8a:	682d      	ldr	r5, [r5, #0]
 8009e8c:	4f53      	ldr	r7, [pc, #332]	; (8009fdc <R3_2_Init+0x4b8>)
 8009e8e:	09ad      	lsrs	r5, r5, #6
 8009e90:	f026 4610 	bic.w	r6, r6, #2415919104	; 0x90000000
 8009e94:	fba7 0505 	umull	r0, r5, r7, r5
 8009e98:	f026 063f 	bic.w	r6, r6, #63	; 0x3f
 8009e9c:	09ad      	lsrs	r5, r5, #6
 8009e9e:	f046 5680 	orr.w	r6, r6, #268435456	; 0x10000000
 8009ea2:	608e      	str	r6, [r1, #8]
 8009ea4:	9506      	str	r5, [sp, #24]
 8009ea6:	9d06      	ldr	r5, [sp, #24]
 8009ea8:	b13d      	cbz	r5, 8009eba <R3_2_Init+0x396>
 8009eaa:	9801      	ldr	r0, [sp, #4]
 8009eac:	9d06      	ldr	r5, [sp, #24]
 8009eae:	3d01      	subs	r5, #1
 8009eb0:	9506      	str	r5, [sp, #24]
 8009eb2:	9d06      	ldr	r5, [sp, #24]
 8009eb4:	2d00      	cmp	r5, #0
 8009eb6:	d1f9      	bne.n	8009eac <R3_2_Init+0x388>
 8009eb8:	9001      	str	r0, [sp, #4]
 8009eba:	688d      	ldr	r5, [r1, #8]
 8009ebc:	9801      	ldr	r0, [sp, #4]
 8009ebe:	f025 4540 	bic.w	r5, r5, #3221225472	; 0xc0000000
 8009ec2:	f025 053f 	bic.w	r5, r5, #63	; 0x3f
 8009ec6:	f045 4500 	orr.w	r5, r5, #2147483648	; 0x80000000
 8009eca:	608d      	str	r5, [r1, #8]
 8009ecc:	688d      	ldr	r5, [r1, #8]
 8009ece:	2d00      	cmp	r5, #0
 8009ed0:	dbfc      	blt.n	8009ecc <R3_2_Init+0x3a8>
 8009ed2:	680d      	ldr	r5, [r1, #0]
 8009ed4:	9001      	str	r0, [sp, #4]
 8009ed6:	07ee      	lsls	r6, r5, #31
 8009ed8:	d409      	bmi.n	8009eee <R3_2_Init+0x3ca>
 8009eda:	4e41      	ldr	r6, [pc, #260]	; (8009fe0 <R3_2_Init+0x4bc>)
 8009edc:	688d      	ldr	r5, [r1, #8]
 8009ede:	4035      	ands	r5, r6
 8009ee0:	f045 0501 	orr.w	r5, r5, #1
 8009ee4:	608d      	str	r5, [r1, #8]
 8009ee6:	680d      	ldr	r5, [r1, #0]
 8009ee8:	07ed      	lsls	r5, r5, #31
 8009eea:	d5f7      	bpl.n	8009edc <R3_2_Init+0x3b8>
 8009eec:	9001      	str	r0, [sp, #4]
 8009eee:	688e      	ldr	r6, [r1, #8]
 8009ef0:	4f3b      	ldr	r7, [pc, #236]	; (8009fe0 <R3_2_Init+0x4bc>)
 8009ef2:	403e      	ands	r6, r7
 8009ef4:	f046 0608 	orr.w	r6, r6, #8
 8009ef8:	608e      	str	r6, [r1, #8]
 8009efa:	688d      	ldr	r5, [r1, #8]
 8009efc:	403d      	ands	r5, r7
 8009efe:	f045 0520 	orr.w	r5, r5, #32
 8009f02:	608d      	str	r5, [r1, #8]
 8009f04:	68cd      	ldr	r5, [r1, #12]
 8009f06:	f025 4500 	bic.w	r5, r5, #2147483648	; 0x80000000
 8009f0a:	f425 1500 	bic.w	r5, r5, #2097152	; 0x200000
 8009f0e:	f445 1500 	orr.w	r5, r5, #2097152	; 0x200000
 8009f12:	2640      	movs	r6, #64	; 0x40
 8009f14:	60cd      	str	r5, [r1, #12]
 8009f16:	600e      	str	r6, [r1, #0]
 8009f18:	684d      	ldr	r5, [r1, #4]
 8009f1a:	4335      	orrs	r5, r6
 8009f1c:	604d      	str	r5, [r1, #4]
 8009f1e:	68a1      	ldr	r1, [r4, #8]
 8009f20:	07c8      	lsls	r0, r1, #31
 8009f22:	f53f aea6 	bmi.w	8009c72 <R3_2_Init+0x14e>
 8009f26:	68a1      	ldr	r1, [r4, #8]
 8009f28:	f021 4120 	bic.w	r1, r1, #2684354560	; 0xa0000000
 8009f2c:	f021 013f 	bic.w	r1, r1, #63	; 0x3f
 8009f30:	60a1      	str	r1, [r4, #8]
 8009f32:	68a1      	ldr	r1, [r4, #8]
 8009f34:	00c9      	lsls	r1, r1, #3
 8009f36:	d419      	bmi.n	8009f6c <R3_2_Init+0x448>
 8009f38:	4927      	ldr	r1, [pc, #156]	; (8009fd8 <R3_2_Init+0x4b4>)
 8009f3a:	68a5      	ldr	r5, [r4, #8]
 8009f3c:	6809      	ldr	r1, [r1, #0]
 8009f3e:	4e27      	ldr	r6, [pc, #156]	; (8009fdc <R3_2_Init+0x4b8>)
 8009f40:	0989      	lsrs	r1, r1, #6
 8009f42:	f025 4510 	bic.w	r5, r5, #2415919104	; 0x90000000
 8009f46:	fba6 0101 	umull	r0, r1, r6, r1
 8009f4a:	f025 053f 	bic.w	r5, r5, #63	; 0x3f
 8009f4e:	0989      	lsrs	r1, r1, #6
 8009f50:	f045 5580 	orr.w	r5, r5, #268435456	; 0x10000000
 8009f54:	60a5      	str	r5, [r4, #8]
 8009f56:	9107      	str	r1, [sp, #28]
 8009f58:	9907      	ldr	r1, [sp, #28]
 8009f5a:	b139      	cbz	r1, 8009f6c <R3_2_Init+0x448>
 8009f5c:	9801      	ldr	r0, [sp, #4]
 8009f5e:	9907      	ldr	r1, [sp, #28]
 8009f60:	3901      	subs	r1, #1
 8009f62:	9107      	str	r1, [sp, #28]
 8009f64:	9907      	ldr	r1, [sp, #28]
 8009f66:	2900      	cmp	r1, #0
 8009f68:	d1f9      	bne.n	8009f5e <R3_2_Init+0x43a>
 8009f6a:	9001      	str	r0, [sp, #4]
 8009f6c:	68a1      	ldr	r1, [r4, #8]
 8009f6e:	9801      	ldr	r0, [sp, #4]
 8009f70:	f021 4140 	bic.w	r1, r1, #3221225472	; 0xc0000000
 8009f74:	f021 013f 	bic.w	r1, r1, #63	; 0x3f
 8009f78:	f041 4100 	orr.w	r1, r1, #2147483648	; 0x80000000
 8009f7c:	60a1      	str	r1, [r4, #8]
 8009f7e:	68a1      	ldr	r1, [r4, #8]
 8009f80:	2900      	cmp	r1, #0
 8009f82:	dbfc      	blt.n	8009f7e <R3_2_Init+0x45a>
 8009f84:	6821      	ldr	r1, [r4, #0]
 8009f86:	9001      	str	r0, [sp, #4]
 8009f88:	07cf      	lsls	r7, r1, #31
 8009f8a:	d409      	bmi.n	8009fa0 <R3_2_Init+0x47c>
 8009f8c:	4d14      	ldr	r5, [pc, #80]	; (8009fe0 <R3_2_Init+0x4bc>)
 8009f8e:	68a1      	ldr	r1, [r4, #8]
 8009f90:	4029      	ands	r1, r5
 8009f92:	f041 0101 	orr.w	r1, r1, #1
 8009f96:	60a1      	str	r1, [r4, #8]
 8009f98:	6821      	ldr	r1, [r4, #0]
 8009f9a:	07ce      	lsls	r6, r1, #31
 8009f9c:	d5f7      	bpl.n	8009f8e <R3_2_Init+0x46a>
 8009f9e:	9001      	str	r0, [sp, #4]
 8009fa0:	68a5      	ldr	r5, [r4, #8]
 8009fa2:	4e0f      	ldr	r6, [pc, #60]	; (8009fe0 <R3_2_Init+0x4bc>)
 8009fa4:	4035      	ands	r5, r6
 8009fa6:	f045 0508 	orr.w	r5, r5, #8
 8009faa:	60a5      	str	r5, [r4, #8]
 8009fac:	68a1      	ldr	r1, [r4, #8]
 8009fae:	4031      	ands	r1, r6
 8009fb0:	f041 0120 	orr.w	r1, r1, #32
 8009fb4:	60a1      	str	r1, [r4, #8]
 8009fb6:	68e1      	ldr	r1, [r4, #12]
 8009fb8:	f021 4100 	bic.w	r1, r1, #2147483648	; 0x80000000
 8009fbc:	f421 1100 	bic.w	r1, r1, #2097152	; 0x200000
 8009fc0:	f441 1100 	orr.w	r1, r1, #2097152	; 0x200000
 8009fc4:	60e1      	str	r1, [r4, #12]
 8009fc6:	e654      	b.n	8009c72 <R3_2_Init+0x14e>
 8009fc8:	2001      	movs	r0, #1
 8009fca:	6310      	str	r0, [r2, #48]	; 0x30
 8009fcc:	6950      	ldr	r0, [r2, #20]
 8009fce:	f040 0001 	orr.w	r0, r0, #1
 8009fd2:	6150      	str	r0, [r2, #20]
 8009fd4:	6311      	str	r1, [r2, #48]	; 0x30
 8009fd6:	e67b      	b.n	8009cd0 <R3_2_Init+0x1ac>
 8009fd8:	200005e0 	.word	0x200005e0
 8009fdc:	053e2d63 	.word	0x053e2d63
 8009fe0:	7fffffc0 	.word	0x7fffffc0

08009fe4 <R3_2_CurrentReadingPolarization>:
 8009fe4:	6f43      	ldr	r3, [r0, #116]	; 0x74
 8009fe6:	4945      	ldr	r1, [pc, #276]	; (800a0fc <R3_2_CurrentReadingPolarization+0x118>)
 8009fe8:	e92d 41f0 	stmdb	sp!, {r4, r5, r6, r7, r8, lr}
 8009fec:	2200      	movs	r2, #0
 8009fee:	689d      	ldr	r5, [r3, #8]
 8009ff0:	e9d3 7600 	ldrd	r7, r6, [r3]
 8009ff4:	f880 206c 	strb.w	r2, [r0, #108]	; 0x6c
 8009ff8:	6a2b      	ldr	r3, [r5, #32]
 8009ffa:	65c2      	str	r2, [r0, #92]	; 0x5c
 8009ffc:	f423 63aa 	bic.w	r3, r3, #1360	; 0x550
 800a000:	f023 0305 	bic.w	r3, r3, #5
 800a004:	e9c0 2218 	strd	r2, r2, [r0, #96]	; 0x60
 800a008:	622b      	str	r3, [r5, #32]
 800a00a:	4b3d      	ldr	r3, [pc, #244]	; (800a100 <R3_2_CurrentReadingPolarization+0x11c>)
 800a00c:	6183      	str	r3, [r0, #24]
 800a00e:	2280      	movs	r2, #128	; 0x80
 800a010:	2304      	movs	r3, #4
 800a012:	f8a0 206a 	strh.w	r2, [r0, #106]	; 0x6a
 800a016:	6041      	str	r1, [r0, #4]
 800a018:	f880 306d 	strb.w	r3, [r0, #109]	; 0x6d
 800a01c:	f880 303a 	strb.w	r3, [r0, #58]	; 0x3a
 800a020:	4604      	mov	r4, r0
 800a022:	f7ff fc6d 	bl	8009900 <R3_2_SwitchOnPWM>
 800a026:	4a37      	ldr	r2, [pc, #220]	; (800a104 <R3_2_CurrentReadingPolarization+0x120>)
 800a028:	686b      	ldr	r3, [r5, #4]
 800a02a:	4013      	ands	r3, r2
 800a02c:	2b70      	cmp	r3, #112	; 0x70
 800a02e:	d1fb      	bne.n	800a028 <R3_2_CurrentReadingPolarization+0x44>
 800a030:	68ba      	ldr	r2, [r7, #8]
 800a032:	4935      	ldr	r1, [pc, #212]	; (800a108 <R3_2_CurrentReadingPolarization+0x124>)
 800a034:	6f60      	ldr	r0, [r4, #116]	; 0x74
 800a036:	400a      	ands	r2, r1
 800a038:	f042 0208 	orr.w	r2, r2, #8
 800a03c:	60ba      	str	r2, [r7, #8]
 800a03e:	68b3      	ldr	r3, [r6, #8]
 800a040:	400b      	ands	r3, r1
 800a042:	f043 0308 	orr.w	r3, r3, #8
 800a046:	60b3      	str	r3, [r6, #8]
 800a048:	f104 0738 	add.w	r7, r4, #56	; 0x38
 800a04c:	f104 086c 	add.w	r8, r4, #108	; 0x6c
 800a050:	f890 20bb 	ldrb.w	r2, [r0, #187]	; 0xbb
 800a054:	4639      	mov	r1, r7
 800a056:	4643      	mov	r3, r8
 800a058:	4628      	mov	r0, r5
 800a05a:	f7ff f967 	bl	800932c <waitForPolarizationEnd>
 800a05e:	4620      	mov	r0, r4
 800a060:	f7ff fc92 	bl	8009988 <R3_2_SwitchOffPWM>
 800a064:	2600      	movs	r6, #0
 800a066:	4b29      	ldr	r3, [pc, #164]	; (800a10c <R3_2_CurrentReadingPolarization+0x128>)
 800a068:	6063      	str	r3, [r4, #4]
 800a06a:	4620      	mov	r0, r4
 800a06c:	f8a4 606c 	strh.w	r6, [r4, #108]	; 0x6c
 800a070:	f884 603a 	strb.w	r6, [r4, #58]	; 0x3a
 800a074:	f7ff fc44 	bl	8009900 <R3_2_SwitchOnPWM>
 800a078:	6f62      	ldr	r2, [r4, #116]	; 0x74
 800a07a:	4639      	mov	r1, r7
 800a07c:	4643      	mov	r3, r8
 800a07e:	f892 20bb 	ldrb.w	r2, [r2, #187]	; 0xbb
 800a082:	4f23      	ldr	r7, [pc, #140]	; (800a110 <R3_2_CurrentReadingPolarization+0x12c>)
 800a084:	4628      	mov	r0, r5
 800a086:	f7ff f951 	bl	800932c <waitForPolarizationEnd>
 800a08a:	4620      	mov	r0, r4
 800a08c:	f7ff fc7c 	bl	8009988 <R3_2_SwitchOffPWM>
 800a090:	e9d4 1217 	ldrd	r1, r2, [r4, #92]	; 0x5c
 800a094:	6e63      	ldr	r3, [r4, #100]	; 0x64
 800a096:	481f      	ldr	r0, [pc, #124]	; (800a114 <R3_2_CurrentReadingPolarization+0x130>)
 800a098:	6067      	str	r7, [r4, #4]
 800a09a:	0912      	lsrs	r2, r2, #4
 800a09c:	0909      	lsrs	r1, r1, #4
 800a09e:	e9c4 1217 	strd	r1, r2, [r4, #92]	; 0x5c
 800a0a2:	091b      	lsrs	r3, r3, #4
 800a0a4:	6663      	str	r3, [r4, #100]	; 0x64
 800a0a6:	69ab      	ldr	r3, [r5, #24]
 800a0a8:	61a0      	str	r0, [r4, #24]
 800a0aa:	f023 0308 	bic.w	r3, r3, #8
 800a0ae:	61ab      	str	r3, [r5, #24]
 800a0b0:	69aa      	ldr	r2, [r5, #24]
 800a0b2:	f8b4 3068 	ldrh.w	r3, [r4, #104]	; 0x68
 800a0b6:	f422 6200 	bic.w	r2, r2, #2048	; 0x800
 800a0ba:	61aa      	str	r2, [r5, #24]
 800a0bc:	69ea      	ldr	r2, [r5, #28]
 800a0be:	f022 0208 	bic.w	r2, r2, #8
 800a0c2:	61ea      	str	r2, [r5, #28]
 800a0c4:	636b      	str	r3, [r5, #52]	; 0x34
 800a0c6:	63ab      	str	r3, [r5, #56]	; 0x38
 800a0c8:	63eb      	str	r3, [r5, #60]	; 0x3c
 800a0ca:	69ab      	ldr	r3, [r5, #24]
 800a0cc:	f043 0308 	orr.w	r3, r3, #8
 800a0d0:	61ab      	str	r3, [r5, #24]
 800a0d2:	69ab      	ldr	r3, [r5, #24]
 800a0d4:	f443 6300 	orr.w	r3, r3, #2048	; 0x800
 800a0d8:	61ab      	str	r3, [r5, #24]
 800a0da:	69eb      	ldr	r3, [r5, #28]
 800a0dc:	f043 0308 	orr.w	r3, r3, #8
 800a0e0:	61eb      	str	r3, [r5, #28]
 800a0e2:	6a2b      	ldr	r3, [r5, #32]
 800a0e4:	f443 63aa 	orr.w	r3, r3, #1360	; 0x550
 800a0e8:	f043 0305 	orr.w	r3, r3, #5
 800a0ec:	2204      	movs	r2, #4
 800a0ee:	622b      	str	r3, [r5, #32]
 800a0f0:	f884 203a 	strb.w	r2, [r4, #58]	; 0x3a
 800a0f4:	f884 6070 	strb.w	r6, [r4, #112]	; 0x70
 800a0f8:	e8bd 81f0 	ldmia.w	sp!, {r4, r5, r6, r7, r8, pc}
 800a0fc:	08009831 	.word	0x08009831
 800a100:	08009781 	.word	0x08009781
 800a104:	02000070 	.word	0x02000070
 800a108:	7fffffc0 	.word	0x7fffffc0
 800a10c:	08009875 	.word	0x08009875
 800a110:	080095f5 	.word	0x080095f5
 800a114:	080097bd 	.word	0x080097bd

0800a118 <R3_2_TIMx_UP_IRQHandler>:
 800a118:	e92d 41f0 	stmdb	sp!, {r4, r5, r6, r7, r8, lr}
 800a11c:	6f42      	ldr	r2, [r0, #116]	; 0x74
 800a11e:	f890 503a 	ldrb.w	r5, [r0, #58]	; 0x3a
 800a122:	4604      	mov	r4, r0
 800a124:	e9d2 6002 	ldrd	r6, r0, [r2, #8]
 800a128:	e9d2 1800 	ldrd	r1, r8, [r2]
 800a12c:	2800      	cmp	r0, #0
 800a12e:	d03c      	beq.n	800a1aa <R3_2_TIMx_UP_IRQHandler+0x92>
 800a130:	6ccb      	ldr	r3, [r1, #76]	; 0x4c
 800a132:	2b00      	cmp	r3, #0
 800a134:	d1fc      	bne.n	800a130 <R3_2_TIMx_UP_IRQHandler+0x18>
 800a136:	b22d      	sxth	r5, r5
 800a138:	eb00 0385 	add.w	r3, r0, r5, lsl #2
 800a13c:	f8d3 c00c 	ldr.w	ip, [r3, #12]
 800a140:	f1bc 0f00 	cmp.w	ip, #0
 800a144:	d007      	beq.n	800a156 <R3_2_TIMx_UP_IRQHandler+0x3e>
 800a146:	f8dc 0000 	ldr.w	r0, [ip]
 800a14a:	6bdf      	ldr	r7, [r3, #60]	; 0x3c
 800a14c:	f420 7086 	bic.w	r0, r0, #268	; 0x10c
 800a150:	4338      	orrs	r0, r7
 800a152:	f8cc 0000 	str.w	r0, [ip]
 800a156:	f8d3 c024 	ldr.w	ip, [r3, #36]	; 0x24
 800a15a:	f1bc 0f00 	cmp.w	ip, #0
 800a15e:	d009      	beq.n	800a174 <R3_2_TIMx_UP_IRQHandler+0x5c>
 800a160:	f8dc 0000 	ldr.w	r0, [ip]
 800a164:	f8d3 e054 	ldr.w	lr, [r3, #84]	; 0x54
 800a168:	f420 7386 	bic.w	r3, r0, #268	; 0x10c
 800a16c:	ea43 030e 	orr.w	r3, r3, lr
 800a170:	f8cc 3000 	str.w	r3, [ip]
 800a174:	eb02 0285 	add.w	r2, r2, r5, lsl #2
 800a178:	f8b4 306a 	ldrh.w	r3, [r4, #106]	; 0x6a
 800a17c:	6fd0      	ldr	r0, [r2, #124]	; 0x7c
 800a17e:	f8d2 5094 	ldr.w	r5, [r2, #148]	; 0x94
 800a182:	4318      	orrs	r0, r3
 800a184:	432b      	orrs	r3, r5
 800a186:	64c8      	str	r0, [r1, #76]	; 0x4c
 800a188:	f8c8 304c 	str.w	r3, [r8, #76]	; 0x4c
 800a18c:	6873      	ldr	r3, [r6, #4]
 800a18e:	f023 7300 	bic.w	r3, r3, #33554432	; 0x2000000
 800a192:	f023 0370 	bic.w	r3, r3, #112	; 0x70
 800a196:	f043 0370 	orr.w	r3, r3, #112	; 0x70
 800a19a:	2280      	movs	r2, #128	; 0x80
 800a19c:	6073      	str	r3, [r6, #4]
 800a19e:	f104 0046 	add.w	r0, r4, #70	; 0x46
 800a1a2:	f8a4 206a 	strh.w	r2, [r4, #106]	; 0x6a
 800a1a6:	e8bd 81f0 	ldmia.w	sp!, {r4, r5, r6, r7, r8, pc}
 800a1aa:	b22d      	sxth	r5, r5
 800a1ac:	e7e2      	b.n	800a174 <R3_2_TIMx_UP_IRQHandler+0x5c>
 800a1ae:	bf00      	nop

0800a1b0 <R3_2_BRK2_IRQHandler>:
 800a1b0:	f890 3070 	ldrb.w	r3, [r0, #112]	; 0x70
 800a1b4:	b923      	cbnz	r3, 800a1c0 <R3_2_BRK2_IRQHandler+0x10>
 800a1b6:	6f43      	ldr	r3, [r0, #116]	; 0x74
 800a1b8:	f893 20ba 	ldrb.w	r2, [r3, #186]	; 0xba
 800a1bc:	2a02      	cmp	r2, #2
 800a1be:	d004      	beq.n	800a1ca <R3_2_BRK2_IRQHandler+0x1a>
 800a1c0:	2301      	movs	r3, #1
 800a1c2:	f880 306e 	strb.w	r3, [r0, #110]	; 0x6e
 800a1c6:	3046      	adds	r0, #70	; 0x46
 800a1c8:	4770      	bx	lr
 800a1ca:	b430      	push	{r4, r5}
 800a1cc:	e9d3 4108 	ldrd	r4, r1, [r3, #32]
 800a1d0:	f8b3 50ac 	ldrh.w	r5, [r3, #172]	; 0xac
 800a1d4:	6a9a      	ldr	r2, [r3, #40]	; 0x28
 800a1d6:	62a5      	str	r5, [r4, #40]	; 0x28
 800a1d8:	f8b3 40ae 	ldrh.w	r4, [r3, #174]	; 0xae
 800a1dc:	f8b3 30b0 	ldrh.w	r3, [r3, #176]	; 0xb0
 800a1e0:	628c      	str	r4, [r1, #40]	; 0x28
 800a1e2:	6293      	str	r3, [r2, #40]	; 0x28
 800a1e4:	2301      	movs	r3, #1
 800a1e6:	f880 306e 	strb.w	r3, [r0, #110]	; 0x6e
 800a1ea:	bc30      	pop	{r4, r5}
 800a1ec:	3046      	adds	r0, #70	; 0x46
 800a1ee:	4770      	bx	lr

0800a1f0 <R3_2_BRK_IRQHandler>:
 800a1f0:	6f42      	ldr	r2, [r0, #116]	; 0x74
 800a1f2:	4603      	mov	r3, r0
 800a1f4:	6890      	ldr	r0, [r2, #8]
 800a1f6:	6c42      	ldr	r2, [r0, #68]	; 0x44
 800a1f8:	2101      	movs	r1, #1
 800a1fa:	f442 6280 	orr.w	r2, r2, #1024	; 0x400
 800a1fe:	6442      	str	r2, [r0, #68]	; 0x44
 800a200:	f103 0046 	add.w	r0, r3, #70	; 0x46
 800a204:	f883 106f 	strb.w	r1, [r3, #111]	; 0x6f
 800a208:	f883 1070 	strb.w	r1, [r3, #112]	; 0x70
 800a20c:	4770      	bx	lr
 800a20e:	bf00      	nop

0800a210 <R3_2_IsOverCurrentOccurred>:
 800a210:	4602      	mov	r2, r0
 800a212:	f890 006f 	ldrb.w	r0, [r0, #111]	; 0x6f
 800a216:	b160      	cbz	r0, 800a232 <R3_2_IsOverCurrentOccurred+0x22>
 800a218:	2300      	movs	r3, #0
 800a21a:	f882 306f 	strb.w	r3, [r2, #111]	; 0x6f
 800a21e:	2142      	movs	r1, #66	; 0x42
 800a220:	2002      	movs	r0, #2
 800a222:	f892 306e 	ldrb.w	r3, [r2, #110]	; 0x6e
 800a226:	b11b      	cbz	r3, 800a230 <R3_2_IsOverCurrentOccurred+0x20>
 800a228:	2300      	movs	r3, #0
 800a22a:	4608      	mov	r0, r1
 800a22c:	f882 306e 	strb.w	r3, [r2, #110]	; 0x6e
 800a230:	4770      	bx	lr
 800a232:	2140      	movs	r1, #64	; 0x40
 800a234:	e7f5      	b.n	800a222 <R3_2_IsOverCurrentOccurred+0x12>
 800a236:	bf00      	nop

0800a238 <R3_2_RLDetectionModeEnable>:
 800a238:	f890 1047 	ldrb.w	r1, [r0, #71]	; 0x47
 800a23c:	b430      	push	{r4, r5}
 800a23e:	2900      	cmp	r1, #0
 800a240:	d13c      	bne.n	800a2bc <R3_2_RLDetectionModeEnable+0x84>
 800a242:	6f42      	ldr	r2, [r0, #116]	; 0x74
 800a244:	6893      	ldr	r3, [r2, #8]
 800a246:	f892 50ba 	ldrb.w	r5, [r2, #186]	; 0xba
 800a24a:	699a      	ldr	r2, [r3, #24]
 800a24c:	f422 3280 	bic.w	r2, r2, #65536	; 0x10000
 800a250:	f022 0273 	bic.w	r2, r2, #115	; 0x73
 800a254:	f042 0260 	orr.w	r2, r2, #96	; 0x60
 800a258:	619a      	str	r2, [r3, #24]
 800a25a:	6a1a      	ldr	r2, [r3, #32]
 800a25c:	f042 0201 	orr.w	r2, r2, #1
 800a260:	621a      	str	r2, [r3, #32]
 800a262:	6a1a      	ldr	r2, [r3, #32]
 800a264:	2d01      	cmp	r5, #1
 800a266:	f022 0204 	bic.w	r2, r2, #4
 800a26a:	621a      	str	r2, [r3, #32]
 800a26c:	f103 0418 	add.w	r4, r3, #24
 800a270:	6359      	str	r1, [r3, #52]	; 0x34
 800a272:	d030      	beq.n	800a2d6 <R3_2_RLDetectionModeEnable+0x9e>
 800a274:	2d02      	cmp	r5, #2
 800a276:	d10f      	bne.n	800a298 <R3_2_RLDetectionModeEnable+0x60>
 800a278:	699a      	ldr	r2, [r3, #24]
 800a27a:	f022 7280 	bic.w	r2, r2, #16777216	; 0x1000000
 800a27e:	f422 42e6 	bic.w	r2, r2, #29440	; 0x7300
 800a282:	f442 5200 	orr.w	r2, r2, #8192	; 0x2000
 800a286:	619a      	str	r2, [r3, #24]
 800a288:	6a1a      	ldr	r2, [r3, #32]
 800a28a:	f042 0210 	orr.w	r2, r2, #16
 800a28e:	621a      	str	r2, [r3, #32]
 800a290:	6a1a      	ldr	r2, [r3, #32]
 800a292:	f022 0240 	bic.w	r2, r2, #64	; 0x40
 800a296:	621a      	str	r2, [r3, #32]
 800a298:	6862      	ldr	r2, [r4, #4]
 800a29a:	f422 3280 	bic.w	r2, r2, #65536	; 0x10000
 800a29e:	f022 0273 	bic.w	r2, r2, #115	; 0x73
 800a2a2:	f042 0270 	orr.w	r2, r2, #112	; 0x70
 800a2a6:	6062      	str	r2, [r4, #4]
 800a2a8:	6a1a      	ldr	r2, [r3, #32]
 800a2aa:	6e01      	ldr	r1, [r0, #96]	; 0x60
 800a2ac:	f422 7280 	bic.w	r2, r2, #256	; 0x100
 800a2b0:	621a      	str	r2, [r3, #32]
 800a2b2:	6a1a      	ldr	r2, [r3, #32]
 800a2b4:	f422 6280 	bic.w	r2, r2, #1024	; 0x400
 800a2b8:	621a      	str	r2, [r3, #32]
 800a2ba:	65c1      	str	r1, [r0, #92]	; 0x5c
 800a2bc:	4b0e      	ldr	r3, [pc, #56]	; (800a2f8 <R3_2_RLDetectionModeEnable+0xc0>)
 800a2be:	490f      	ldr	r1, [pc, #60]	; (800a2fc <R3_2_RLDetectionModeEnable+0xc4>)
 800a2c0:	4a0f      	ldr	r2, [pc, #60]	; (800a300 <R3_2_RLDetectionModeEnable+0xc8>)
 800a2c2:	4c10      	ldr	r4, [pc, #64]	; (800a304 <R3_2_RLDetectionModeEnable+0xcc>)
 800a2c4:	6043      	str	r3, [r0, #4]
 800a2c6:	2301      	movs	r3, #1
 800a2c8:	6144      	str	r4, [r0, #20]
 800a2ca:	e9c0 2102 	strd	r2, r1, [r0, #8]
 800a2ce:	f880 3047 	strb.w	r3, [r0, #71]	; 0x47
 800a2d2:	bc30      	pop	{r4, r5}
 800a2d4:	4770      	bx	lr
 800a2d6:	699a      	ldr	r2, [r3, #24]
 800a2d8:	f022 7280 	bic.w	r2, r2, #16777216	; 0x1000000
 800a2dc:	f422 42e6 	bic.w	r2, r2, #29440	; 0x7300
 800a2e0:	f442 5280 	orr.w	r2, r2, #4096	; 0x1000
 800a2e4:	619a      	str	r2, [r3, #24]
 800a2e6:	6a1a      	ldr	r2, [r3, #32]
 800a2e8:	f022 0210 	bic.w	r2, r2, #16
 800a2ec:	621a      	str	r2, [r3, #32]
 800a2ee:	6a1a      	ldr	r2, [r3, #32]
 800a2f0:	f042 0240 	orr.w	r2, r2, #64	; 0x40
 800a2f4:	621a      	str	r2, [r3, #32]
 800a2f6:	e7cf      	b.n	800a298 <R3_2_RLDetectionModeEnable+0x60>
 800a2f8:	080099e5 	.word	0x080099e5
 800a2fc:	08009a81 	.word	0x08009a81
 800a300:	08009989 	.word	0x08009989
 800a304:	08009a3d 	.word	0x08009a3d

0800a308 <R3_2_RLDetectionModeDisable>:
 800a308:	f890 3047 	ldrb.w	r3, [r0, #71]	; 0x47
 800a30c:	2b00      	cmp	r3, #0
 800a30e:	d03b      	beq.n	800a388 <R3_2_RLDetectionModeDisable+0x80>
 800a310:	6f42      	ldr	r2, [r0, #116]	; 0x74
 800a312:	6893      	ldr	r3, [r2, #8]
 800a314:	b470      	push	{r4, r5, r6}
 800a316:	f892 50ba 	ldrb.w	r5, [r2, #186]	; 0xba
 800a31a:	4c40      	ldr	r4, [pc, #256]	; (800a41c <R3_2_RLDetectionModeDisable+0x114>)
 800a31c:	699a      	ldr	r2, [r3, #24]
 800a31e:	f8b0 6068 	ldrh.w	r6, [r0, #104]	; 0x68
 800a322:	4022      	ands	r2, r4
 800a324:	f042 0260 	orr.w	r2, r2, #96	; 0x60
 800a328:	619a      	str	r2, [r3, #24]
 800a32a:	6a19      	ldr	r1, [r3, #32]
 800a32c:	2d01      	cmp	r5, #1
 800a32e:	f041 0101 	orr.w	r1, r1, #1
 800a332:	6219      	str	r1, [r3, #32]
 800a334:	ea4f 0656 	mov.w	r6, r6, lsr #1
 800a338:	d027      	beq.n	800a38a <R3_2_RLDetectionModeDisable+0x82>
 800a33a:	2d02      	cmp	r5, #2
 800a33c:	d049      	beq.n	800a3d2 <R3_2_RLDetectionModeDisable+0xca>
 800a33e:	635e      	str	r6, [r3, #52]	; 0x34
 800a340:	6999      	ldr	r1, [r3, #24]
 800a342:	f021 7180 	bic.w	r1, r1, #16777216	; 0x1000000
 800a346:	f421 41e6 	bic.w	r1, r1, #29440	; 0x7300
 800a34a:	f441 41c0 	orr.w	r1, r1, #24576	; 0x6000
 800a34e:	6199      	str	r1, [r3, #24]
 800a350:	6a19      	ldr	r1, [r3, #32]
 800a352:	f041 0110 	orr.w	r1, r1, #16
 800a356:	6219      	str	r1, [r3, #32]
 800a358:	639e      	str	r6, [r3, #56]	; 0x38
 800a35a:	69d9      	ldr	r1, [r3, #28]
 800a35c:	400c      	ands	r4, r1
 800a35e:	f044 0460 	orr.w	r4, r4, #96	; 0x60
 800a362:	61dc      	str	r4, [r3, #28]
 800a364:	6a19      	ldr	r1, [r3, #32]
 800a366:	f441 7180 	orr.w	r1, r1, #256	; 0x100
 800a36a:	6219      	str	r1, [r3, #32]
 800a36c:	492c      	ldr	r1, [pc, #176]	; (800a420 <R3_2_RLDetectionModeDisable+0x118>)
 800a36e:	4a2d      	ldr	r2, [pc, #180]	; (800a424 <R3_2_RLDetectionModeDisable+0x11c>)
 800a370:	63de      	str	r6, [r3, #60]	; 0x3c
 800a372:	4d2d      	ldr	r5, [pc, #180]	; (800a428 <R3_2_RLDetectionModeDisable+0x120>)
 800a374:	4c2d      	ldr	r4, [pc, #180]	; (800a42c <R3_2_RLDetectionModeDisable+0x124>)
 800a376:	6045      	str	r5, [r0, #4]
 800a378:	2300      	movs	r3, #0
 800a37a:	6144      	str	r4, [r0, #20]
 800a37c:	e9c0 2102 	strd	r2, r1, [r0, #8]
 800a380:	f880 3047 	strb.w	r3, [r0, #71]	; 0x47
 800a384:	bc70      	pop	{r4, r5, r6}
 800a386:	4770      	bx	lr
 800a388:	4770      	bx	lr
 800a38a:	6a19      	ldr	r1, [r3, #32]
 800a38c:	f041 0104 	orr.w	r1, r1, #4
 800a390:	6219      	str	r1, [r3, #32]
 800a392:	635e      	str	r6, [r3, #52]	; 0x34
 800a394:	6999      	ldr	r1, [r3, #24]
 800a396:	f021 7180 	bic.w	r1, r1, #16777216	; 0x1000000
 800a39a:	f421 41e6 	bic.w	r1, r1, #29440	; 0x7300
 800a39e:	f441 41c0 	orr.w	r1, r1, #24576	; 0x6000
 800a3a2:	6199      	str	r1, [r3, #24]
 800a3a4:	6a19      	ldr	r1, [r3, #32]
 800a3a6:	f041 0110 	orr.w	r1, r1, #16
 800a3aa:	6219      	str	r1, [r3, #32]
 800a3ac:	6a19      	ldr	r1, [r3, #32]
 800a3ae:	f041 0140 	orr.w	r1, r1, #64	; 0x40
 800a3b2:	6219      	str	r1, [r3, #32]
 800a3b4:	639e      	str	r6, [r3, #56]	; 0x38
 800a3b6:	69d9      	ldr	r1, [r3, #28]
 800a3b8:	400c      	ands	r4, r1
 800a3ba:	f044 0460 	orr.w	r4, r4, #96	; 0x60
 800a3be:	61dc      	str	r4, [r3, #28]
 800a3c0:	6a19      	ldr	r1, [r3, #32]
 800a3c2:	f441 7180 	orr.w	r1, r1, #256	; 0x100
 800a3c6:	6219      	str	r1, [r3, #32]
 800a3c8:	6a19      	ldr	r1, [r3, #32]
 800a3ca:	f441 6180 	orr.w	r1, r1, #1024	; 0x400
 800a3ce:	6219      	str	r1, [r3, #32]
 800a3d0:	e7cc      	b.n	800a36c <R3_2_RLDetectionModeDisable+0x64>
 800a3d2:	6a19      	ldr	r1, [r3, #32]
 800a3d4:	f021 0104 	bic.w	r1, r1, #4
 800a3d8:	6219      	str	r1, [r3, #32]
 800a3da:	635e      	str	r6, [r3, #52]	; 0x34
 800a3dc:	6999      	ldr	r1, [r3, #24]
 800a3de:	f021 7180 	bic.w	r1, r1, #16777216	; 0x1000000
 800a3e2:	f421 41e6 	bic.w	r1, r1, #29440	; 0x7300
 800a3e6:	f441 41c0 	orr.w	r1, r1, #24576	; 0x6000
 800a3ea:	6199      	str	r1, [r3, #24]
 800a3ec:	6a19      	ldr	r1, [r3, #32]
 800a3ee:	f041 0110 	orr.w	r1, r1, #16
 800a3f2:	6219      	str	r1, [r3, #32]
 800a3f4:	6a19      	ldr	r1, [r3, #32]
 800a3f6:	f021 0140 	bic.w	r1, r1, #64	; 0x40
 800a3fa:	6219      	str	r1, [r3, #32]
 800a3fc:	639e      	str	r6, [r3, #56]	; 0x38
 800a3fe:	69d9      	ldr	r1, [r3, #28]
 800a400:	400c      	ands	r4, r1
 800a402:	f044 0460 	orr.w	r4, r4, #96	; 0x60
 800a406:	61dc      	str	r4, [r3, #28]
 800a408:	6a19      	ldr	r1, [r3, #32]
 800a40a:	f441 7180 	orr.w	r1, r1, #256	; 0x100
 800a40e:	6219      	str	r1, [r3, #32]
 800a410:	6a19      	ldr	r1, [r3, #32]
 800a412:	f421 6180 	bic.w	r1, r1, #1024	; 0x400
 800a416:	6219      	str	r1, [r3, #32]
 800a418:	e7a8      	b.n	800a36c <R3_2_RLDetectionModeDisable+0x64>
 800a41a:	bf00      	nop
 800a41c:	fffeff8c 	.word	0xfffeff8c
 800a420:	08009901 	.word	0x08009901
 800a424:	08009989 	.word	0x08009989
 800a428:	080095f5 	.word	0x080095f5
 800a42c:	080098b1 	.word	0x080098b1

0800a430 <R3_2_RLDetectionModeSetDuty>:
 800a430:	6f43      	ldr	r3, [r0, #116]	; 0x74
 800a432:	689b      	ldr	r3, [r3, #8]
 800a434:	b470      	push	{r4, r5, r6}
 800a436:	4602      	mov	r2, r0
 800a438:	f8b0 4068 	ldrh.w	r4, [r0, #104]	; 0x68
 800a43c:	69d8      	ldr	r0, [r3, #28]
 800a43e:	f8b2 6056 	ldrh.w	r6, [r2, #86]	; 0x56
 800a442:	f020 7080 	bic.w	r0, r0, #16777216	; 0x1000000
 800a446:	fb01 f104 	mul.w	r1, r1, r4
 800a44a:	f420 40e6 	bic.w	r0, r0, #29440	; 0x7300
 800a44e:	0c09      	lsrs	r1, r1, #16
 800a450:	f440 40e0 	orr.w	r0, r0, #28672	; 0x7000
 800a454:	8651      	strh	r1, [r2, #50]	; 0x32
 800a456:	1ba4      	subs	r4, r4, r6
 800a458:	61d8      	str	r0, [r3, #28]
 800a45a:	f8b2 0058 	ldrh.w	r0, [r2, #88]	; 0x58
 800a45e:	641c      	str	r4, [r3, #64]	; 0x40
 800a460:	63d8      	str	r0, [r3, #60]	; 0x3c
 800a462:	6359      	str	r1, [r3, #52]	; 0x34
 800a464:	6859      	ldr	r1, [r3, #4]
 800a466:	8f10      	ldrh	r0, [r2, #56]	; 0x38
 800a468:	f021 7100 	bic.w	r1, r1, #33554432	; 0x2000000
 800a46c:	f021 0170 	bic.w	r1, r1, #112	; 0x70
 800a470:	2503      	movs	r5, #3
 800a472:	f041 0170 	orr.w	r1, r1, #112	; 0x70
 800a476:	6059      	str	r1, [r3, #4]
 800a478:	2801      	cmp	r0, #1
 800a47a:	f882 503a 	strb.w	r5, [r2, #58]	; 0x3a
 800a47e:	685b      	ldr	r3, [r3, #4]
 800a480:	d006      	beq.n	800a490 <R3_2_RLDetectionModeSetDuty+0x60>
 800a482:	4a05      	ldr	r2, [pc, #20]	; (800a498 <R3_2_RLDetectionModeSetDuty+0x68>)
 800a484:	4213      	tst	r3, r2
 800a486:	bf14      	ite	ne
 800a488:	2001      	movne	r0, #1
 800a48a:	2000      	moveq	r0, #0
 800a48c:	bc70      	pop	{r4, r5, r6}
 800a48e:	4770      	bx	lr
 800a490:	2300      	movs	r3, #0
 800a492:	8713      	strh	r3, [r2, #56]	; 0x38
 800a494:	bc70      	pop	{r4, r5, r6}
 800a496:	4770      	bx	lr
 800a498:	02000070 	.word	0x02000070

0800a49c <RVBS_Clear>:
 800a49c:	8b42      	ldrh	r2, [r0, #26]
 800a49e:	8b81      	ldrh	r1, [r0, #28]
 800a4a0:	8b03      	ldrh	r3, [r0, #24]
 800a4a2:	440a      	add	r2, r1
 800a4a4:	0852      	lsrs	r2, r2, #1
 800a4a6:	b18b      	cbz	r3, 800a4cc <RVBS_Clear+0x30>
 800a4a8:	b410      	push	{r4}
 800a4aa:	6a04      	ldr	r4, [r0, #32]
 800a4ac:	2300      	movs	r3, #0
 800a4ae:	f824 2013 	strh.w	r2, [r4, r3, lsl #1]
 800a4b2:	3301      	adds	r3, #1
 800a4b4:	8b01      	ldrh	r1, [r0, #24]
 800a4b6:	b29b      	uxth	r3, r3
 800a4b8:	4299      	cmp	r1, r3
 800a4ba:	d8f8      	bhi.n	800a4ae <RVBS_Clear+0x12>
 800a4bc:	2300      	movs	r3, #0
 800a4be:	8082      	strh	r2, [r0, #4]
 800a4c0:	80c2      	strh	r2, [r0, #6]
 800a4c2:	f880 3025 	strb.w	r3, [r0, #37]	; 0x25
 800a4c6:	f85d 4b04 	ldr.w	r4, [sp], #4
 800a4ca:	4770      	bx	lr
 800a4cc:	2300      	movs	r3, #0
 800a4ce:	8082      	strh	r2, [r0, #4]
 800a4d0:	80c2      	strh	r2, [r0, #6]
 800a4d2:	f880 3025 	strb.w	r3, [r0, #37]	; 0x25
 800a4d6:	4770      	bx	lr

0800a4d8 <RVBS_Init>:
 800a4d8:	b510      	push	{r4, lr}
 800a4da:	4604      	mov	r4, r0
 800a4dc:	300c      	adds	r0, #12
 800a4de:	f7f8 fa51 	bl	8002984 <RCM_RegisterRegConv>
 800a4e2:	f884 0026 	strb.w	r0, [r4, #38]	; 0x26
 800a4e6:	4620      	mov	r0, r4
 800a4e8:	f7ff ffd8 	bl	800a49c <RVBS_Clear>
 800a4ec:	bd10      	pop	{r4, pc}
 800a4ee:	bf00      	nop

0800a4f0 <RVBS_CheckFaultState>:
 800a4f0:	88c3      	ldrh	r3, [r0, #6]
 800a4f2:	8b42      	ldrh	r2, [r0, #26]
 800a4f4:	429a      	cmp	r2, r3
 800a4f6:	d305      	bcc.n	800a504 <RVBS_CheckFaultState+0x14>
 800a4f8:	8b80      	ldrh	r0, [r0, #28]
 800a4fa:	4298      	cmp	r0, r3
 800a4fc:	bf8c      	ite	hi
 800a4fe:	2004      	movhi	r0, #4
 800a500:	2000      	movls	r0, #0
 800a502:	4770      	bx	lr
 800a504:	2002      	movs	r0, #2
 800a506:	4770      	bx	lr

0800a508 <RVBS_CalcAvVbus>:
 800a508:	b570      	push	{r4, r5, r6, lr}
 800a50a:	4604      	mov	r4, r0
 800a50c:	f890 0026 	ldrb.w	r0, [r0, #38]	; 0x26
 800a510:	f7f8 faf8 	bl	8002b04 <RCM_ExecRegularConv>
 800a514:	f64f 73ff 	movw	r3, #65535	; 0xffff
 800a518:	4298      	cmp	r0, r3
 800a51a:	d01b      	beq.n	800a554 <RVBS_CalcAvVbus+0x4c>
 800a51c:	6a26      	ldr	r6, [r4, #32]
 800a51e:	f894 3025 	ldrb.w	r3, [r4, #37]	; 0x25
 800a522:	f826 0013 	strh.w	r0, [r6, r3, lsl #1]
 800a526:	8b25      	ldrh	r5, [r4, #24]
 800a528:	b1cd      	cbz	r5, 800a55e <RVBS_CalcAvVbus+0x56>
 800a52a:	2300      	movs	r3, #0
 800a52c:	461a      	mov	r2, r3
 800a52e:	f836 1013 	ldrh.w	r1, [r6, r3, lsl #1]
 800a532:	3301      	adds	r3, #1
 800a534:	b2db      	uxtb	r3, r3
 800a536:	42ab      	cmp	r3, r5
 800a538:	440a      	add	r2, r1
 800a53a:	d3f8      	bcc.n	800a52e <RVBS_CalcAvVbus+0x26>
 800a53c:	fbb2 f2f5 	udiv	r2, r2, r5
 800a540:	f894 3025 	ldrb.w	r3, [r4, #37]	; 0x25
 800a544:	80e2      	strh	r2, [r4, #6]
 800a546:	3d01      	subs	r5, #1
 800a548:	42ab      	cmp	r3, r5
 800a54a:	80a0      	strh	r0, [r4, #4]
 800a54c:	da09      	bge.n	800a562 <RVBS_CalcAvVbus+0x5a>
 800a54e:	3301      	adds	r3, #1
 800a550:	f884 3025 	strb.w	r3, [r4, #37]	; 0x25
 800a554:	4620      	mov	r0, r4
 800a556:	f7ff ffcb 	bl	800a4f0 <RVBS_CheckFaultState>
 800a55a:	8120      	strh	r0, [r4, #8]
 800a55c:	bd70      	pop	{r4, r5, r6, pc}
 800a55e:	80e5      	strh	r5, [r4, #6]
 800a560:	80a0      	strh	r0, [r4, #4]
 800a562:	2300      	movs	r3, #0
 800a564:	f884 3025 	strb.w	r3, [r4, #37]	; 0x25
 800a568:	4620      	mov	r0, r4
 800a56a:	f7ff ffc1 	bl	800a4f0 <RVBS_CheckFaultState>
 800a56e:	8120      	strh	r0, [r4, #8]
 800a570:	bd70      	pop	{r4, r5, r6, pc}
 800a572:	bf00      	nop

0800a574 <REMNG_Init>:
 800a574:	2300      	movs	r3, #0
 800a576:	2201      	movs	r2, #1
 800a578:	6142      	str	r2, [r0, #20]
 800a57a:	e9c0 3301 	strd	r3, r3, [r0, #4]
 800a57e:	e9c0 3303 	strd	r3, r3, [r0, #12]
 800a582:	4770      	bx	lr

0800a584 <SPD_GetElAngle>:
 800a584:	f9b0 0004 	ldrsh.w	r0, [r0, #4]
 800a588:	4770      	bx	lr
 800a58a:	bf00      	nop

0800a58c <SPD_GetAvrgMecSpeedUnit>:
 800a58c:	f9b0 000c 	ldrsh.w	r0, [r0, #12]
 800a590:	4770      	bx	lr
 800a592:	bf00      	nop

0800a594 <SPD_GetInstElSpeedDpp>:
 800a594:	f9b0 0010 	ldrsh.w	r0, [r0, #16]
 800a598:	4770      	bx	lr
 800a59a:	bf00      	nop

0800a59c <SPD_IsMecSpeedReliable>:
 800a59c:	f9b1 1000 	ldrsh.w	r1, [r1]
 800a5a0:	b430      	push	{r4, r5}
 800a5a2:	b28a      	uxth	r2, r1
 800a5a4:	2900      	cmp	r1, #0
 800a5a6:	bfb8      	it	lt
 800a5a8:	4252      	neglt	r2, r2
 800a5aa:	8ac5      	ldrh	r5, [r0, #22]
 800a5ac:	78c4      	ldrb	r4, [r0, #3]
 800a5ae:	7803      	ldrb	r3, [r0, #0]
 800a5b0:	8a81      	ldrh	r1, [r0, #20]
 800a5b2:	bfb8      	it	lt
 800a5b4:	b292      	uxthlt	r2, r2
 800a5b6:	4295      	cmp	r5, r2
 800a5b8:	d819      	bhi.n	800a5ee <SPD_IsMecSpeedReliable+0x52>
 800a5ba:	4291      	cmp	r1, r2
 800a5bc:	bf2c      	ite	cs
 800a5be:	2200      	movcs	r2, #0
 800a5c0:	2201      	movcc	r2, #1
 800a5c2:	f9b0 5012 	ldrsh.w	r5, [r0, #18]
 800a5c6:	b2a9      	uxth	r1, r5
 800a5c8:	2d00      	cmp	r5, #0
 800a5ca:	bfb8      	it	lt
 800a5cc:	4249      	neglt	r1, r1
 800a5ce:	8b05      	ldrh	r5, [r0, #24]
 800a5d0:	bfb8      	it	lt
 800a5d2:	b289      	uxthlt	r1, r1
 800a5d4:	428d      	cmp	r5, r1
 800a5d6:	d300      	bcc.n	800a5da <SPD_IsMecSpeedReliable+0x3e>
 800a5d8:	b15a      	cbz	r2, 800a5f2 <SPD_IsMecSpeedReliable+0x56>
 800a5da:	429c      	cmp	r4, r3
 800a5dc:	d901      	bls.n	800a5e2 <SPD_IsMecSpeedReliable+0x46>
 800a5de:	3301      	adds	r3, #1
 800a5e0:	b2db      	uxtb	r3, r3
 800a5e2:	7003      	strb	r3, [r0, #0]
 800a5e4:	1b18      	subs	r0, r3, r4
 800a5e6:	bf18      	it	ne
 800a5e8:	2001      	movne	r0, #1
 800a5ea:	bc30      	pop	{r4, r5}
 800a5ec:	4770      	bx	lr
 800a5ee:	2201      	movs	r2, #1
 800a5f0:	e7e7      	b.n	800a5c2 <SPD_IsMecSpeedReliable+0x26>
 800a5f2:	429c      	cmp	r4, r3
 800a5f4:	bf88      	it	hi
 800a5f6:	2300      	movhi	r3, #0
 800a5f8:	e7f3      	b.n	800a5e2 <SPD_IsMecSpeedReliable+0x46>
 800a5fa:	bf00      	nop

0800a5fc <SPD_GetS16Speed>:
 800a5fc:	f9b0 300c 	ldrsh.w	r3, [r0, #12]
 800a600:	f9b0 0014 	ldrsh.w	r0, [r0, #20]
 800a604:	ebc3 33c3 	rsb	r3, r3, r3, lsl #15
 800a608:	fb93 f0f0 	sdiv	r0, r3, r0
 800a60c:	b200      	sxth	r0, r0
 800a60e:	4770      	bx	lr

0800a610 <STC_Init>:
 800a610:	b430      	push	{r4, r5}
 800a612:	f9b0 502c 	ldrsh.w	r5, [r0, #44]	; 0x2c
 800a616:	f9b0 402e 	ldrsh.w	r4, [r0, #46]	; 0x2e
 800a61a:	6101      	str	r1, [r0, #16]
 800a61c:	2300      	movs	r3, #0
 800a61e:	042d      	lsls	r5, r5, #16
 800a620:	0424      	lsls	r4, r4, #16
 800a622:	f890 102a 	ldrb.w	r1, [r0, #42]	; 0x2a
 800a626:	6142      	str	r2, [r0, #20]
 800a628:	e9c0 5401 	strd	r5, r4, [r0, #4]
 800a62c:	7001      	strb	r1, [r0, #0]
 800a62e:	8043      	strh	r3, [r0, #2]
 800a630:	60c3      	str	r3, [r0, #12]
 800a632:	6183      	str	r3, [r0, #24]
 800a634:	bc30      	pop	{r4, r5}
 800a636:	4770      	bx	lr

0800a638 <STC_SetSpeedSensor>:
 800a638:	6141      	str	r1, [r0, #20]
 800a63a:	4770      	bx	lr

0800a63c <STC_GetSpeedSensor>:
 800a63c:	6940      	ldr	r0, [r0, #20]
 800a63e:	4770      	bx	lr

0800a640 <STC_Clear>:
 800a640:	7803      	ldrb	r3, [r0, #0]
 800a642:	2b01      	cmp	r3, #1
 800a644:	d000      	beq.n	800a648 <STC_Clear+0x8>
 800a646:	4770      	bx	lr
 800a648:	6900      	ldr	r0, [r0, #16]
 800a64a:	2100      	movs	r1, #0
 800a64c:	f7fe bdb0 	b.w	80091b0 <PID_SetIntegralTerm>

0800a650 <STC_GetMecSpeedRefUnit>:
 800a650:	6840      	ldr	r0, [r0, #4]
 800a652:	2800      	cmp	r0, #0
 800a654:	bfbc      	itt	lt
 800a656:	f500 407f 	addlt.w	r0, r0, #65280	; 0xff00
 800a65a:	30ff      	addlt	r0, #255	; 0xff
 800a65c:	1400      	asrs	r0, r0, #16
 800a65e:	4770      	bx	lr

0800a660 <STC_GetTorqueRef>:
 800a660:	6880      	ldr	r0, [r0, #8]
 800a662:	2800      	cmp	r0, #0
 800a664:	bfbc      	itt	lt
 800a666:	f500 407f 	addlt.w	r0, r0, #65280	; 0xff00
 800a66a:	30ff      	addlt	r0, #255	; 0xff
 800a66c:	1400      	asrs	r0, r0, #16
 800a66e:	4770      	bx	lr

0800a670 <STC_SetControlMode>:
 800a670:	2300      	movs	r3, #0
 800a672:	7001      	strb	r1, [r0, #0]
 800a674:	60c3      	str	r3, [r0, #12]
 800a676:	4770      	bx	lr

0800a678 <STC_ExecRamp>:
 800a678:	7803      	ldrb	r3, [r0, #0]
 800a67a:	b570      	push	{r4, r5, r6, lr}
 800a67c:	4604      	mov	r4, r0
 800a67e:	460d      	mov	r5, r1
 800a680:	4616      	mov	r6, r2
 800a682:	b313      	cbz	r3, 800a6ca <STC_ExecRamp+0x52>
 800a684:	6840      	ldr	r0, [r0, #4]
 800a686:	8be3      	ldrh	r3, [r4, #30]
 800a688:	2800      	cmp	r0, #0
 800a68a:	bfbc      	itt	lt
 800a68c:	f500 407f 	addlt.w	r0, r0, #65280	; 0xff00
 800a690:	30ff      	addlt	r0, #255	; 0xff
 800a692:	428b      	cmp	r3, r1
 800a694:	ea4f 4020 	mov.w	r0, r0, asr #16
 800a698:	db1c      	blt.n	800a6d4 <STC_ExecRamp+0x5c>
 800a69a:	f9b4 3024 	ldrsh.w	r3, [r4, #36]	; 0x24
 800a69e:	428b      	cmp	r3, r1
 800a6a0:	dc18      	bgt.n	800a6d4 <STC_ExecRamp+0x5c>
 800a6a2:	8c23      	ldrh	r3, [r4, #32]
 800a6a4:	428b      	cmp	r3, r1
 800a6a6:	dd03      	ble.n	800a6b0 <STC_ExecRamp+0x38>
 800a6a8:	f9b4 3022 	ldrsh.w	r3, [r4, #34]	; 0x22
 800a6ac:	428b      	cmp	r3, r1
 800a6ae:	db11      	blt.n	800a6d4 <STC_ExecRamp+0x5c>
 800a6b0:	b9c6      	cbnz	r6, 800a6e4 <STC_ExecRamp+0x6c>
 800a6b2:	7823      	ldrb	r3, [r4, #0]
 800a6b4:	042d      	lsls	r5, r5, #16
 800a6b6:	2b01      	cmp	r3, #1
 800a6b8:	f04f 0300 	mov.w	r3, #0
 800a6bc:	bf0c      	ite	eq
 800a6be:	6065      	streq	r5, [r4, #4]
 800a6c0:	60a5      	strne	r5, [r4, #8]
 800a6c2:	60e3      	str	r3, [r4, #12]
 800a6c4:	61a3      	str	r3, [r4, #24]
 800a6c6:	2001      	movs	r0, #1
 800a6c8:	bd70      	pop	{r4, r5, r6, pc}
 800a6ca:	f7ff ffc9 	bl	800a660 <STC_GetTorqueRef>
 800a6ce:	8ce3      	ldrh	r3, [r4, #38]	; 0x26
 800a6d0:	42ab      	cmp	r3, r5
 800a6d2:	da01      	bge.n	800a6d8 <STC_ExecRamp+0x60>
 800a6d4:	2000      	movs	r0, #0
 800a6d6:	bd70      	pop	{r4, r5, r6, pc}
 800a6d8:	f9b4 3028 	ldrsh.w	r3, [r4, #40]	; 0x28
 800a6dc:	42ab      	cmp	r3, r5
 800a6de:	dcf9      	bgt.n	800a6d4 <STC_ExecRamp+0x5c>
 800a6e0:	2e00      	cmp	r6, #0
 800a6e2:	d0e6      	beq.n	800a6b2 <STC_ExecRamp+0x3a>
 800a6e4:	8ba3      	ldrh	r3, [r4, #28]
 800a6e6:	4a08      	ldr	r2, [pc, #32]	; (800a708 <STC_ExecRamp+0x90>)
 800a6e8:	8065      	strh	r5, [r4, #2]
 800a6ea:	fb06 f303 	mul.w	r3, r6, r3
 800a6ee:	fba2 2303 	umull	r2, r3, r2, r3
 800a6f2:	099b      	lsrs	r3, r3, #6
 800a6f4:	3301      	adds	r3, #1
 800a6f6:	1a2d      	subs	r5, r5, r0
 800a6f8:	042d      	lsls	r5, r5, #16
 800a6fa:	60e3      	str	r3, [r4, #12]
 800a6fc:	fb95 f5f3 	sdiv	r5, r5, r3
 800a700:	2001      	movs	r0, #1
 800a702:	61a5      	str	r5, [r4, #24]
 800a704:	bd70      	pop	{r4, r5, r6, pc}
 800a706:	bf00      	nop
 800a708:	10624dd3 	.word	0x10624dd3

0800a70c <STC_StopRamp>:
 800a70c:	2300      	movs	r3, #0
 800a70e:	60c3      	str	r3, [r0, #12]
 800a710:	6183      	str	r3, [r0, #24]
 800a712:	4770      	bx	lr

0800a714 <STC_CalcTorqueReference>:
 800a714:	b570      	push	{r4, r5, r6, lr}
 800a716:	e9d0 1501 	ldrd	r1, r5, [r0, #4]
 800a71a:	7802      	ldrb	r2, [r0, #0]
 800a71c:	68c3      	ldr	r3, [r0, #12]
 800a71e:	2a00      	cmp	r2, #0
 800a720:	bf18      	it	ne
 800a722:	460d      	movne	r5, r1
 800a724:	2b01      	cmp	r3, #1
 800a726:	d910      	bls.n	800a74a <STC_CalcTorqueReference+0x36>
 800a728:	6981      	ldr	r1, [r0, #24]
 800a72a:	3b01      	subs	r3, #1
 800a72c:	60c3      	str	r3, [r0, #12]
 800a72e:	440d      	add	r5, r1
 800a730:	2d00      	cmp	r5, #0
 800a732:	4629      	mov	r1, r5
 800a734:	bfbc      	itt	lt
 800a736:	f505 417f 	addlt.w	r1, r5, #65280	; 0xff00
 800a73a:	31ff      	addlt	r1, #255	; 0xff
 800a73c:	2a01      	cmp	r2, #1
 800a73e:	ea4f 4621 	mov.w	r6, r1, asr #16
 800a742:	d009      	beq.n	800a758 <STC_CalcTorqueReference+0x44>
 800a744:	6085      	str	r5, [r0, #8]
 800a746:	b230      	sxth	r0, r6
 800a748:	bd70      	pop	{r4, r5, r6, pc}
 800a74a:	d1f1      	bne.n	800a730 <STC_CalcTorqueReference+0x1c>
 800a74c:	f9b0 5002 	ldrsh.w	r5, [r0, #2]
 800a750:	2300      	movs	r3, #0
 800a752:	042d      	lsls	r5, r5, #16
 800a754:	60c3      	str	r3, [r0, #12]
 800a756:	e7eb      	b.n	800a730 <STC_CalcTorqueReference+0x1c>
 800a758:	4604      	mov	r4, r0
 800a75a:	6940      	ldr	r0, [r0, #20]
 800a75c:	f7ff ff16 	bl	800a58c <SPD_GetAvrgMecSpeedUnit>
 800a760:	1a30      	subs	r0, r6, r0
 800a762:	b201      	sxth	r1, r0
 800a764:	6920      	ldr	r0, [r4, #16]
 800a766:	f7fe fd2f 	bl	80091c8 <PI_Controller>
 800a76a:	0403      	lsls	r3, r0, #16
 800a76c:	e9c4 5301 	strd	r5, r3, [r4, #4]
 800a770:	bd70      	pop	{r4, r5, r6, pc}
 800a772:	bf00      	nop

0800a774 <STC_GetMecSpeedRefUnitDefault>:
 800a774:	f9b0 002c 	ldrsh.w	r0, [r0, #44]	; 0x2c
 800a778:	4770      	bx	lr
 800a77a:	bf00      	nop

0800a77c <STC_GetMaxAppPositiveMecSpeedUnit>:
 800a77c:	8bc0      	ldrh	r0, [r0, #30]
 800a77e:	4770      	bx	lr

0800a780 <STC_GetMinAppNegativeMecSpeedUnit>:
 800a780:	f9b0 0024 	ldrsh.w	r0, [r0, #36]	; 0x24
 800a784:	4770      	bx	lr
 800a786:	bf00      	nop

0800a788 <STC_GetDefaultIqdref>:
 800a788:	f8d0 302e 	ldr.w	r3, [r0, #46]	; 0x2e
 800a78c:	2000      	movs	r0, #0
 800a78e:	b29a      	uxth	r2, r3
 800a790:	f362 000f 	bfi	r0, r2, #0, #16
 800a794:	0c1b      	lsrs	r3, r3, #16
 800a796:	b082      	sub	sp, #8
 800a798:	f363 401f 	bfi	r0, r3, #16, #16
 800a79c:	b002      	add	sp, #8
 800a79e:	4770      	bx	lr

0800a7a0 <STC_ForceSpeedReferenceToCurrentSpeed>:
 800a7a0:	b510      	push	{r4, lr}
 800a7a2:	4604      	mov	r4, r0
 800a7a4:	6940      	ldr	r0, [r0, #20]
 800a7a6:	f7ff fef1 	bl	800a58c <SPD_GetAvrgMecSpeedUnit>
 800a7aa:	0400      	lsls	r0, r0, #16
 800a7ac:	6060      	str	r0, [r4, #4]
 800a7ae:	bd10      	pop	{r4, pc}

0800a7b0 <STM_Init>:
 800a7b0:	2300      	movs	r3, #0
 800a7b2:	7003      	strb	r3, [r0, #0]
 800a7b4:	f8c0 3002 	str.w	r3, [r0, #2]
 800a7b8:	4770      	bx	lr
 800a7ba:	bf00      	nop

0800a7bc <STM_FaultProcessing>:
 800a7bc:	8843      	ldrh	r3, [r0, #2]
 800a7be:	b430      	push	{r4, r5}
 800a7c0:	8885      	ldrh	r5, [r0, #4]
 800a7c2:	4604      	mov	r4, r0
 800a7c4:	7800      	ldrb	r0, [r0, #0]
 800a7c6:	430b      	orrs	r3, r1
 800a7c8:	ea23 0202 	bic.w	r2, r3, r2
 800a7cc:	4329      	orrs	r1, r5
 800a7ce:	280a      	cmp	r0, #10
 800a7d0:	80a1      	strh	r1, [r4, #4]
 800a7d2:	8062      	strh	r2, [r4, #2]
 800a7d4:	d006      	beq.n	800a7e4 <STM_FaultProcessing+0x28>
 800a7d6:	b90a      	cbnz	r2, 800a7dc <STM_FaultProcessing+0x20>
 800a7d8:	bc30      	pop	{r4, r5}
 800a7da:	4770      	bx	lr
 800a7dc:	200a      	movs	r0, #10
 800a7de:	7020      	strb	r0, [r4, #0]
 800a7e0:	bc30      	pop	{r4, r5}
 800a7e2:	4770      	bx	lr
 800a7e4:	2a00      	cmp	r2, #0
 800a7e6:	d1f7      	bne.n	800a7d8 <STM_FaultProcessing+0x1c>
 800a7e8:	200b      	movs	r0, #11
 800a7ea:	7020      	strb	r0, [r4, #0]
 800a7ec:	bc30      	pop	{r4, r5}
 800a7ee:	4770      	bx	lr

0800a7f0 <STM_NextState>:
 800a7f0:	b508      	push	{r3, lr}
 800a7f2:	7803      	ldrb	r3, [r0, #0]
 800a7f4:	2b14      	cmp	r3, #20
 800a7f6:	d819      	bhi.n	800a82c <STM_NextState+0x3c>
 800a7f8:	e8df f003 	tbb	[pc, r3]
 800a7fc:	240d1257 	.word	0x240d1257
 800a800:	3c0d352e 	.word	0x3c0d352e
 800a804:	1818423f 	.word	0x1818423f
 800a808:	4a650b47 	.word	0x4a650b47
 800a80c:	53505e4d 	.word	0x53505e4d
 800a810:	39          	.byte	0x39
 800a811:	00          	.byte	0x00
 800a812:	290e      	cmp	r1, #14
 800a814:	d001      	beq.n	800a81a <STM_NextState+0x2a>
 800a816:	2907      	cmp	r1, #7
 800a818:	d108      	bne.n	800a82c <STM_NextState+0x3c>
 800a81a:	7001      	strb	r1, [r0, #0]
 800a81c:	2001      	movs	r0, #1
 800a81e:	bd08      	pop	{r3, pc}
 800a820:	2907      	cmp	r1, #7
 800a822:	d0fa      	beq.n	800a81a <STM_NextState+0x2a>
 800a824:	f1a1 030d 	sub.w	r3, r1, #13
 800a828:	2b01      	cmp	r3, #1
 800a82a:	d9f6      	bls.n	800a81a <STM_NextState+0x2a>
 800a82c:	f001 03fd 	and.w	r3, r1, #253	; 0xfd
 800a830:	2b01      	cmp	r3, #1
 800a832:	d00f      	beq.n	800a854 <STM_NextState+0x64>
 800a834:	2907      	cmp	r1, #7
 800a836:	d00d      	beq.n	800a854 <STM_NextState+0x64>
 800a838:	2200      	movs	r2, #0
 800a83a:	2180      	movs	r1, #128	; 0x80
 800a83c:	f7ff ffbe 	bl	800a7bc <STM_FaultProcessing>
 800a840:	2000      	movs	r0, #0
 800a842:	bd08      	pop	{r3, pc}
 800a844:	2911      	cmp	r1, #17
 800a846:	d8f7      	bhi.n	800a838 <STM_NextState+0x48>
 800a848:	4b21      	ldr	r3, [pc, #132]	; (800a8d0 <STM_NextState+0xe0>)
 800a84a:	40cb      	lsrs	r3, r1
 800a84c:	07da      	lsls	r2, r3, #31
 800a84e:	d4e4      	bmi.n	800a81a <STM_NextState+0x2a>
 800a850:	2903      	cmp	r1, #3
 800a852:	d1f1      	bne.n	800a838 <STM_NextState+0x48>
 800a854:	2000      	movs	r0, #0
 800a856:	bd08      	pop	{r3, pc}
 800a858:	2913      	cmp	r1, #19
 800a85a:	d0de      	beq.n	800a81a <STM_NextState+0x2a>
 800a85c:	f001 03fd 	and.w	r3, r1, #253	; 0xfd
 800a860:	2b05      	cmp	r3, #5
 800a862:	d1e5      	bne.n	800a830 <STM_NextState+0x40>
 800a864:	e7d9      	b.n	800a81a <STM_NextState+0x2a>
 800a866:	1f8b      	subs	r3, r1, #6
 800a868:	2b01      	cmp	r3, #1
 800a86a:	d8df      	bhi.n	800a82c <STM_NextState+0x3c>
 800a86c:	e7d5      	b.n	800a81a <STM_NextState+0x2a>
 800a86e:	2912      	cmp	r1, #18
 800a870:	d1d1      	bne.n	800a816 <STM_NextState+0x26>
 800a872:	e7d2      	b.n	800a81a <STM_NextState+0x2a>
 800a874:	2908      	cmp	r1, #8
 800a876:	d1d9      	bne.n	800a82c <STM_NextState+0x3c>
 800a878:	e7cf      	b.n	800a81a <STM_NextState+0x2a>
 800a87a:	2909      	cmp	r1, #9
 800a87c:	d1d6      	bne.n	800a82c <STM_NextState+0x3c>
 800a87e:	e7cc      	b.n	800a81a <STM_NextState+0x2a>
 800a880:	2900      	cmp	r1, #0
 800a882:	d0ca      	beq.n	800a81a <STM_NextState+0x2a>
 800a884:	290c      	cmp	r1, #12
 800a886:	d1d1      	bne.n	800a82c <STM_NextState+0x3c>
 800a888:	e7c7      	b.n	800a81a <STM_NextState+0x2a>
 800a88a:	2900      	cmp	r1, #0
 800a88c:	d1ce      	bne.n	800a82c <STM_NextState+0x3c>
 800a88e:	e7c4      	b.n	800a81a <STM_NextState+0x2a>
 800a890:	2902      	cmp	r1, #2
 800a892:	d1c0      	bne.n	800a816 <STM_NextState+0x26>
 800a894:	e7c1      	b.n	800a81a <STM_NextState+0x2a>
 800a896:	2911      	cmp	r1, #17
 800a898:	d1bd      	bne.n	800a816 <STM_NextState+0x26>
 800a89a:	e7be      	b.n	800a81a <STM_NextState+0x2a>
 800a89c:	2904      	cmp	r1, #4
 800a89e:	d1ba      	bne.n	800a816 <STM_NextState+0x26>
 800a8a0:	e7bb      	b.n	800a81a <STM_NextState+0x2a>
 800a8a2:	1f0b      	subs	r3, r1, #4
 800a8a4:	2b01      	cmp	r3, #1
 800a8a6:	d8b6      	bhi.n	800a816 <STM_NextState+0x26>
 800a8a8:	e7b7      	b.n	800a81a <STM_NextState+0x2a>
 800a8aa:	f001 03fd 	and.w	r3, r1, #253	; 0xfd
 800a8ae:	2b01      	cmp	r3, #1
 800a8b0:	d0b3      	beq.n	800a81a <STM_NextState+0x2a>
 800a8b2:	290c      	cmp	r1, #12
 800a8b4:	d1be      	bne.n	800a834 <STM_NextState+0x44>
 800a8b6:	e7b0      	b.n	800a81a <STM_NextState+0x2a>
 800a8b8:	2914      	cmp	r1, #20
 800a8ba:	d8b7      	bhi.n	800a82c <STM_NextState+0x3c>
 800a8bc:	4b05      	ldr	r3, [pc, #20]	; (800a8d4 <STM_NextState+0xe4>)
 800a8be:	40cb      	lsrs	r3, r1
 800a8c0:	07db      	lsls	r3, r3, #31
 800a8c2:	d4aa      	bmi.n	800a81a <STM_NextState+0x2a>
 800a8c4:	e7b2      	b.n	800a82c <STM_NextState+0x3c>
 800a8c6:	f001 03f7 	and.w	r3, r1, #247	; 0xf7
 800a8ca:	2b07      	cmp	r3, #7
 800a8cc:	d1ae      	bne.n	800a82c <STM_NextState+0x3c>
 800a8ce:	e7a4      	b.n	800a81a <STM_NextState+0x2a>
 800a8d0:	00030092 	.word	0x00030092
 800a8d4:	00140080 	.word	0x00140080

0800a8d8 <STM_GetState>:
 800a8d8:	7800      	ldrb	r0, [r0, #0]
 800a8da:	4770      	bx	lr

0800a8dc <STM_FaultAcknowledged>:
 800a8dc:	7803      	ldrb	r3, [r0, #0]
 800a8de:	2b0b      	cmp	r3, #11
 800a8e0:	d001      	beq.n	800a8e6 <STM_FaultAcknowledged+0xa>
 800a8e2:	2000      	movs	r0, #0
 800a8e4:	4770      	bx	lr
 800a8e6:	2209      	movs	r2, #9
 800a8e8:	2300      	movs	r3, #0
 800a8ea:	7002      	strb	r2, [r0, #0]
 800a8ec:	8083      	strh	r3, [r0, #4]
 800a8ee:	2001      	movs	r0, #1
 800a8f0:	4770      	bx	lr
 800a8f2:	bf00      	nop

0800a8f4 <STM_GetFaultState>:
 800a8f4:	8883      	ldrh	r3, [r0, #4]
 800a8f6:	8840      	ldrh	r0, [r0, #2]
 800a8f8:	ea43 4000 	orr.w	r0, r3, r0, lsl #16
 800a8fc:	4770      	bx	lr
 800a8fe:	bf00      	nop

0800a900 <UFCP_Init>:
 800a900:	f7fe bb90 	b.w	8009024 <FCP_Init>

0800a904 <UFCP_TX_IRQ_Handler>:
 800a904:	f890 2097 	ldrb.w	r2, [r0, #151]	; 0x97
 800a908:	b192      	cbz	r2, 800a930 <UFCP_TX_IRQ_Handler+0x2c>
 800a90a:	f890 1098 	ldrb.w	r1, [r0, #152]	; 0x98
 800a90e:	f8d0 2120 	ldr.w	r2, [r0, #288]	; 0x120
 800a912:	4603      	mov	r3, r0
 800a914:	b199      	cbz	r1, 800a93e <UFCP_TX_IRQ_Handler+0x3a>
 800a916:	2901      	cmp	r1, #1
 800a918:	d00b      	beq.n	800a932 <UFCP_TX_IRQ_Handler+0x2e>
 800a91a:	7d40      	ldrb	r0, [r0, #21]
 800a91c:	3001      	adds	r0, #1
 800a91e:	4281      	cmp	r1, r0
 800a920:	dc0f      	bgt.n	800a942 <UFCP_TX_IRQ_Handler+0x3e>
 800a922:	1858      	adds	r0, r3, r1
 800a924:	3101      	adds	r1, #1
 800a926:	7d00      	ldrb	r0, [r0, #20]
 800a928:	6290      	str	r0, [r2, #40]	; 0x28
 800a92a:	f883 1098 	strb.w	r1, [r3, #152]	; 0x98
 800a92e:	4770      	bx	lr
 800a930:	4770      	bx	lr
 800a932:	7d40      	ldrb	r0, [r0, #21]
 800a934:	6290      	str	r0, [r2, #40]	; 0x28
 800a936:	3101      	adds	r1, #1
 800a938:	f883 1098 	strb.w	r1, [r3, #152]	; 0x98
 800a93c:	4770      	bx	lr
 800a93e:	7d00      	ldrb	r0, [r0, #20]
 800a940:	e7f8      	b.n	800a934 <UFCP_TX_IRQ_Handler+0x30>
 800a942:	b430      	push	{r4, r5}
 800a944:	f893 1096 	ldrb.w	r1, [r3, #150]	; 0x96
 800a948:	6291      	str	r1, [r2, #40]	; 0x28
 800a94a:	6811      	ldr	r1, [r2, #0]
 800a94c:	e9d3 0400 	ldrd	r0, r4, [r3]
 800a950:	2500      	movs	r5, #0
 800a952:	f021 0180 	bic.w	r1, r1, #128	; 0x80
 800a956:	6011      	str	r1, [r2, #0]
 800a958:	f883 5097 	strb.w	r5, [r3, #151]	; 0x97
 800a95c:	4623      	mov	r3, r4
 800a95e:	bc30      	pop	{r4, r5}
 800a960:	4718      	bx	r3
 800a962:	bf00      	nop

0800a964 <UFCP_Receive>:
 800a964:	f890 311c 	ldrb.w	r3, [r0, #284]	; 0x11c
 800a968:	b10b      	cbz	r3, 800a96e <UFCP_Receive+0xa>
 800a96a:	2001      	movs	r0, #1
 800a96c:	4770      	bx	lr
 800a96e:	f8d0 2120 	ldr.w	r2, [r0, #288]	; 0x120
 800a972:	f880 311d 	strb.w	r3, [r0, #285]	; 0x11d
 800a976:	6813      	ldr	r3, [r2, #0]
 800a978:	2101      	movs	r1, #1
 800a97a:	f043 0320 	orr.w	r3, r3, #32
 800a97e:	f880 111c 	strb.w	r1, [r0, #284]	; 0x11c
 800a982:	2002      	movs	r0, #2
 800a984:	6013      	str	r3, [r2, #0]
 800a986:	4770      	bx	lr

0800a988 <UFCP_Send>:
 800a988:	e92d 41f0 	stmdb	sp!, {r4, r5, r6, r7, r8, lr}
 800a98c:	4604      	mov	r4, r0
 800a98e:	f890 0097 	ldrb.w	r0, [r0, #151]	; 0x97
 800a992:	b110      	cbz	r0, 800a99a <UFCP_Send+0x12>
 800a994:	2001      	movs	r0, #1
 800a996:	e8bd 81f0 	ldmia.w	sp!, {r4, r5, r6, r7, r8, pc}
 800a99a:	1e58      	subs	r0, r3, #1
 800a99c:	7521      	strb	r1, [r4, #20]
 800a99e:	7563      	strb	r3, [r4, #21]
 800a9a0:	b2c1      	uxtb	r1, r0
 800a9a2:	f104 0716 	add.w	r7, r4, #22
 800a9a6:	2b00      	cmp	r3, #0
 800a9a8:	d05d      	beq.n	800aa66 <UFCP_Send+0xde>
 800a9aa:	1d10      	adds	r0, r2, #4
 800a9ac:	f104 051a 	add.w	r5, r4, #26
 800a9b0:	4295      	cmp	r5, r2
 800a9b2:	bf88      	it	hi
 800a9b4:	42b8      	cmphi	r0, r7
 800a9b6:	d86b      	bhi.n	800aa90 <UFCP_Send+0x108>
 800a9b8:	2b0b      	cmp	r3, #11
 800a9ba:	d969      	bls.n	800aa90 <UFCP_Send+0x108>
 800a9bc:	4250      	negs	r0, r2
 800a9be:	f000 0003 	and.w	r0, r0, #3
 800a9c2:	1cc5      	adds	r5, r0, #3
 800a9c4:	42a9      	cmp	r1, r5
 800a9c6:	d339      	bcc.n	800aa3c <UFCP_Send+0xb4>
 800a9c8:	2800      	cmp	r0, #0
 800a9ca:	d06c      	beq.n	800aaa6 <UFCP_Send+0x11e>
 800a9cc:	7811      	ldrb	r1, [r2, #0]
 800a9ce:	75a1      	strb	r1, [r4, #22]
 800a9d0:	2801      	cmp	r0, #1
 800a9d2:	f1a3 0102 	sub.w	r1, r3, #2
 800a9d6:	b2c9      	uxtb	r1, r1
 800a9d8:	f102 0c01 	add.w	ip, r2, #1
 800a9dc:	f104 0717 	add.w	r7, r4, #23
 800a9e0:	d012      	beq.n	800aa08 <UFCP_Send+0x80>
 800a9e2:	7851      	ldrb	r1, [r2, #1]
 800a9e4:	75e1      	strb	r1, [r4, #23]
 800a9e6:	2803      	cmp	r0, #3
 800a9e8:	f1a3 0103 	sub.w	r1, r3, #3
 800a9ec:	b2c9      	uxtb	r1, r1
 800a9ee:	f102 0c02 	add.w	ip, r2, #2
 800a9f2:	f104 0718 	add.w	r7, r4, #24
 800a9f6:	d107      	bne.n	800aa08 <UFCP_Send+0x80>
 800a9f8:	7891      	ldrb	r1, [r2, #2]
 800a9fa:	7621      	strb	r1, [r4, #24]
 800a9fc:	1f19      	subs	r1, r3, #4
 800a9fe:	b2c9      	uxtb	r1, r1
 800aa00:	f102 0c03 	add.w	ip, r2, #3
 800aa04:	f104 0719 	add.w	r7, r4, #25
 800aa08:	1a1b      	subs	r3, r3, r0
 800aa0a:	b2dd      	uxtb	r5, r3
 800aa0c:	f100 0316 	add.w	r3, r0, #22
 800aa10:	4402      	add	r2, r0
 800aa12:	ea4f 0895 	mov.w	r8, r5, lsr #2
 800aa16:	18e0      	adds	r0, r4, r3
 800aa18:	2300      	movs	r3, #0
 800aa1a:	3301      	adds	r3, #1
 800aa1c:	b2de      	uxtb	r6, r3
 800aa1e:	f852 eb04 	ldr.w	lr, [r2], #4
 800aa22:	f840 eb04 	str.w	lr, [r0], #4
 800aa26:	45b0      	cmp	r8, r6
 800aa28:	d8f7      	bhi.n	800aa1a <UFCP_Send+0x92>
 800aa2a:	f005 03fc 	and.w	r3, r5, #252	; 0xfc
 800aa2e:	1ac9      	subs	r1, r1, r3
 800aa30:	429d      	cmp	r5, r3
 800aa32:	b2c9      	uxtb	r1, r1
 800aa34:	eb0c 0203 	add.w	r2, ip, r3
 800aa38:	441f      	add	r7, r3
 800aa3a:	d014      	beq.n	800aa66 <UFCP_Send+0xde>
 800aa3c:	7813      	ldrb	r3, [r2, #0]
 800aa3e:	703b      	strb	r3, [r7, #0]
 800aa40:	b189      	cbz	r1, 800aa66 <UFCP_Send+0xde>
 800aa42:	7853      	ldrb	r3, [r2, #1]
 800aa44:	707b      	strb	r3, [r7, #1]
 800aa46:	2901      	cmp	r1, #1
 800aa48:	d00d      	beq.n	800aa66 <UFCP_Send+0xde>
 800aa4a:	7893      	ldrb	r3, [r2, #2]
 800aa4c:	70bb      	strb	r3, [r7, #2]
 800aa4e:	2902      	cmp	r1, #2
 800aa50:	d009      	beq.n	800aa66 <UFCP_Send+0xde>
 800aa52:	78d3      	ldrb	r3, [r2, #3]
 800aa54:	70fb      	strb	r3, [r7, #3]
 800aa56:	2903      	cmp	r1, #3
 800aa58:	d005      	beq.n	800aa66 <UFCP_Send+0xde>
 800aa5a:	7913      	ldrb	r3, [r2, #4]
 800aa5c:	713b      	strb	r3, [r7, #4]
 800aa5e:	2904      	cmp	r1, #4
 800aa60:	d001      	beq.n	800aa66 <UFCP_Send+0xde>
 800aa62:	7953      	ldrb	r3, [r2, #5]
 800aa64:	717b      	strb	r3, [r7, #5]
 800aa66:	f104 0014 	add.w	r0, r4, #20
 800aa6a:	f7fe faf1 	bl	8009050 <FCP_CalcCRC>
 800aa6e:	f8d4 2120 	ldr.w	r2, [r4, #288]	; 0x120
 800aa72:	f884 0096 	strb.w	r0, [r4, #150]	; 0x96
 800aa76:	2300      	movs	r3, #0
 800aa78:	f884 3098 	strb.w	r3, [r4, #152]	; 0x98
 800aa7c:	6813      	ldr	r3, [r2, #0]
 800aa7e:	2101      	movs	r1, #1
 800aa80:	f043 0380 	orr.w	r3, r3, #128	; 0x80
 800aa84:	f884 1097 	strb.w	r1, [r4, #151]	; 0x97
 800aa88:	2002      	movs	r0, #2
 800aa8a:	6013      	str	r3, [r2, #0]
 800aa8c:	e8bd 81f0 	ldmia.w	sp!, {r4, r5, r6, r7, r8, pc}
 800aa90:	3101      	adds	r1, #1
 800aa92:	4411      	add	r1, r2
 800aa94:	f104 0315 	add.w	r3, r4, #21
 800aa98:	f812 0b01 	ldrb.w	r0, [r2], #1
 800aa9c:	f803 0f01 	strb.w	r0, [r3, #1]!
 800aaa0:	428a      	cmp	r2, r1
 800aaa2:	d1f9      	bne.n	800aa98 <UFCP_Send+0x110>
 800aaa4:	e7df      	b.n	800aa66 <UFCP_Send+0xde>
 800aaa6:	4694      	mov	ip, r2
 800aaa8:	e7ae      	b.n	800aa08 <UFCP_Send+0x80>
 800aaaa:	bf00      	nop

0800aaac <UFCP_RX_IRQ_Handler>:
 800aaac:	f890 311c 	ldrb.w	r3, [r0, #284]	; 0x11c
 800aab0:	b1b3      	cbz	r3, 800aae0 <UFCP_RX_IRQ_Handler+0x34>
 800aab2:	b530      	push	{r4, r5, lr}
 800aab4:	f890 311d 	ldrb.w	r3, [r0, #285]	; 0x11d
 800aab8:	4604      	mov	r4, r0
 800aaba:	b083      	sub	sp, #12
 800aabc:	b2c8      	uxtb	r0, r1
 800aabe:	b1e3      	cbz	r3, 800aafa <UFCP_RX_IRQ_Handler+0x4e>
 800aac0:	2b01      	cmp	r3, #1
 800aac2:	d00f      	beq.n	800aae4 <UFCP_RX_IRQ_Handler+0x38>
 800aac4:	f894 109a 	ldrb.w	r1, [r4, #154]	; 0x9a
 800aac8:	3101      	adds	r1, #1
 800aaca:	428b      	cmp	r3, r1
 800aacc:	dc1f      	bgt.n	800ab0e <UFCP_RX_IRQ_Handler+0x62>
 800aace:	18e1      	adds	r1, r4, r3
 800aad0:	3301      	adds	r3, #1
 800aad2:	f881 0099 	strb.w	r0, [r1, #153]	; 0x99
 800aad6:	4823      	ldr	r0, [pc, #140]	; (800ab64 <UFCP_RX_IRQ_Handler+0xb8>)
 800aad8:	f884 311d 	strb.w	r3, [r4, #285]	; 0x11d
 800aadc:	b003      	add	sp, #12
 800aade:	bd30      	pop	{r4, r5, pc}
 800aae0:	4820      	ldr	r0, [pc, #128]	; (800ab64 <UFCP_RX_IRQ_Handler+0xb8>)
 800aae2:	4770      	bx	lr
 800aae4:	060b      	lsls	r3, r1, #24
 800aae6:	f884 009a 	strb.w	r0, [r4, #154]	; 0x9a
 800aaea:	481e      	ldr	r0, [pc, #120]	; (800ab64 <UFCP_RX_IRQ_Handler+0xb8>)
 800aaec:	bf54      	ite	pl
 800aaee:	2302      	movpl	r3, #2
 800aaf0:	2300      	movmi	r3, #0
 800aaf2:	f884 311d 	strb.w	r3, [r4, #285]	; 0x11d
 800aaf6:	b003      	add	sp, #12
 800aaf8:	bd30      	pop	{r4, r5, pc}
 800aafa:	8a21      	ldrh	r1, [r4, #16]
 800aafc:	f884 0099 	strb.w	r0, [r4, #153]	; 0x99
 800ab00:	4819      	ldr	r0, [pc, #100]	; (800ab68 <UFCP_RX_IRQ_Handler+0xbc>)
 800ab02:	8261      	strh	r1, [r4, #18]
 800ab04:	2301      	movs	r3, #1
 800ab06:	f884 311d 	strb.w	r3, [r4, #285]	; 0x11d
 800ab0a:	b003      	add	sp, #12
 800ab0c:	bd30      	pop	{r4, r5, pc}
 800ab0e:	f8d4 1120 	ldr.w	r1, [r4, #288]	; 0x120
 800ab12:	f884 011b 	strb.w	r0, [r4, #283]	; 0x11b
 800ab16:	680b      	ldr	r3, [r1, #0]
 800ab18:	2200      	movs	r2, #0
 800ab1a:	f023 0320 	bic.w	r3, r3, #32
 800ab1e:	8262      	strh	r2, [r4, #18]
 800ab20:	f104 0099 	add.w	r0, r4, #153	; 0x99
 800ab24:	600b      	str	r3, [r1, #0]
 800ab26:	f884 211c 	strb.w	r2, [r4, #284]	; 0x11c
 800ab2a:	f7fe fa91 	bl	8009050 <FCP_CalcCRC>
 800ab2e:	f894 311b 	ldrb.w	r3, [r4, #283]	; 0x11b
 800ab32:	4283      	cmp	r3, r0
 800ab34:	d10a      	bne.n	800ab4c <UFCP_RX_IRQ_Handler+0xa0>
 800ab36:	6820      	ldr	r0, [r4, #0]
 800ab38:	68a5      	ldr	r5, [r4, #8]
 800ab3a:	f894 309a 	ldrb.w	r3, [r4, #154]	; 0x9a
 800ab3e:	f894 1099 	ldrb.w	r1, [r4, #153]	; 0x99
 800ab42:	f104 029b 	add.w	r2, r4, #155	; 0x9b
 800ab46:	47a8      	blx	r5
 800ab48:	4808      	ldr	r0, [pc, #32]	; (800ab6c <UFCP_RX_IRQ_Handler+0xc0>)
 800ab4a:	e7c7      	b.n	800aadc <UFCP_RX_IRQ_Handler+0x30>
 800ab4c:	aa02      	add	r2, sp, #8
 800ab4e:	230a      	movs	r3, #10
 800ab50:	f802 3d01 	strb.w	r3, [r2, #-1]!
 800ab54:	4620      	mov	r0, r4
 800ab56:	2301      	movs	r3, #1
 800ab58:	21ff      	movs	r1, #255	; 0xff
 800ab5a:	f7ff ff15 	bl	800a988 <UFCP_Send>
 800ab5e:	4803      	ldr	r0, [pc, #12]	; (800ab6c <UFCP_RX_IRQ_Handler+0xc0>)
 800ab60:	e7bc      	b.n	800aadc <UFCP_RX_IRQ_Handler+0x30>
 800ab62:	bf00      	nop
 800ab64:	0800af96 	.word	0x0800af96
 800ab68:	0800af98 	.word	0x0800af98
 800ab6c:	0800af9a 	.word	0x0800af9a

0800ab70 <UFCP_OVR_IRQ_Handler>:
 800ab70:	b500      	push	{lr}
 800ab72:	b083      	sub	sp, #12
 800ab74:	aa02      	add	r2, sp, #8
 800ab76:	2308      	movs	r3, #8
 800ab78:	f802 3d01 	strb.w	r3, [r2, #-1]!
 800ab7c:	21ff      	movs	r1, #255	; 0xff
 800ab7e:	2301      	movs	r3, #1
 800ab80:	f7ff ff02 	bl	800a988 <UFCP_Send>
 800ab84:	b003      	add	sp, #12
 800ab86:	f85d fb04 	ldr.w	pc, [sp], #4
 800ab8a:	bf00      	nop

0800ab8c <UFCP_AbortReceive>:
 800ab8c:	2300      	movs	r3, #0
 800ab8e:	f880 311c 	strb.w	r3, [r0, #284]	; 0x11c
 800ab92:	4770      	bx	lr

0800ab94 <VSS_Clear>:
 800ab94:	2300      	movs	r3, #0
 800ab96:	8ec2      	ldrh	r2, [r0, #54]	; 0x36
 800ab98:	85c2      	strh	r2, [r0, #46]	; 0x2e
 800ab9a:	7003      	strb	r3, [r0, #0]
 800ab9c:	6043      	str	r3, [r0, #4]
 800ab9e:	60c3      	str	r3, [r0, #12]
 800aba0:	8243      	strh	r3, [r0, #18]
 800aba2:	e9c0 3308 	strd	r3, r3, [r0, #32]
 800aba6:	8503      	strh	r3, [r0, #40]	; 0x28
 800aba8:	8603      	strh	r3, [r0, #48]	; 0x30
 800abaa:	f880 302c 	strb.w	r3, [r0, #44]	; 0x2c
 800abae:	f880 302d 	strb.w	r3, [r0, #45]	; 0x2d
 800abb2:	f880 3032 	strb.w	r3, [r0, #50]	; 0x32
 800abb6:	f880 3033 	strb.w	r3, [r0, #51]	; 0x33
 800abba:	4770      	bx	lr

0800abbc <VSS_Init>:
 800abbc:	b508      	push	{r3, lr}
 800abbe:	f7ff ffe9 	bl	800ab94 <VSS_Clear>
 800abc2:	bd08      	pop	{r3, pc}

0800abc4 <VSS_SetMecAngle>:
 800abc4:	8601      	strh	r1, [r0, #48]	; 0x30
 800abc6:	8081      	strh	r1, [r0, #4]
 800abc8:	7843      	ldrb	r3, [r0, #1]
 800abca:	fb91 f1f3 	sdiv	r1, r1, r3
 800abce:	80c1      	strh	r1, [r0, #6]
 800abd0:	4770      	bx	lr
 800abd2:	bf00      	nop

0800abd4 <VSS_SetMecAcceleration>:
 800abd4:	f890 302c 	ldrb.w	r3, [r0, #44]	; 0x2c
 800abd8:	bb73      	cbnz	r3, 800ac38 <VSS_SetMecAcceleration+0x64>
 800abda:	b470      	push	{r4, r5, r6}
 800abdc:	8b45      	ldrh	r5, [r0, #26]
 800abde:	69c3      	ldr	r3, [r0, #28]
 800abe0:	7844      	ldrb	r4, [r0, #1]
 800abe2:	eb05 0585 	add.w	r5, r5, r5, lsl #2
 800abe6:	006d      	lsls	r5, r5, #1
 800abe8:	fb03 f301 	mul.w	r3, r3, r1
 800abec:	fb93 f3f5 	sdiv	r3, r3, r5
 800abf0:	b1d2      	cbz	r2, 800ac28 <VSS_SetMecAcceleration+0x54>
 800abf2:	8e86      	ldrh	r6, [r0, #52]	; 0x34
 800abf4:	4d11      	ldr	r5, [pc, #68]	; (800ac3c <VSS_SetMecAcceleration+0x68>)
 800abf6:	8541      	strh	r1, [r0, #42]	; 0x2a
 800abf8:	fb02 f206 	mul.w	r2, r2, r6
 800abfc:	fba5 1202 	umull	r1, r2, r5, r2
 800ac00:	f3c2 128f 	ubfx	r2, r2, #6, #16
 800ac04:	f9b0 100e 	ldrsh.w	r1, [r0, #14]
 800ac08:	fb91 f5f4 	sdiv	r5, r1, r4
 800ac0c:	3201      	adds	r2, #1
 800ac0e:	1b5b      	subs	r3, r3, r5
 800ac10:	b292      	uxth	r2, r2
 800ac12:	041b      	lsls	r3, r3, #16
 800ac14:	0409      	lsls	r1, r1, #16
 800ac16:	fb93 f3f2 	sdiv	r3, r3, r2
 800ac1a:	fb04 f303 	mul.w	r3, r4, r3
 800ac1e:	8502      	strh	r2, [r0, #40]	; 0x28
 800ac20:	e9c0 3108 	strd	r3, r1, [r0, #32]
 800ac24:	bc70      	pop	{r4, r5, r6}
 800ac26:	4770      	bx	lr
 800ac28:	fb13 f304 	smulbb	r3, r3, r4
 800ac2c:	81c3      	strh	r3, [r0, #14]
 800ac2e:	8181      	strh	r1, [r0, #12]
 800ac30:	8502      	strh	r2, [r0, #40]	; 0x28
 800ac32:	8541      	strh	r1, [r0, #42]	; 0x2a
 800ac34:	bc70      	pop	{r4, r5, r6}
 800ac36:	4770      	bx	lr
 800ac38:	4770      	bx	lr
 800ac3a:	bf00      	nop
 800ac3c:	10624dd3 	.word	0x10624dd3

0800ac40 <RUC_SetPhaseDurationms>:
 800ac40:	eb01 0141 	add.w	r1, r1, r1, lsl #1
 800ac44:	eb00 0181 	add.w	r1, r0, r1, lsl #2
 800ac48:	818a      	strh	r2, [r1, #12]
 800ac4a:	4770      	bx	lr

0800ac4c <RUC_SetPhaseFinalMecSpeedUnit>:
 800ac4c:	eb01 0141 	add.w	r1, r1, r1, lsl #1
 800ac50:	eb00 0181 	add.w	r1, r0, r1, lsl #2
 800ac54:	81ca      	strh	r2, [r1, #14]
 800ac56:	4770      	bx	lr

0800ac58 <RUC_SetPhaseFinalTorque>:
 800ac58:	eb01 0141 	add.w	r1, r1, r1, lsl #1
 800ac5c:	eb00 0181 	add.w	r1, r0, r1, lsl #2
 800ac60:	820a      	strh	r2, [r1, #16]
 800ac62:	4770      	bx	lr

0800ac64 <RUC_GetPhaseDurationms>:
 800ac64:	eb01 0141 	add.w	r1, r1, r1, lsl #1
 800ac68:	eb00 0181 	add.w	r1, r0, r1, lsl #2
 800ac6c:	8988      	ldrh	r0, [r1, #12]
 800ac6e:	4770      	bx	lr

0800ac70 <RUC_GetPhaseFinalMecSpeedUnit>:
 800ac70:	eb01 0141 	add.w	r1, r1, r1, lsl #1
 800ac74:	eb00 0181 	add.w	r1, r0, r1, lsl #2
 800ac78:	f9b1 000e 	ldrsh.w	r0, [r1, #14]
 800ac7c:	4770      	bx	lr
 800ac7e:	bf00      	nop

0800ac80 <RUC_GetPhaseFinalTorque>:
 800ac80:	eb01 0141 	add.w	r1, r1, r1, lsl #1
 800ac84:	eb00 0181 	add.w	r1, r0, r1, lsl #2
 800ac88:	f9b1 0010 	ldrsh.w	r0, [r1, #16]
 800ac8c:	4770      	bx	lr
 800ac8e:	bf00      	nop

0800ac90 <RUC_GetNumberOfPhases>:
 800ac90:	f890 0048 	ldrb.w	r0, [r0, #72]	; 0x48
 800ac94:	4770      	bx	lr
 800ac96:	bf00      	nop

0800ac98 <__libc_init_array>:
 800ac98:	b570      	push	{r4, r5, r6, lr}
 800ac9a:	4e0d      	ldr	r6, [pc, #52]	; (800acd0 <__libc_init_array+0x38>)
 800ac9c:	4c0d      	ldr	r4, [pc, #52]	; (800acd4 <__libc_init_array+0x3c>)
 800ac9e:	1ba4      	subs	r4, r4, r6
 800aca0:	10a4      	asrs	r4, r4, #2
 800aca2:	2500      	movs	r5, #0
 800aca4:	42a5      	cmp	r5, r4
 800aca6:	d109      	bne.n	800acbc <__libc_init_array+0x24>
 800aca8:	4e0b      	ldr	r6, [pc, #44]	; (800acd8 <__libc_init_array+0x40>)
 800acaa:	4c0c      	ldr	r4, [pc, #48]	; (800acdc <__libc_init_array+0x44>)
 800acac:	f000 f820 	bl	800acf0 <_init>
 800acb0:	1ba4      	subs	r4, r4, r6
 800acb2:	10a4      	asrs	r4, r4, #2
 800acb4:	2500      	movs	r5, #0
 800acb6:	42a5      	cmp	r5, r4
 800acb8:	d105      	bne.n	800acc6 <__libc_init_array+0x2e>
 800acba:	bd70      	pop	{r4, r5, r6, pc}
 800acbc:	f856 3025 	ldr.w	r3, [r6, r5, lsl #2]
 800acc0:	4798      	blx	r3
 800acc2:	3501      	adds	r5, #1
 800acc4:	e7ee      	b.n	800aca4 <__libc_init_array+0xc>
 800acc6:	f856 3025 	ldr.w	r3, [r6, r5, lsl #2]
 800acca:	4798      	blx	r3
 800accc:	3501      	adds	r5, #1
 800acce:	e7f2      	b.n	800acb6 <__libc_init_array+0x1e>
 800acd0:	0800afa4 	.word	0x0800afa4
 800acd4:	0800afa4 	.word	0x0800afa4
 800acd8:	0800afa4 	.word	0x0800afa4
 800acdc:	0800afa8 	.word	0x0800afa8

0800ace0 <memset>:
 800ace0:	4402      	add	r2, r0
 800ace2:	4603      	mov	r3, r0
 800ace4:	4293      	cmp	r3, r2
 800ace6:	d100      	bne.n	800acea <memset+0xa>
 800ace8:	4770      	bx	lr
 800acea:	f803 1b01 	strb.w	r1, [r3], #1
 800acee:	e7f9      	b.n	800ace4 <memset+0x4>

0800acf0 <_init>:
 800acf0:	b5f8      	push	{r3, r4, r5, r6, r7, lr}
 800acf2:	bf00      	nop
 800acf4:	bcf8      	pop	{r3, r4, r5, r6, r7}
 800acf6:	bc08      	pop	{r3}
 800acf8:	469e      	mov	lr, r3
 800acfa:	4770      	bx	lr

0800acfc <_fini>:
 800acfc:	b5f8      	push	{r3, r4, r5, r6, r7, lr}
 800acfe:	bf00      	nop
 800ad00:	bcf8      	pop	{r3, r4, r5, r6, r7}
 800ad02:	bc08      	pop	{r3}
 800ad04:	469e      	mov	lr, r3
 800ad06:	4770      	bx	lr
